Archive member included because of file (symbol)

/opt/local/lib/gcc/avr/4.6.2/../../../../avr/lib/avr51/libprintf_min.a(vfprintf_min.o)
                              (vfprintf)
/opt/local/lib/gcc/avr/4.6.2/../../../../avr/lib/avr51/libm.a(addsf3.o)
                              ../../../src/drivers/platform/MARS/source/ITG3200.o (__addsf3)
/opt/local/lib/gcc/avr/4.6.2/../../../../avr/lib/avr51/libm.a(addsf3x.o)
                              /opt/local/lib/gcc/avr/4.6.2/../../../../avr/lib/avr51/libm.a(addsf3.o) (__addsf3x)
/opt/local/lib/gcc/avr/4.6.2/../../../../avr/lib/avr51/libm.a(atan2.o)
                              ../../../src/drivers/platform/MARS/source/HMC5883L.o (atan2)
/opt/local/lib/gcc/avr/4.6.2/../../../../avr/lib/avr51/libm.a(atan.o)
                              /opt/local/lib/gcc/avr/4.6.2/../../../../avr/lib/avr51/libm.a(atan2.o) (atan)
/opt/local/lib/gcc/avr/4.6.2/../../../../avr/lib/avr51/libm.a(cmpsf2.o)
                              ../../../src/drivers/platform/MARS/source/HMC5883L.o (__eqsf2)
/opt/local/lib/gcc/avr/4.6.2/../../../../avr/lib/avr51/libm.a(divsf3.o)
                              ../../../src/drivers/platform/MARS/source/ITG3200.o (__divsf3)
/opt/local/lib/gcc/avr/4.6.2/../../../../avr/lib/avr51/libm.a(divsf3x.o)
                              /opt/local/lib/gcc/avr/4.6.2/../../../../avr/lib/avr51/libm.a(divsf3.o) (__divsf3x)
/opt/local/lib/gcc/avr/4.6.2/../../../../avr/lib/avr51/libm.a(fixsfsi.o)
                              ../../../src/drivers/platform/MARS/source/ADXL345.o (__fixsfsi)
/opt/local/lib/gcc/avr/4.6.2/../../../../avr/lib/avr51/libm.a(fixunssfsi.o)
                              /opt/local/lib/gcc/avr/4.6.2/../../../../avr/lib/avr51/libm.a(fixsfsi.o) (__fixunssfsi)
/opt/local/lib/gcc/avr/4.6.2/../../../../avr/lib/avr51/libm.a(floatsisf.o)
                              ../../../src/drivers/platform/MARS/source/ITG3200.o (__floatunsisf)
/opt/local/lib/gcc/avr/4.6.2/../../../../avr/lib/avr51/libm.a(fp_cmp.o)
                              /opt/local/lib/gcc/avr/4.6.2/../../../../avr/lib/avr51/libm.a(cmpsf2.o) (__fp_cmp)
/opt/local/lib/gcc/avr/4.6.2/../../../../avr/lib/avr51/libm.a(fp_inf.o)
                              /opt/local/lib/gcc/avr/4.6.2/../../../../avr/lib/avr51/libm.a(addsf3x.o) (__fp_inf)
/opt/local/lib/gcc/avr/4.6.2/../../../../avr/lib/avr51/libm.a(fp_nan.o)
                              /opt/local/lib/gcc/avr/4.6.2/../../../../avr/lib/avr51/libm.a(addsf3x.o) (__fp_nan)
/opt/local/lib/gcc/avr/4.6.2/../../../../avr/lib/avr51/libm.a(fp_powser.o)
                              /opt/local/lib/gcc/avr/4.6.2/../../../../avr/lib/avr51/libm.a(atan.o) (__fp_powser)
/opt/local/lib/gcc/avr/4.6.2/../../../../avr/lib/avr51/libm.a(fp_pscA.o)
                              /opt/local/lib/gcc/avr/4.6.2/../../../../avr/lib/avr51/libm.a(addsf3x.o) (__fp_pscA)
/opt/local/lib/gcc/avr/4.6.2/../../../../avr/lib/avr51/libm.a(fp_pscB.o)
                              /opt/local/lib/gcc/avr/4.6.2/../../../../avr/lib/avr51/libm.a(addsf3x.o) (__fp_pscB)
/opt/local/lib/gcc/avr/4.6.2/../../../../avr/lib/avr51/libm.a(fp_round.o)
                              /opt/local/lib/gcc/avr/4.6.2/../../../../avr/lib/avr51/libm.a(addsf3.o) (__fp_round)
/opt/local/lib/gcc/avr/4.6.2/../../../../avr/lib/avr51/libm.a(fp_split3.o)
                              /opt/local/lib/gcc/avr/4.6.2/../../../../avr/lib/avr51/libm.a(addsf3x.o) (__fp_split3)
/opt/local/lib/gcc/avr/4.6.2/../../../../avr/lib/avr51/libm.a(fp_zero.o)
                              /opt/local/lib/gcc/avr/4.6.2/../../../../avr/lib/avr51/libm.a(addsf3x.o) (__fp_zero)
/opt/local/lib/gcc/avr/4.6.2/../../../../avr/lib/avr51/libm.a(inverse.o)
                              /opt/local/lib/gcc/avr/4.6.2/../../../../avr/lib/avr51/libm.a(atan.o) (inverse)
/opt/local/lib/gcc/avr/4.6.2/../../../../avr/lib/avr51/libm.a(mulsf3.o)
                              ../../../src/drivers/platform/MARS/source/ADXL345.o (__mulsf3)
/opt/local/lib/gcc/avr/4.6.2/../../../../avr/lib/avr51/libm.a(mulsf3x.o)
                              /opt/local/lib/gcc/avr/4.6.2/../../../../avr/lib/avr51/libm.a(atan.o) (__mulsf3x)
/opt/local/lib/gcc/avr/4.6.2/../../../../avr/lib/avr51/libm.a(square.o)
                              /opt/local/lib/gcc/avr/4.6.2/../../../../avr/lib/avr51/libm.a(atan.o) (square)
/opt/local/lib/gcc/avr/4.6.2/avr51/libgcc.a(_mulsi3.o)
                              ../../../src/radio/rf231_soc/source/basic_rf.o (__mulsi3)
/opt/local/lib/gcc/avr/4.6.2/avr51/libgcc.a(_udivmodhi4.o)
                              ../../../src/kernel/source/nrk_scheduler.o (__udivmodhi4)
/opt/local/lib/gcc/avr/4.6.2/avr51/libgcc.a(_divmodhi4.o)
                              ../../../src/drivers/platform/MARS/source/ITG3200.o (__divmodhi4)
/opt/local/lib/gcc/avr/4.6.2/avr51/libgcc.a(_udivmodsi4.o)
                              ../../../src/kernel/source/nrk_time.o (__udivmodsi4)
/opt/local/lib/gcc/avr/4.6.2/avr51/libgcc.a(_exit.o)
                              /opt/local/lib/gcc/avr/4.6.2/../../../../avr/lib/avr51/crtm128rfa1.o (exit)
/opt/local/lib/gcc/avr/4.6.2/avr51/libgcc.a(_copy_data.o)
                              main.o (__do_copy_data)
/opt/local/lib/gcc/avr/4.6.2/avr51/libgcc.a(_clear_bss.o)
                              main.o (__do_clear_bss)
/opt/local/lib/gcc/avr/4.6.2/avr51/libgcc.a(_udivdi3.o)
                              ../../../src/kernel/source/nrk_time.o (__udivdi3)
/opt/local/lib/gcc/avr/4.6.2/avr51/libgcc.a(_prologue.o)
                              /opt/local/lib/gcc/avr/4.6.2/avr51/libgcc.a(_udivdi3.o) (__prologue_saves__)
/opt/local/lib/gcc/avr/4.6.2/avr51/libgcc.a(_epilogue.o)
                              /opt/local/lib/gcc/avr/4.6.2/avr51/libgcc.a(_udivdi3.o) (__epilogue_restores__)
/opt/local/lib/gcc/avr/4.6.2/avr51/libgcc.a(_clz.o)
                              /opt/local/lib/gcc/avr/4.6.2/avr51/libgcc.a(_udivdi3.o) (__clz_tab)
/opt/local/lib/gcc/avr/4.6.2/../../../../avr/lib/avr51/libc.a(strchr_P.o)
                              /opt/local/lib/gcc/avr/4.6.2/../../../../avr/lib/avr51/libprintf_min.a(vfprintf_min.o) (strchr_P)
/opt/local/lib/gcc/avr/4.6.2/../../../../avr/lib/avr51/libc.a(memcpy.o)
                              ../../../src/radio/rf231_soc/source/basic_rf.o (memcpy)
/opt/local/lib/gcc/avr/4.6.2/../../../../avr/lib/avr51/libc.a(fdevopen.o)
                              ../../../src/platform/MARS/source/ulib.o (fdevopen)
/opt/local/lib/gcc/avr/4.6.2/../../../../avr/lib/avr51/libc.a(fputc.o)
                              ../../../src/platform/MARS/source/ulib.o (fputc)
/opt/local/lib/gcc/avr/4.6.2/../../../../avr/lib/avr51/libc.a(iob.o)
                              ../../../src/platform/MARS/source/ulib.o (__iob)
/opt/local/lib/gcc/avr/4.6.2/../../../../avr/lib/avr51/libc.a(printf.o)
                              main.o (printf)
/opt/local/lib/gcc/avr/4.6.2/../../../../avr/lib/avr51/libc.a(puts.o)
                              main.o (puts)
/opt/local/lib/gcc/avr/4.6.2/../../../../avr/lib/avr51/libc.a(sprintf.o)
                              ../../../src/kernel/source/nrk_error.o (sprintf)
/opt/local/lib/gcc/avr/4.6.2/../../../../avr/lib/avr51/libc.a(ultoa_invert.o)
                              /opt/local/lib/gcc/avr/4.6.2/../../../../avr/lib/avr51/libprintf_min.a(vfprintf_min.o) (__ultoa_invert)
/opt/local/lib/gcc/avr/4.6.2/../../../../avr/lib/avr51/libc.a(eerd_byte_atmega128rfa1.o)
                              ../../../src/platform/MARS/source/nrk_eeprom.o (__eerd_byte_m128rfa1)
/opt/local/lib/gcc/avr/4.6.2/../../../../avr/lib/avr51/libc.a(eewr_byte_atmega128rfa1.o)
                              ../../../src/platform/MARS/source/nrk_eeprom.o (__eewr_byte_m128rfa1)
/opt/local/lib/gcc/avr/4.6.2/../../../../avr/lib/avr51/libc.a(calloc.o)
                              /opt/local/lib/gcc/avr/4.6.2/../../../../avr/lib/avr51/libc.a(fdevopen.o) (calloc)
/opt/local/lib/gcc/avr/4.6.2/../../../../avr/lib/avr51/libc.a(malloc.o)
                              /opt/local/lib/gcc/avr/4.6.2/../../../../avr/lib/avr51/libc.a(calloc.o) (malloc)
/opt/local/lib/gcc/avr/4.6.2/../../../../avr/lib/avr51/libc.a(memset.o)
                              /opt/local/lib/gcc/avr/4.6.2/../../../../avr/lib/avr51/libc.a(calloc.o) (memset)

Allocating common symbols
Common symbol       size              file

rx_ctr              0x4               ../../../src/radio/rf231_soc/source/basic_rf.o
user_onRequest      0x2               ../../../src/drivers/platform/MARS/source/Wire.o
t                   0x1               ../../../src/kernel/source/nrk_scheduler.o
_free_node          0x2               ../../../src/kernel/source/nrk.o
app_timer0_callback
                    0x2               main.o
success             0x2               main.o
nrk_task_TCB        0x42              ../../../src/kernel/source/nrk.o
next_next_wakeup    0x2               ../../../src/kernel/source/nrk.o
ext_int1_callback   0x2               ../../../src/kernel/hal/atmega128rfa1/nrk_ext_int.o
radio_sem           0x2               ../../../src/radio/rf231_soc/source/basic_rf.o
m_Scale             0x4               main.o
ext_int0_callback   0x2               ../../../src/kernel/hal/atmega128rfa1/nrk_ext_int.o
nrk_sem_list        0x6               ../../../src/kernel/source/nrk.o
nrk_task_init_cnt   0x1               ../../../src/kernel/source/nrk.o
error_task          0x1               main.o
IsConnected         0x1               main.o
offsets             0x6               main.o
gyro_start_wait_time
                    0x8               main.o
Mag_m_scale         0x4               main.o
cnt                 0x2               main.o
mdmctrl0            0x2               ../../../src/radio/rf231_soc/source/basic_rf.o
rfSettings          0x9               ../../../src/radio/rf231_soc/source/basic_rf.o
_buff               0x6               main.o
_nrk_time_trigger   0x1               main.o
magbuf              0x6               main.o
ext_int2_callback   0x2               ../../../src/kernel/hal/atmega128rfa1/nrk_ext_int.o
TaskOne             0x23              main.o
__brkval            0x2               /opt/local/lib/gcc/avr/4.6.2/../../../../avr/lib/avr51/libc.a(malloc.o)
nrk_wakeup_signal   0x1               ../../../src/kernel/source/nrk.o
m_Address           0x2               main.o
nrk_high_ready_TCB  0x2               ../../../src/kernel/source/nrk.o
pc_int0_callback    0x2               ../../../src/kernel/hal/atmega128rfa1/nrk_ext_int.o
nrk_cur_task_prio   0x1               ../../../src/kernel/source/nrk.o
_nrk_cpu_state      0x1               ../../../src/kernel/source/nrk.o
scalefactor         0xc               main.o
_head_node          0x2               ../../../src/kernel/source/nrk.o
acbuf               0x6               main.o
nrk_system_time     0x8               ../../../src/kernel/source/nrk.o
_nrk_signal_list    0x4               main.o
curr_t              0x8               ../../../src/radio/rf231_soc/source/basic_rf.o
tx_done             0x1               ../../../src/radio/rf231_soc/source/basic_rf.o
buffer              0x6               main.o
_nrk_resource_cnt   0x1               ../../../src/kernel/source/nrk.o
rf_ready            0x1               ../../../src/radio/rf231_soc/source/basic_rf.o
target_t            0x8               ../../../src/radio/rf231_soc/source/basic_rf.o
_dev_address        0x1               main.o
nrk_cur_task_TCB    0x2               ../../../src/kernel/source/nrk.o
rxBuffer            0x20              ../../../src/drivers/platform/MARS/source/Wire.o
Stack1              0x80              main.o
txBuffer            0x20              ../../../src/drivers/platform/MARS/source/Wire.o
_nrk_driver_count   0x1               ../../../src/kernel/source/nrk_driver.o
nrk_kernel_stk_ptr  0x2               main.o
nrk_drivers         0x4               ../../../src/kernel/source/nrk_driver.o
nrk_high_ready_prio
                    0x1               ../../../src/kernel/source/nrk.o
app_timer0_prescale
                    0x1               main.o
nrk_driver_init     0x1               ../../../src/kernel/source/nrk_driver.o
tx_ctr              0x6               ../../../src/radio/rf231_soc/source/basic_rf.o
_nrk_prev_timer_val
                    0x1               main.o
__flp               0x2               /opt/local/lib/gcc/avr/4.6.2/../../../../avr/lib/avr51/libc.a(malloc.o)
error_num           0x1               main.o
_nrk_readyQ         0xf               ../../../src/kernel/source/nrk.o
gyrobuf             0x6               main.o
__iob               0x6               /opt/local/lib/gcc/avr/4.6.2/../../../../avr/lib/avr51/libc.a(iob.o)
rx_ready            0x1               ../../../src/radio/rf231_soc/source/basic_rf.o
user_onReceive      0x2               ../../../src/drivers/platform/MARS/source/Wire.o
nrk_idle_task_stk   0x80              main.o
dummy_t             0x8               ../../../src/radio/rf231_soc/source/basic_rf.o

Memory Configuration

Name             Origin             Length             Attributes
text             0x0000000000000000 0x0000000000020000 xr
data             0x0000000000800100 0x000000000000ff00 rw !x
eeprom           0x0000000000810000 0x0000000000010000 rw !x
fuse             0x0000000000820000 0x0000000000000400 rw !x
lock             0x0000000000830000 0x0000000000000400 rw !x
signature        0x0000000000840000 0x0000000000000400 rw !x
*default*        0x0000000000000000 0xffffffffffffffff

Linker script and memory map

Address of section .data set to 0x800200
LOAD /opt/local/lib/gcc/avr/4.6.2/../../../../avr/lib/avr51/crtm128rfa1.o
LOAD main.o
LOAD ../../../src/drivers/platform/MARS/source/MARS_basic_sensor.o
LOAD ../../../src/drivers/platform/MARS/source/ADXL345.o
LOAD ../../../src/drivers/platform/MARS/source/ITG3200.o
LOAD ../../../src/drivers/platform/MARS/source/HMC5883L.o
LOAD ../../../src/drivers/platform/MARS/source/twi.o
LOAD ../../../src/drivers/platform/MARS/source/Wire.o
LOAD ../../../src/radio/rf231_soc/source/basic_rf.o
LOAD ../../../src/platform/MARS/source/ulib.o
LOAD ../../../src/platform/MARS/source/hal_wait.o
LOAD ../../../src/platform/MARS/source/nrk_eeprom.o
LOAD ../../../src/kernel/source/nrk.o
LOAD ../../../src/kernel/source/nrk_stats.o
LOAD ../../../src/kernel/source/nrk_error.o
LOAD ../../../src/kernel/source/nrk_stack_check.o
LOAD ../../../src/kernel/source/nrk_events.o
LOAD ../../../src/kernel/source/nrk_task.o
LOAD ../../../src/kernel/source/nrk_time.o
LOAD ../../../src/kernel/source/nrk_idle_task.o
LOAD ../../../src/kernel/source/nrk_scheduler.o
LOAD ../../../src/kernel/source/nrk_driver.o
LOAD ../../../src/kernel/source/nrk_reserve.o
LOAD ../../../src/kernel/source/nrk_sw_wdt.o
LOAD ../../../src/kernel/hal/atmega128rfa1/nrk_timer.o
LOAD ../../../src/kernel/hal/atmega128rfa1/nrk_status.o
LOAD ../../../src/kernel/hal/atmega128rfa1/nrk_ext_int.o
LOAD ../../../src/kernel/hal/atmega128rfa1/nrk_watchdog.o
LOAD ../../../src/kernel/hal/atmega128rfa1/nrk_cpu.o
LOAD ../../../src/kernel/hal/atmega128rfa1/atmel_hw_specific.o
LOAD /opt/local/lib/gcc/avr/4.6.2/../../../../avr/lib/avr51/libprintf_min.a
LOAD /opt/local/lib/gcc/avr/4.6.2/../../../../avr/lib/avr51/libm.a
LOAD /opt/local/lib/gcc/avr/4.6.2/avr51/libgcc.a
LOAD /opt/local/lib/gcc/avr/4.6.2/../../../../avr/lib/avr51/libc.a
LOAD /opt/local/lib/gcc/avr/4.6.2/avr51/libgcc.a

.hash
 *(.hash)

.dynsym
 *(.dynsym)

.dynstr
 *(.dynstr)

.gnu.version
 *(.gnu.version)

.gnu.version_d
 *(.gnu.version_d)

.gnu.version_r
 *(.gnu.version_r)

.rel.init
 *(.rel.init)

.rela.init
 *(.rela.init)

.rel.text
 *(.rel.text)
 *(.rel.text.*)
 *(.rel.gnu.linkonce.t*)

.rela.text
 *(.rela.text)
 *(.rela.text.*)
 *(.rela.gnu.linkonce.t*)

.rel.fini
 *(.rel.fini)

.rela.fini
 *(.rela.fini)

.rel.rodata
 *(.rel.rodata)
 *(.rel.rodata.*)
 *(.rel.gnu.linkonce.r*)

.rela.rodata
 *(.rela.rodata)
 *(.rela.rodata.*)
 *(.rela.gnu.linkonce.r*)

.rel.data
 *(.rel.data)
 *(.rel.data.*)
 *(.rel.gnu.linkonce.d*)

.rela.data
 *(.rela.data)
 *(.rela.data.*)
 *(.rela.gnu.linkonce.d*)

.rel.ctors
 *(.rel.ctors)

.rela.ctors
 *(.rela.ctors)

.rel.dtors
 *(.rel.dtors)

.rela.dtors
 *(.rela.dtors)

.rel.got
 *(.rel.got)

.rela.got
 *(.rela.got)

.rel.bss
 *(.rel.bss)

.rela.bss
 *(.rela.bss)

.rel.plt
 *(.rel.plt)

.rela.plt
 *(.rela.plt)

.text           0x0000000000000000     0x7fd8
 *(.vectors)
 .vectors       0x0000000000000000      0x120 /opt/local/lib/gcc/avr/4.6.2/../../../../avr/lib/avr51/crtm128rfa1.o
                0x0000000000000000                __vectors
 *(.vectors)
 *(.progmem.gcc*)
 .progmem.gcc_sw_table
                0x0000000000000120       0x2c ../../../src/kernel/source/nrk_error.o
 .progmem.gcc_fplib
                0x000000000000014c       0x2d /opt/local/lib/gcc/avr/4.6.2/../../../../avr/lib/avr51/libm.a(atan.o)
 *(.progmem*)
 .progmem.data  0x0000000000000179       0x83 main.o
 .progmem.data  0x00000000000001fc       0x95 ../../../src/drivers/platform/MARS/source/ADXL345.o
 .progmem.data  0x0000000000000291       0x4a ../../../src/drivers/platform/MARS/source/ITG3200.o
 .progmem.data  0x00000000000002db       0x41 ../../../src/drivers/platform/MARS/source/HMC5883L.o
 .progmem.data  0x000000000000031c      0x238 ../../../src/kernel/source/nrk_error.o
 .progmem.data  0x0000000000000554        0xf ../../../src/kernel/source/nrk_stack_check.o
 .progmem.data  0x0000000000000563       0x17 /opt/local/lib/gcc/avr/4.6.2/../../../../avr/lib/avr51/libprintf_min.a(vfprintf_min.o)
                0x000000000000057a                . = ALIGN (0x2)
                0x000000000000057a                __trampolines_start = .
 *(.trampolines)
 .trampolines   0x000000000000057a        0x0 linker stubs
 *(.trampolines*)
                0x000000000000057a                __trampolines_end = .
 *(.jumptables)
 *(.jumptables*)
 *(.lowtext)
 *(.lowtext*)
                0x000000000000057a                __ctors_start = .
 *(.ctors)
                0x000000000000057a                __ctors_end = .
                0x000000000000057a                __dtors_start = .
 *(.dtors)
                0x000000000000057a                __dtors_end = .
 SORT(*)(.ctors)
 SORT(*)(.dtors)
 *(.init0)
 .init0         0x000000000000057a        0x0 /opt/local/lib/gcc/avr/4.6.2/../../../../avr/lib/avr51/crtm128rfa1.o
                0x000000000000057a                __init
 *(.init0)
 *(.init1)
 *(.init1)
 *(.init2)
 .init2         0x000000000000057a        0xc /opt/local/lib/gcc/avr/4.6.2/../../../../avr/lib/avr51/crtm128rfa1.o
 *(.init2)
 *(.init3)
 *(.init3)
 *(.init4)
 .init4         0x0000000000000586       0x1a /opt/local/lib/gcc/avr/4.6.2/avr51/libgcc.a(_copy_data.o)
                0x0000000000000586                __do_copy_data
 .init4         0x00000000000005a0       0x10 /opt/local/lib/gcc/avr/4.6.2/avr51/libgcc.a(_clear_bss.o)
                0x00000000000005a0                __do_clear_bss
 *(.init4)
 *(.init5)
 *(.init5)
 *(.init6)
 *(.init6)
 *(.init7)
 *(.init7)
 *(.init8)
 *(.init8)
 *(.init9)
 .init9         0x00000000000005b0        0x8 /opt/local/lib/gcc/avr/4.6.2/../../../../avr/lib/avr51/crtm128rfa1.o
 *(.init9)
 *(.text)
 .text          0x00000000000005b8        0x4 /opt/local/lib/gcc/avr/4.6.2/../../../../avr/lib/avr51/crtm128rfa1.o
                0x00000000000005b8                __vector_65
                0x00000000000005b8                __vector_22
                0x00000000000005b8                __vector_28
                0x00000000000005b8                __vector_67
                0x00000000000005b8                __vector_71
                0x00000000000005b8                __vector_34
                0x00000000000005b8                __vector_24
                0x00000000000005b8                __vector_12
                0x00000000000005b8                __vector_55
                0x00000000000005b8                __vector_69
                0x00000000000005b8                __vector_46
                0x00000000000005b8                __bad_interrupt
                0x00000000000005b8                __vector_6
                0x00000000000005b8                __vector_31
                0x00000000000005b8                __vector_35
                0x00000000000005b8                __vector_3
                0x00000000000005b8                __vector_23
                0x00000000000005b8                __vector_68
                0x00000000000005b8                __vector_30
                0x00000000000005b8                __vector_45
                0x00000000000005b8                __vector_25
                0x00000000000005b8                __vector_11
                0x00000000000005b8                __vector_54
                0x00000000000005b8                __vector_17
                0x00000000000005b8                __vector_19
                0x00000000000005b8                __vector_56
                0x00000000000005b8                __vector_7
                0x00000000000005b8                __vector_49
                0x00000000000005b8                __vector_41
                0x00000000000005b8                __vector_43
                0x00000000000005b8                __vector_27
                0x00000000000005b8                __vector_5
                0x00000000000005b8                __vector_33
                0x00000000000005b8                __vector_47
                0x00000000000005b8                __vector_52
                0x00000000000005b8                __vector_37
                0x00000000000005b8                __vector_4
                0x00000000000005b8                __vector_44
                0x00000000000005b8                __vector_51
                0x00000000000005b8                __vector_2
                0x00000000000005b8                __vector_21
                0x00000000000005b8                __vector_66
                0x00000000000005b8                __vector_36
                0x00000000000005b8                __vector_70
                0x00000000000005b8                __vector_29
                0x00000000000005b8                __vector_40
                0x00000000000005b8                __vector_8
                0x00000000000005b8                __vector_26
                0x00000000000005b8                __vector_48
                0x00000000000005b8                __vector_14
                0x00000000000005b8                __vector_53
                0x00000000000005b8                __vector_10
                0x00000000000005b8                __vector_50
                0x00000000000005b8                __vector_16
                0x00000000000005b8                __vector_18
                0x00000000000005b8                __vector_20
                0x00000000000005b8                __vector_42
                0x00000000000005b8                __vector_38
 .text          0x00000000000005bc      0x1e0 main.o
                0x00000000000005bc                Task1
                0x000000000000072c                nrk_create_taskset
 .text          0x000000000000079c       0x48 ../../../src/drivers/platform/MARS/source/MARS_basic_sensor.o
                0x000000000000079c                MARS_sensor_val_to_uint8_buf
 .text          0x00000000000007e4      0x6c0 ../../../src/drivers/platform/MARS/source/ADXL345.o
                0x00000000000007e4                Write
                0x0000000000000816                EnableMeasurements
                0x0000000000000828                Read
                0x00000000000008ea                EnsureConnected
                0x0000000000000910                SetRange
                0x00000000000009c0                get_acc_values
                0x0000000000000abc                ReadRawAxis
                0x0000000000000b22                ReadScaledAxis
                0x0000000000000c3e                GetErrorText
                0x0000000000000c44                setTapThreshold
                0x0000000000000c52                getTapThreshold
                0x0000000000000c66                setTapDuration
                0x0000000000000c74                getTapDuration
                0x0000000000000c88                setDoubleTapLatency
                0x0000000000000c96                getDoubleTapLatency
                0x0000000000000caa                setDoubleTapWindow
                0x0000000000000cb8                getDoubleTapWindow
                0x0000000000000ccc                getInterruptSourceVoid
                0x0000000000000cde                setRegisterBit
                0x0000000000000d34                setInterrupt
                0x0000000000000d44                setInterruptMapping
                0x0000000000000d54                getRegisterBit
                0x0000000000000d78                isInterruptEnabled
                0x0000000000000d84                getInterruptMapping
                0x0000000000000d90                getInterruptSource
                0x0000000000000d9c                isTapDetectionOnX
                0x0000000000000da8                setTapDetectionOnX
                0x0000000000000db6                isTapDetectionOnY
                0x0000000000000dc2                setTapDetectionOnY
                0x0000000000000dd0                isTapDetectionOnZ
                0x0000000000000ddc                setTapDetectionOnZ
                0x0000000000000dea                triggered
                0x0000000000000dfa                acc_set_data_rate
                0x0000000000000e1a                acc_power_on
                0x0000000000000e46                set_up_ADXL345
 .text          0x0000000000000ea4      0xb9c ../../../src/drivers/platform/MARS/source/ITG3200.o
                0x0000000000000f02                get_gyro_addr
                0x0000000000000f08                get_gyro_sample_rate_div
                0x0000000000000f16                get_gyro_FS_range
                0x0000000000000f34                get_gyro_filter_BW
                0x0000000000000f44                is_gyro_INT_active_On_Low
                0x0000000000000f5a                is_gyro_INT_open_drain
                0x0000000000000f78                isLatchUntilCleared
                0x0000000000000f96                isAnyRegClrMode
                0x0000000000000fb4                isITGReadyOn
                0x0000000000000fd0                isRawDataReadyOn
                0x0000000000000fe0                isITGReady
                0x0000000000000ffc                isRawDataReady
                0x000000000000100c                readTemp
                0x0000000000001064                read_gyro_raw_xyz_three_ptr
                0x00000000000010cc                read_gyro_raw_xyz_one_ptr
                0x00000000000010de                setScaleFactor
                0x0000000000001246                setOffsets
                0x0000000000001260                gyro_zero_calibrate
                0x000000000000141a                read_gyro_raw_cal_xyz_three_ptr
                0x000000000000147e                read_gyro_raw_cal_xyz_one_ptr
                0x0000000000001490                read_gyro_xyz_three_ptr
                0x000000000000159c                read_gyro_xyz_one_ptr
                0x00000000000015ae                isLowPower
                0x00000000000015cc                isXgyroStandby
                0x00000000000015ea                isYgyroStandby
                0x0000000000001608                isZgyroStandby
                0x0000000000001626                getClockSource
                0x0000000000001636                writemem
                0x000000000000166a                reset
                0x00000000000016bc                set_gyro_sample_rate_div
                0x00000000000016c6                set_gyro_addr
                0x00000000000016da                setClockSource
                0x00000000000016f8                setZgyroStandby
                0x000000000000171e                setYgyroStandby
                0x0000000000001742                setXgyroStandby
                0x0000000000001768                setPowerMode
                0x0000000000001790                setRawDataReady
                0x00000000000017ae                setITGReady
                0x00000000000017d2                setLatchClearMode
                0x00000000000017f6                setLatchMode
                0x000000000000181c                setINTDriveType
                0x0000000000001844                set_gyro_INT_Logic_lvl
                0x000000000000186a                set_gyro_filter_BW
                0x0000000000001888                set_gyro_FS_range
                0x00000000000018ae                init_gyro_all
                0x0000000000001946                init_gyro_uint_address
                0x0000000000001968                set_up_ITG3200
                0x00000000000019d0                readmem
 .text          0x0000000000001a40      0x67e ../../../src/drivers/platform/MARS/source/HMC5883L.o
                0x0000000000001a40                mag_write
                0x0000000000001a6e                set_mag_data_rate_75_Hz_max
                0x0000000000001a7c                set_mag_measurement_mode
                0x0000000000001a8a                set_mag_scale
                0x0000000000001c4e                set_up_HMC5883L
                0x0000000000001ca4                mag_read
                0x0000000000001d5a                read_magneto_raw_axis
                0x0000000000001dc0                get_Magneto_Values_flat
                0x0000000000001f36                read_magneto_scaled_axis
                0x0000000000002052                get_Magneto_Values_scaled
 .text          0x00000000000020be      0x434 ../../../src/drivers/platform/MARS/source/twi.o
                0x00000000000020be                twi_init
                0x00000000000020e4                twi_setAddress
                0x00000000000020ec                twi_readFrom
                0x000000000000214e                twi_writeTo
                0x00000000000021ca                twi_transmit
                0x00000000000021fa                twi_attachSlaveRxEvent
                0x0000000000002204                twi_attachSlaveTxEvent
                0x000000000000220e                twi_reply
                0x000000000000221e                twi_stop
                0x0000000000002232                twi_releaseBus
                0x000000000000223e                __vector_39
 .text          0x00000000000024f2      0x1f2 ../../../src/drivers/platform/MARS/source/Wire.o
                0x000000000000255e                begin
                0x0000000000002574                begin_uint8
                0x000000000000258e                begin_int
                0x0000000000002594                requestFrom_2uint8
                0x00000000000025ae                requestFrom_2int
                0x00000000000025b4                beginTransmission_uint8
                0x00000000000025c8                beginTransmission_int
                0x00000000000025ce                endTransmission
                0x00000000000025ee                send_uint8
                0x0000000000002638                send_uint8st_uint8
                0x0000000000002684                send_char
                0x000000000000269c                send_int
                0x00000000000026a2                available
                0x00000000000026ae                receive
                0x00000000000026d0                onReceive
                0x00000000000026da                onRequest
 .text          0x00000000000026e4      0x7c4 ../../../src/radio/rf231_soc/source/basic_rf.o
                0x00000000000026f4                rf_power_down
                0x000000000000273c                rf_power_up
                0x0000000000002768                rf_tx_power
                0x000000000000277c                rf_addr_decode_enable
                0x0000000000002788                rf_addr_decode_disable
                0x0000000000002794                rf_auto_ack_enable
                0x00000000000027a0                rf_auto_ack_disable
                0x00000000000027ac                rf_addr_decode_set_my_mac
                0x00000000000027be                rf_set_rx
                0x00000000000027d8                rx_start_callback
                0x00000000000027e2                rf_init
                0x00000000000028d8                rf_rx_on
                0x00000000000028e0                rf_polling_rx_on
                0x00000000000028e8                rf_rx_off
                0x00000000000028f4                rf_tx_packet_repeat
                0x0000000000002b74                rf_tx_packet
                0x0000000000002b7e                rf_cca_check
                0x0000000000002be4                rf_rx_packet_nonblock
                0x0000000000002d02                __vector_60
                0x0000000000002d40                __vector_64
                0x0000000000002d5e                __vector_63
                0x0000000000002d82                __vector_62
                0x0000000000002da0                __vector_61
                0x0000000000002dbe                __vector_59
                0x0000000000002e1e                __vector_58
                0x0000000000002e3c                __vector_57
                0x0000000000002e5a                rf_set_cca_thresh
                0x0000000000002e6e                rf_security_last_pkt_status
                0x0000000000002e72                rf_security_set_ctr_counter
                0x0000000000002e74                rf_security_set_key
                0x0000000000002e76                rf_security_disable
                0x0000000000002e78                rf_tx_tdma_packet
                0x0000000000002e7c                rf_get_sem
                0x0000000000002e86                rf_rx_packet
                0x0000000000002e8a                rf_flush_rx_fifo
                0x0000000000002e8c                rf_busy
                0x0000000000002e90                rf_rx_check_fifop
                0x0000000000002e94                rf_rx_check_sfd
                0x0000000000002e98                rf_carrier_on
                0x0000000000002e9a                rf_carrier_off
                0x0000000000002e9c                rf_test_mode
                0x0000000000002e9e                rf_data_mode
                0x0000000000002ea0                rf_rx_set_serial
                0x0000000000002ea2                rf_tx_set_serial
                0x0000000000002ea4                rf_set_preamble_length
                0x0000000000002ea6                rf_set_cca_mode
 .text          0x0000000000002ea8      0x84c ../../../src/platform/MARS/source/ulib.o
                0x0000000000002ea8                putc1
                0x0000000000002eb6                getc1
                0x0000000000002ece                nrk_uart_rx_signal_get
                0x0000000000002ed2                nrk_uart_data_ready
                0x0000000000002ef0                getc0
                0x0000000000002f08                nrk_kprintf
                0x0000000000002f2e                PORT_INIT
                0x0000000000002f48                nrk_setup_ports
                0x0000000000002f4e                nrk_gpio_set
                0x000000000000303e                nrk_gpio_clr
                0x000000000000313a                nrk_gpio_get
                0x00000000000031a6                nrk_gpio_toggle
                0x0000000000003388                nrk_gpio_direction
                0x0000000000003594                nrk_get_button
                0x00000000000035a6                nrk_led_toggle
                0x00000000000035d6                nrk_led_clr
                0x0000000000003606                nrk_led_set
                0x0000000000003636                nrk_gpio_pullups
                0x000000000000364a                putc0
                0x0000000000003662                setup_uart0
                0x000000000000368c                setup_uart1
                0x00000000000036b6                nrk_setup_uart
 .text          0x00000000000036f4        0xe ../../../src/platform/MARS/source/hal_wait.o
                0x00000000000036f4                halWait
 .text          0x0000000000003702      0x134 ../../../src/platform/MARS/source/nrk_eeprom.o
                0x0000000000003702                nrk_eeprom_read_byte
                0x0000000000003708                nrk_eeprom_write_byte
                0x000000000000370e                read_eeprom_mac_address
                0x0000000000003772                read_eeprom_channel
                0x000000000000378a                write_eeprom_load_img_pages
                0x000000000000379a                read_eeprom_load_img_pages
                0x00000000000037b2                read_eeprom_aes_key
                0x00000000000037e0                write_eeprom_aes_key
                0x000000000000380e                read_eeprom_current_image_checksum
                0x0000000000003826                write_eeprom_current_image_checksum
 .text          0x0000000000003836      0x37a ../../../src/kernel/source/nrk.o
                0x0000000000003836                nrk_int_disable
                0x000000000000383a                nrk_int_enable
                0x000000000000383e                nrk_halt
                0x0000000000003844                nrk_init
                0x000000000000397a                nrk_start
                0x00000000000039ec                nrk_TCB_init
                0x0000000000003ba4                _nrk_timer_tick
                0x0000000000003baa                nrk_version
 .text          0x0000000000003bb0        0x0 ../../../src/kernel/source/nrk_stats.o
 .text          0x0000000000003bb0      0x352 ../../../src/kernel/source/nrk_error.o
                0x0000000000003bb0                _nrk_errno_set
                0x0000000000003bbc                nrk_errno_get
                0x0000000000003bc8                nrk_error_get
                0x0000000000003be4                nrk_error_print
                0x0000000000003d12                nrk_kernel_error_add
                0x0000000000003d20                nrk_error_add
                0x0000000000003d38                pause
                0x0000000000003d62                blink_dot
                0x0000000000003d7c                blink_dash
                0x0000000000003d9e                blink_morse_code_error
 .text          0x0000000000003f02      0x254 ../../../src/kernel/source/nrk_stack_check.o
                0x0000000000003f02                dump_stack_info
                0x00000000000040ca                nrk_stack_check
                0x0000000000004112                nrk_stack_check_pid
 .text          0x0000000000004156      0x67e ../../../src/kernel/source/nrk_events.o
                0x0000000000004156                nrk_signal_create
                0x00000000000041c8                nrk_signal_get_registered_mask
                0x00000000000041da                nrk_signal_delete
                0x00000000000042f2                nrk_signal_unregister
                0x000000000000436c                nrk_signal_register
                0x00000000000043d4                nrk_event_signal
                0x00000000000044b8                nrk_event_wait
                0x000000000000453a                nrk_sem_create
                0x0000000000004582                nrk_get_resource_index
                0x000000000000459e                nrk_sem_delete
                0x00000000000045e0                nrk_sem_post
                0x00000000000046f2                nrk_sem_pend
                0x00000000000047a4                nrk_sem_query
 .text          0x00000000000047d4      0x6be ../../../src/kernel/source/nrk_task.o
                0x00000000000047d4                nrk_get_high_ready_task_ID
                0x00000000000047e0                nrk_print_readyQ
                0x00000000000047f6                nrk_add_to_readyQ
                0x0000000000004976                nrk_rem_from_readyQ
                0x0000000000004a16                nrk_activate_task
                0x0000000000004ac0                nrk_set_next_wakeup
                0x0000000000004b2e                _nrk_wait_for_scheduler
                0x0000000000004b42                nrk_wait
                0x0000000000004bee                nrk_wait_until_nw
                0x0000000000004c3c                nrk_wait_until_ticks
                0x0000000000004c92                nrk_wait_ticks
                0x0000000000004cfe                nrk_wait_until_next_n_periods
                0x0000000000004d60                nrk_wait_until_next_period
                0x0000000000004db8                nrk_terminate_task
                0x0000000000004dda                nrk_wait_until
                0x0000000000004e86                nrk_get_pid
 .text          0x0000000000004e92      0x5b0 ../../../src/kernel/source/nrk_time.o
                0x0000000000004e92                nrk_time_get
                0x0000000000004f52                nrk_time_sub
                0x000000000000506e                nrk_time_compact_nanos
                0x00000000000050b4                nrk_time_add
                0x000000000000516a                nrk_time_set
                0x0000000000005190                _nrk_time_to_ticks
                0x00000000000052ba                _nrk_ticks_to_time
                0x000000000000532c                _nrk_time_to_ticks_long
 .text          0x0000000000005442       0x48 ../../../src/kernel/source/nrk_idle_task.o
                0x0000000000005442                nrk_idle_task
 .text          0x000000000000548a      0x4e2 ../../../src/kernel/source/nrk_scheduler.o
                0x000000000000548a                _nrk_scheduler
 .text          0x000000000000596c      0x200 ../../../src/kernel/source/nrk_driver.o
                0x000000000000596c                nrk_register_driver
                0x00000000000059a4                nrk_open
                0x0000000000005a3a                nrk_close
                0x0000000000005a78                nrk_write
                0x0000000000005ab6                nrk_read
                0x0000000000005af4                nrk_set_status
                0x0000000000005b30                nrk_get_status
 .text          0x0000000000005b6c        0x0 ../../../src/kernel/source/nrk_reserve.o
 .text          0x0000000000005b6c        0x0 ../../../src/kernel/source/nrk_sw_wdt.o
 .text          0x0000000000005b6c      0x3a2 ../../../src/kernel/hal/atmega128rfa1/nrk_timer.o
                0x0000000000005b6c                _nrk_precision_os_timer_start
                0x0000000000005b80                _nrk_precision_os_timer_reset
                0x0000000000005b8a                nrk_spin_wait_us
                0x0000000000005ba8                _nrk_precision_os_timer_stop
                0x0000000000005bae                _nrk_precision_os_timer_get
                0x0000000000005bd2                _nrk_high_speed_timer_stop
                0x0000000000005bd8                _nrk_high_speed_timer_start
                0x0000000000005be0                _nrk_high_speed_timer_reset
                0x0000000000005bf0                _nrk_high_speed_timer_get
                0x0000000000005c14                nrk_high_speed_timer_wait
                0x0000000000005c8a                _nrk_os_timer_stop
                0x0000000000005ca0                _nrk_os_timer_set
                0x0000000000005ca6                _nrk_os_timer_start
                0x0000000000005cb8                _nrk_os_timer_reset
                0x0000000000005ccc                _nrk_setup_timer
                0x0000000000005d46                _nrk_get_next_wakeup
                0x0000000000005d4e                _nrk_set_next_wakeup
                0x0000000000005d56                nrk_timer_int_stop
                0x0000000000005d62                nrk_timer_int_reset
                0x0000000000005d76                nrk_timer_int_read
                0x0000000000005d8a                nrk_timer_int_start
                0x0000000000005d9c                nrk_timer_int_configure
                0x0000000000005e16                _nrk_os_timer_get
                0x0000000000005e1c                __vector_default
                0x0000000000005e30                __vector_13
                0x0000000000005e30                __vector_15
                0x0000000000005e96                __vector_32
                0x0000000000005efa                SIG_OUTPUT_COMPARE1A
 .text          0x0000000000005f0e       0x4c ../../../src/kernel/hal/atmega128rfa1/nrk_status.o
                0x0000000000005f0e                _nrk_startup_error
 .text          0x0000000000005f5a      0x2e2 ../../../src/kernel/hal/atmega128rfa1/nrk_ext_int.o
                0x0000000000005f5a                nrk_ext_int_enable
                0x0000000000005fdc                nrk_ext_int_disable
                0x000000000000605e                nrk_ext_int_configure
                0x0000000000006174                __vector_9
                0x00000000000061d8                __vector_1
 .text          0x000000000000623c       0x50 ../../../src/kernel/hal/atmega128rfa1/nrk_watchdog.o
                0x000000000000623c                nrk_watchdog_disable
                0x000000000000625a                nrk_watchdog_enable
                0x000000000000627a                nrk_watchdog_check
                0x0000000000006288                nrk_watchdog_reset
 .text          0x000000000000628c      0x148 ../../../src/kernel/hal/atmega128rfa1/nrk_cpu.o
                0x000000000000628c                nrk_battery_save
                0x000000000000628e                nrk_sleep
                0x00000000000062a6                nrk_idle
                0x00000000000062bc                nrk_task_set_entry_function
                0x00000000000062c4                nrk_task_set_stk
                0x0000000000006300                nrk_task_stk_init
                0x000000000000639e                nrk_stack_pointer_init
                0x00000000000063bc                nrk_stack_pointer_restore
                0x00000000000063ca                nrk_target_start
 .text          0x00000000000063d4       0x56 ../../../src/kernel/hal/atmega128rfa1/atmel_hw_specific.o
                0x00000000000063d4                nrk_start_high_ready_task
 .text          0x000000000000642a        0x0 /opt/local/lib/gcc/avr/4.6.2/../../../../avr/lib/avr51/libprintf_min.a(vfprintf_min.o)
 .text          0x000000000000642a        0x0 /opt/local/lib/gcc/avr/4.6.2/../../../../avr/lib/avr51/libm.a(addsf3.o)
 .text          0x000000000000642a        0x0 /opt/local/lib/gcc/avr/4.6.2/../../../../avr/lib/avr51/libm.a(addsf3x.o)
 .text          0x000000000000642a        0x0 /opt/local/lib/gcc/avr/4.6.2/../../../../avr/lib/avr51/libm.a(atan2.o)
 .text          0x000000000000642a        0x0 /opt/local/lib/gcc/avr/4.6.2/../../../../avr/lib/avr51/libm.a(atan.o)
 .text          0x000000000000642a        0x0 /opt/local/lib/gcc/avr/4.6.2/../../../../avr/lib/avr51/libm.a(cmpsf2.o)
 .text          0x000000000000642a        0x0 /opt/local/lib/gcc/avr/4.6.2/../../../../avr/lib/avr51/libm.a(divsf3.o)
 .text          0x000000000000642a        0x0 /opt/local/lib/gcc/avr/4.6.2/../../../../avr/lib/avr51/libm.a(divsf3x.o)
 .text          0x000000000000642a        0x0 /opt/local/lib/gcc/avr/4.6.2/../../../../avr/lib/avr51/libm.a(fixsfsi.o)
 .text          0x000000000000642a        0x0 /opt/local/lib/gcc/avr/4.6.2/../../../../avr/lib/avr51/libm.a(fixunssfsi.o)
 .text          0x000000000000642a        0x0 /opt/local/lib/gcc/avr/4.6.2/../../../../avr/lib/avr51/libm.a(floatsisf.o)
 .text          0x000000000000642a        0x0 /opt/local/lib/gcc/avr/4.6.2/../../../../avr/lib/avr51/libm.a(fp_cmp.o)
 .text          0x000000000000642a        0x0 /opt/local/lib/gcc/avr/4.6.2/../../../../avr/lib/avr51/libm.a(fp_inf.o)
 .text          0x000000000000642a        0x0 /opt/local/lib/gcc/avr/4.6.2/../../../../avr/lib/avr51/libm.a(fp_nan.o)
 .text          0x000000000000642a        0x0 /opt/local/lib/gcc/avr/4.6.2/../../../../avr/lib/avr51/libm.a(fp_powser.o)
 .text          0x000000000000642a        0x0 /opt/local/lib/gcc/avr/4.6.2/../../../../avr/lib/avr51/libm.a(fp_pscA.o)
 .text          0x000000000000642a        0x0 /opt/local/lib/gcc/avr/4.6.2/../../../../avr/lib/avr51/libm.a(fp_pscB.o)
 .text          0x000000000000642a        0x0 /opt/local/lib/gcc/avr/4.6.2/../../../../avr/lib/avr51/libm.a(fp_round.o)
 .text          0x000000000000642a        0x0 /opt/local/lib/gcc/avr/4.6.2/../../../../avr/lib/avr51/libm.a(fp_split3.o)
 .text          0x000000000000642a        0x0 /opt/local/lib/gcc/avr/4.6.2/../../../../avr/lib/avr51/libm.a(fp_zero.o)
 .text          0x000000000000642a        0x0 /opt/local/lib/gcc/avr/4.6.2/../../../../avr/lib/avr51/libm.a(inverse.o)
 .text          0x000000000000642a        0x0 /opt/local/lib/gcc/avr/4.6.2/../../../../avr/lib/avr51/libm.a(mulsf3.o)
 .text          0x000000000000642a        0x0 /opt/local/lib/gcc/avr/4.6.2/../../../../avr/lib/avr51/libm.a(mulsf3x.o)
 .text          0x000000000000642a        0x0 /opt/local/lib/gcc/avr/4.6.2/../../../../avr/lib/avr51/libm.a(square.o)
 .text          0x000000000000642a        0x0 /opt/local/lib/gcc/avr/4.6.2/avr51/libgcc.a(_mulsi3.o)
 .text          0x000000000000642a        0x0 /opt/local/lib/gcc/avr/4.6.2/avr51/libgcc.a(_udivmodhi4.o)
 .text          0x000000000000642a        0x0 /opt/local/lib/gcc/avr/4.6.2/avr51/libgcc.a(_divmodhi4.o)
 .text          0x000000000000642a        0x0 /opt/local/lib/gcc/avr/4.6.2/avr51/libgcc.a(_udivmodsi4.o)
 .text          0x000000000000642a        0x0 /opt/local/lib/gcc/avr/4.6.2/avr51/libgcc.a(_exit.o)
 .text          0x000000000000642a        0x0 /opt/local/lib/gcc/avr/4.6.2/avr51/libgcc.a(_copy_data.o)
 .text          0x000000000000642a        0x0 /opt/local/lib/gcc/avr/4.6.2/avr51/libgcc.a(_clear_bss.o)
 .text          0x000000000000642a      0xc90 /opt/local/lib/gcc/avr/4.6.2/avr51/libgcc.a(_udivdi3.o)
                0x000000000000642a                __udivdi3
 .text          0x00000000000070ba        0x0 /opt/local/lib/gcc/avr/4.6.2/avr51/libgcc.a(_prologue.o)
 .text          0x00000000000070ba        0x0 /opt/local/lib/gcc/avr/4.6.2/avr51/libgcc.a(_epilogue.o)
 .text          0x00000000000070ba        0x0 /opt/local/lib/gcc/avr/4.6.2/avr51/libgcc.a(_clz.o)
 .text          0x00000000000070ba        0x0 /opt/local/lib/gcc/avr/4.6.2/../../../../avr/lib/avr51/libc.a(strchr_P.o)
 .text          0x00000000000070ba        0x0 /opt/local/lib/gcc/avr/4.6.2/../../../../avr/lib/avr51/libc.a(memcpy.o)
 .text          0x00000000000070ba        0x0 /opt/local/lib/gcc/avr/4.6.2/../../../../avr/lib/avr51/libc.a(fdevopen.o)
 .text          0x00000000000070ba        0x0 /opt/local/lib/gcc/avr/4.6.2/../../../../avr/lib/avr51/libc.a(fputc.o)
 .text          0x00000000000070ba        0x0 /opt/local/lib/gcc/avr/4.6.2/../../../../avr/lib/avr51/libc.a(iob.o)
 .text          0x00000000000070ba        0x0 /opt/local/lib/gcc/avr/4.6.2/../../../../avr/lib/avr51/libc.a(printf.o)
 .text          0x00000000000070ba        0x0 /opt/local/lib/gcc/avr/4.6.2/../../../../avr/lib/avr51/libc.a(puts.o)
 .text          0x00000000000070ba        0x0 /opt/local/lib/gcc/avr/4.6.2/../../../../avr/lib/avr51/libc.a(sprintf.o)
 .text          0x00000000000070ba        0x0 /opt/local/lib/gcc/avr/4.6.2/../../../../avr/lib/avr51/libc.a(ultoa_invert.o)
 .text          0x00000000000070ba        0x0 /opt/local/lib/gcc/avr/4.6.2/../../../../avr/lib/avr51/libc.a(eerd_byte_atmega128rfa1.o)
 .text          0x00000000000070ba        0x0 /opt/local/lib/gcc/avr/4.6.2/../../../../avr/lib/avr51/libc.a(eewr_byte_atmega128rfa1.o)
 .text          0x00000000000070ba        0x0 /opt/local/lib/gcc/avr/4.6.2/../../../../avr/lib/avr51/libc.a(calloc.o)
 .text          0x00000000000070ba        0x0 /opt/local/lib/gcc/avr/4.6.2/../../../../avr/lib/avr51/libc.a(malloc.o)
 .text          0x00000000000070ba        0x0 /opt/local/lib/gcc/avr/4.6.2/../../../../avr/lib/avr51/libc.a(memset.o)
                0x00000000000070ba                . = ALIGN (0x2)
 *(.text.*)
 .text.startup  0x00000000000070ba       0x5e main.o
                0x00000000000070ba                main
 .text.avr-libc
                0x0000000000007118      0x2ac /opt/local/lib/gcc/avr/4.6.2/../../../../avr/lib/avr51/libprintf_min.a(vfprintf_min.o)
                0x0000000000007118                vfprintf
 .text.avr-libc.fplib
                0x00000000000073c4        0xa /opt/local/lib/gcc/avr/4.6.2/../../../../avr/lib/avr51/libm.a(addsf3.o)
                0x00000000000073c4                __subsf3
                0x00000000000073c6                __addsf3
 .text.avr-libc.fplib
                0x00000000000073ce       0xc0 /opt/local/lib/gcc/avr/4.6.2/../../../../avr/lib/avr51/libm.a(addsf3x.o)
                0x00000000000073e8                __addsf3x
 .text.avr-libc.fplib
                0x000000000000748e       0x74 /opt/local/lib/gcc/avr/4.6.2/../../../../avr/lib/avr51/libm.a(atan2.o)
                0x00000000000074ac                atan2
 .text.avr-libc.fplib
                0x0000000000007502       0x50 /opt/local/lib/gcc/avr/4.6.2/../../../../avr/lib/avr51/libm.a(atan.o)
                0x0000000000007502                atan
 .text.avr-libc.fplib
                0x0000000000007552        0x8 /opt/local/lib/gcc/avr/4.6.2/../../../../avr/lib/avr51/libm.a(cmpsf2.o)
                0x0000000000007552                __lesf2
                0x0000000000007552                __nesf2
                0x0000000000007552                __eqsf2
                0x0000000000007552                __cmpsf2
                0x0000000000007552                __ltsf2
 .text.avr-libc.fplib
                0x000000000000755a        0x4 /opt/local/lib/gcc/avr/4.6.2/../../../../avr/lib/avr51/libm.a(divsf3.o)
                0x000000000000755a                __divsf3
 .text.avr-libc.fplib
                0x000000000000755e       0xcc /opt/local/lib/gcc/avr/4.6.2/../../../../avr/lib/avr51/libm.a(divsf3x.o)
                0x0000000000007574                __divsf3x
                0x0000000000007578                __divsf3_pse
 .text.avr-libc.fplib
                0x000000000000762a        0xa /opt/local/lib/gcc/avr/4.6.2/../../../../avr/lib/avr51/libm.a(fixsfsi.o)
                0x000000000000762a                __fixsfsi
 .text.avr-libc.fplib
                0x0000000000007634       0x58 /opt/local/lib/gcc/avr/4.6.2/../../../../avr/lib/avr51/libm.a(fixunssfsi.o)
                0x0000000000007634                __fixunssfsi
 .text.avr-libc.fplib
                0x000000000000768c       0x7a /opt/local/lib/gcc/avr/4.6.2/../../../../avr/lib/avr51/libm.a(floatsisf.o)
                0x000000000000768c                __floatunsisf
                0x0000000000007690                __floatsisf
 .text.avr-libc.fplib
                0x0000000000007706       0x48 /opt/local/lib/gcc/avr/4.6.2/../../../../avr/lib/avr51/libm.a(fp_cmp.o)
                0x0000000000007706                __fp_cmp
 .text.avr-libc.fplib
                0x000000000000774e        0xc /opt/local/lib/gcc/avr/4.6.2/../../../../avr/lib/avr51/libm.a(fp_inf.o)
                0x000000000000774e                __fp_inf
 .text.avr-libc.fplib
                0x000000000000775a        0x6 /opt/local/lib/gcc/avr/4.6.2/../../../../avr/lib/avr51/libm.a(fp_nan.o)
                0x000000000000775a                __fp_nan
 .text.avr-libc.fplib
                0x0000000000007760       0x4a /opt/local/lib/gcc/avr/4.6.2/../../../../avr/lib/avr51/libm.a(fp_powser.o)
                0x0000000000007760                __fp_powser
 .text.avr-libc.fplib
                0x00000000000077aa        0xe /opt/local/lib/gcc/avr/4.6.2/../../../../avr/lib/avr51/libm.a(fp_pscA.o)
                0x00000000000077aa                __fp_pscA
 .text.avr-libc.fplib
                0x00000000000077b8        0xe /opt/local/lib/gcc/avr/4.6.2/../../../../avr/lib/avr51/libm.a(fp_pscB.o)
                0x00000000000077b8                __fp_pscB
 .text.avr-libc.fplib
                0x00000000000077c6       0x22 /opt/local/lib/gcc/avr/4.6.2/../../../../avr/lib/avr51/libm.a(fp_round.o)
                0x00000000000077c6                __fp_round
 .text.avr-libc.fplib
                0x00000000000077e8       0x44 /opt/local/lib/gcc/avr/4.6.2/../../../../avr/lib/avr51/libm.a(fp_split3.o)
                0x00000000000077e8                __fp_split3
                0x00000000000077f8                __fp_splitA
 .text.avr-libc.fplib
                0x000000000000782c        0xe /opt/local/lib/gcc/avr/4.6.2/../../../../avr/lib/avr51/libm.a(fp_zero.o)
                0x000000000000782c                __fp_zero
                0x000000000000782e                __fp_szero
 .text.avr-libc.fplib
                0x000000000000783a        0xe /opt/local/lib/gcc/avr/4.6.2/../../../../avr/lib/avr51/libm.a(inverse.o)
                0x000000000000783a                inverse
 .text.avr-libc.fplib
                0x0000000000007848        0x4 /opt/local/lib/gcc/avr/4.6.2/../../../../avr/lib/avr51/libm.a(mulsf3.o)
                0x0000000000007848                __mulsf3
 .text.avr-libc.fplib
                0x000000000000784c       0xc2 /opt/local/lib/gcc/avr/4.6.2/../../../../avr/lib/avr51/libm.a(mulsf3x.o)
                0x0000000000007860                __mulsf3x
                0x0000000000007864                __mulsf3_pse
 .text.avr-libc.fplib
                0x000000000000790e        0x6 /opt/local/lib/gcc/avr/4.6.2/../../../../avr/lib/avr51/libm.a(square.o)
                0x000000000000790e                square
 .text.libgcc   0x0000000000007914       0x3e /opt/local/lib/gcc/avr/4.6.2/avr51/libgcc.a(_mulsi3.o)
                0x0000000000007914                __mulsi3
 .text.libgcc   0x0000000000007952       0x28 /opt/local/lib/gcc/avr/4.6.2/avr51/libgcc.a(_udivmodhi4.o)
                0x0000000000007952                __udivmodhi4
 .text.libgcc   0x000000000000797a       0x26 /opt/local/lib/gcc/avr/4.6.2/avr51/libgcc.a(_divmodhi4.o)
                0x000000000000797a                __divmodhi4
                0x000000000000797a                _div
 .text.libgcc   0x00000000000079a0       0x44 /opt/local/lib/gcc/avr/4.6.2/avr51/libgcc.a(_udivmodsi4.o)
                0x00000000000079a0                __udivmodsi4
 .text.libgcc   0x00000000000079e4        0x0 /opt/local/lib/gcc/avr/4.6.2/avr51/libgcc.a(_exit.o)
 .text.libgcc   0x00000000000079e4        0x0 /opt/local/lib/gcc/avr/4.6.2/avr51/libgcc.a(_copy_data.o)
 .text.libgcc   0x00000000000079e4        0x0 /opt/local/lib/gcc/avr/4.6.2/avr51/libgcc.a(_clear_bss.o)
 .text.libgcc   0x00000000000079e4       0x38 /opt/local/lib/gcc/avr/4.6.2/avr51/libgcc.a(_prologue.o)
                0x00000000000079e4                __prologue_saves__
 .text.libgcc   0x0000000000007a1c       0x36 /opt/local/lib/gcc/avr/4.6.2/avr51/libgcc.a(_epilogue.o)
                0x0000000000007a1c                __epilogue_restores__
 .text.avr-libc
                0x0000000000007a52       0x16 /opt/local/lib/gcc/avr/4.6.2/../../../../avr/lib/avr51/libc.a(strchr_P.o)
                0x0000000000007a52                strchr_P
 .text.avr-libc
                0x0000000000007a68       0x12 /opt/local/lib/gcc/avr/4.6.2/../../../../avr/lib/avr51/libc.a(memcpy.o)
                0x0000000000007a68                memcpy
 .text.avr-libc
                0x0000000000007a7a       0x94 /opt/local/lib/gcc/avr/4.6.2/../../../../avr/lib/avr51/libc.a(fdevopen.o)
                0x0000000000007a7a                fdevopen
 .text.avr-libc
                0x0000000000007b0e       0x58 /opt/local/lib/gcc/avr/4.6.2/../../../../avr/lib/avr51/libc.a(fputc.o)
                0x0000000000007b0e                fputc
 .text.avr-libc
                0x0000000000007b66       0x24 /opt/local/lib/gcc/avr/4.6.2/../../../../avr/lib/avr51/libc.a(printf.o)
                0x0000000000007b66                printf
 .text.avr-libc
                0x0000000000007b8a       0x5c /opt/local/lib/gcc/avr/4.6.2/../../../../avr/lib/avr51/libc.a(puts.o)
                0x0000000000007b8a                puts
 .text.avr-libc
                0x0000000000007be6       0x5e /opt/local/lib/gcc/avr/4.6.2/../../../../avr/lib/avr51/libc.a(sprintf.o)
                0x0000000000007be6                sprintf
 .text.avr-libc
                0x0000000000007c44       0xbc /opt/local/lib/gcc/avr/4.6.2/../../../../avr/lib/avr51/libc.a(ultoa_invert.o)
                0x0000000000007c44                __ultoa_invert
 .text.avr-libc
                0x0000000000007d00       0x10 /opt/local/lib/gcc/avr/4.6.2/../../../../avr/lib/avr51/libc.a(eerd_byte_atmega128rfa1.o)
                0x0000000000007d00                __eerd_byte_m128rfa1
 .text.avr-libc
                0x0000000000007d10       0x1c /opt/local/lib/gcc/avr/4.6.2/../../../../avr/lib/avr51/libc.a(eewr_byte_atmega128rfa1.o)
                0x0000000000007d10                __eewr_byte_m128rfa1
                0x0000000000007d12                __eewr_r18_m128rfa1
 .text.avr-libc
                0x0000000000007d2c       0x3c /opt/local/lib/gcc/avr/4.6.2/../../../../avr/lib/avr51/libc.a(calloc.o)
                0x0000000000007d2c                calloc
 .text.avr-libc
                0x0000000000007d68      0x25e /opt/local/lib/gcc/avr/4.6.2/../../../../avr/lib/avr51/libc.a(malloc.o)
                0x0000000000007d68                malloc
                0x0000000000007e94                free
 .text.avr-libc
                0x0000000000007fc6        0xe /opt/local/lib/gcc/avr/4.6.2/../../../../avr/lib/avr51/libc.a(memset.o)
                0x0000000000007fc6                memset
                0x0000000000007fd4                . = ALIGN (0x2)
 *(.fini9)
 .fini9         0x0000000000007fd4        0x0 /opt/local/lib/gcc/avr/4.6.2/avr51/libgcc.a(_exit.o)
                0x0000000000007fd4                exit
                0x0000000000007fd4                _exit
 *(.fini9)
 *(.fini8)
 *(.fini8)
 *(.fini7)
 *(.fini7)
 *(.fini6)
 *(.fini6)
 *(.fini5)
 *(.fini5)
 *(.fini4)
 *(.fini4)
 *(.fini3)
 *(.fini3)
 *(.fini2)
 *(.fini2)
 *(.fini1)
 *(.fini1)
 *(.fini0)
 .fini0         0x0000000000007fd4        0x4 /opt/local/lib/gcc/avr/4.6.2/avr51/libgcc.a(_exit.o)
 *(.fini0)
                0x0000000000007fd8                _etext = .

.data           0x0000000000800200      0x20c load address 0x0000000000007fd8
                0x0000000000800200                PROVIDE (__data_start, .)
 *(.data)
 .data          0x0000000000800200        0x0 /opt/local/lib/gcc/avr/4.6.2/../../../../avr/lib/avr51/crtm128rfa1.o
 .data          0x0000000000800200       0x3e main.o
 .data          0x000000000080023e        0x0 ../../../src/drivers/platform/MARS/source/MARS_basic_sensor.o
 .data          0x000000000080023e       0x5c ../../../src/drivers/platform/MARS/source/ADXL345.o
 .data          0x000000000080029a        0x0 ../../../src/drivers/platform/MARS/source/ITG3200.o
 .data          0x000000000080029a        0x0 ../../../src/drivers/platform/MARS/source/HMC5883L.o
 .data          0x000000000080029a        0x0 ../../../src/drivers/platform/MARS/source/twi.o
 .data          0x000000000080029a        0x0 ../../../src/drivers/platform/MARS/source/Wire.o
 .data          0x000000000080029a        0x0 ../../../src/radio/rf231_soc/source/basic_rf.o
 .data          0x000000000080029a       0x1a ../../../src/platform/MARS/source/ulib.o
                0x000000000080029a                NRK_ADC_INPUT_7
                0x000000000080029b                NRK_ADC_INPUT_6
                0x000000000080029c                NRK_ADC_INPUT_5
                0x000000000080029d                NRK_ADC_INPUT_4
                0x000000000080029e                NRK_ADC_INPUT_3
                0x000000000080029f                NRK_ADC_INPUT_2
                0x00000000008002a0                NRK_ADC_INPUT_1
                0x00000000008002a1                NRK_ADC_INPUT_0
                0x00000000008002a2                NRK_GPIO34
                0x00000000008002a3                NRK_UART0_TXD
                0x00000000008002a4                NRK_UART0_RXD
                0x00000000008002a5                NRK_LED_3
                0x00000000008002a6                NRK_LED_2
                0x00000000008002a7                NRK_LED_1
                0x00000000008002a8                NRK_LED_0
                0x00000000008002a9                NRK_UART1_TXD
                0x00000000008002aa                NRK_UART1_RXD
                0x00000000008002ab                NRK_BUTTON
                0x00000000008002ac                NRK_MMC_9
                0x00000000008002ad                NRK_MMC_10
                0x00000000008002ae                NRK_MMC_11
                0x00000000008002af                NRK_GPIO26
                0x00000000008002b0                NRK_MISO
                0x00000000008002b1                NRK_MOSI
                0x00000000008002b2                NRK_SCK
                0x00000000008002b3                NRK_SPI_SS
 .data          0x00000000008002b4        0x0 ../../../src/platform/MARS/source/hal_wait.o
 .data          0x00000000008002b4        0x0 ../../../src/platform/MARS/source/nrk_eeprom.o
 .data          0x00000000008002b4        0x0 ../../../src/kernel/source/nrk.o
 .data          0x00000000008002b4        0x0 ../../../src/kernel/source/nrk_stats.o
 .data          0x00000000008002b4        0x3 ../../../src/kernel/source/nrk_error.o
 .data          0x00000000008002b7       0x4e ../../../src/kernel/source/nrk_stack_check.o
 .data          0x0000000000800305        0x0 ../../../src/kernel/source/nrk_events.o
 .data          0x0000000000800305        0x0 ../../../src/kernel/source/nrk_task.o
 .data          0x0000000000800305        0x0 ../../../src/kernel/source/nrk_time.o
 .data          0x0000000000800305        0x0 ../../../src/kernel/source/nrk_idle_task.o
 .data          0x0000000000800305        0x0 ../../../src/kernel/source/nrk_scheduler.o
 .data          0x0000000000800305        0x0 ../../../src/kernel/source/nrk_driver.o
 .data          0x0000000000800305        0x0 ../../../src/kernel/source/nrk_reserve.o
 .data          0x0000000000800305        0x0 ../../../src/kernel/source/nrk_sw_wdt.o
 .data          0x0000000000800305        0x0 ../../../src/kernel/hal/atmega128rfa1/nrk_timer.o
 .data          0x0000000000800305        0x0 ../../../src/kernel/hal/atmega128rfa1/nrk_status.o
 .data          0x0000000000800305        0x0 ../../../src/kernel/hal/atmega128rfa1/nrk_ext_int.o
 .data          0x0000000000800305        0x0 ../../../src/kernel/hal/atmega128rfa1/nrk_watchdog.o
 .data          0x0000000000800305        0x0 ../../../src/kernel/hal/atmega128rfa1/nrk_cpu.o
 .data          0x0000000000800305        0x0 ../../../src/kernel/hal/atmega128rfa1/atmel_hw_specific.o
 .data          0x0000000000800305        0x0 /opt/local/lib/gcc/avr/4.6.2/../../../../avr/lib/avr51/libprintf_min.a(vfprintf_min.o)
 .data          0x0000000000800305        0x0 /opt/local/lib/gcc/avr/4.6.2/../../../../avr/lib/avr51/libm.a(addsf3.o)
 .data          0x0000000000800305        0x0 /opt/local/lib/gcc/avr/4.6.2/../../../../avr/lib/avr51/libm.a(addsf3x.o)
 .data          0x0000000000800305        0x0 /opt/local/lib/gcc/avr/4.6.2/../../../../avr/lib/avr51/libm.a(atan2.o)
 .data          0x0000000000800305        0x0 /opt/local/lib/gcc/avr/4.6.2/../../../../avr/lib/avr51/libm.a(atan.o)
 .data          0x0000000000800305        0x0 /opt/local/lib/gcc/avr/4.6.2/../../../../avr/lib/avr51/libm.a(cmpsf2.o)
 .data          0x0000000000800305        0x0 /opt/local/lib/gcc/avr/4.6.2/../../../../avr/lib/avr51/libm.a(divsf3.o)
 .data          0x0000000000800305        0x0 /opt/local/lib/gcc/avr/4.6.2/../../../../avr/lib/avr51/libm.a(divsf3x.o)
 .data          0x0000000000800305        0x0 /opt/local/lib/gcc/avr/4.6.2/../../../../avr/lib/avr51/libm.a(fixsfsi.o)
 .data          0x0000000000800305        0x0 /opt/local/lib/gcc/avr/4.6.2/../../../../avr/lib/avr51/libm.a(fixunssfsi.o)
 .data          0x0000000000800305        0x0 /opt/local/lib/gcc/avr/4.6.2/../../../../avr/lib/avr51/libm.a(floatsisf.o)
 .data          0x0000000000800305        0x0 /opt/local/lib/gcc/avr/4.6.2/../../../../avr/lib/avr51/libm.a(fp_cmp.o)
 .data          0x0000000000800305        0x0 /opt/local/lib/gcc/avr/4.6.2/../../../../avr/lib/avr51/libm.a(fp_inf.o)
 .data          0x0000000000800305        0x0 /opt/local/lib/gcc/avr/4.6.2/../../../../avr/lib/avr51/libm.a(fp_nan.o)
 .data          0x0000000000800305        0x0 /opt/local/lib/gcc/avr/4.6.2/../../../../avr/lib/avr51/libm.a(fp_powser.o)
 .data          0x0000000000800305        0x0 /opt/local/lib/gcc/avr/4.6.2/../../../../avr/lib/avr51/libm.a(fp_pscA.o)
 .data          0x0000000000800305        0x0 /opt/local/lib/gcc/avr/4.6.2/../../../../avr/lib/avr51/libm.a(fp_pscB.o)
 .data          0x0000000000800305        0x0 /opt/local/lib/gcc/avr/4.6.2/../../../../avr/lib/avr51/libm.a(fp_round.o)
 .data          0x0000000000800305        0x0 /opt/local/lib/gcc/avr/4.6.2/../../../../avr/lib/avr51/libm.a(fp_split3.o)
 .data          0x0000000000800305        0x0 /opt/local/lib/gcc/avr/4.6.2/../../../../avr/lib/avr51/libm.a(fp_zero.o)
 .data          0x0000000000800305        0x0 /opt/local/lib/gcc/avr/4.6.2/../../../../avr/lib/avr51/libm.a(inverse.o)
 .data          0x0000000000800305        0x0 /opt/local/lib/gcc/avr/4.6.2/../../../../avr/lib/avr51/libm.a(mulsf3.o)
 .data          0x0000000000800305        0x0 /opt/local/lib/gcc/avr/4.6.2/../../../../avr/lib/avr51/libm.a(mulsf3x.o)
 .data          0x0000000000800305        0x0 /opt/local/lib/gcc/avr/4.6.2/../../../../avr/lib/avr51/libm.a(square.o)
 .data          0x0000000000800305        0x0 /opt/local/lib/gcc/avr/4.6.2/avr51/libgcc.a(_mulsi3.o)
 .data          0x0000000000800305        0x0 /opt/local/lib/gcc/avr/4.6.2/avr51/libgcc.a(_udivmodhi4.o)
 .data          0x0000000000800305        0x0 /opt/local/lib/gcc/avr/4.6.2/avr51/libgcc.a(_divmodhi4.o)
 .data          0x0000000000800305        0x0 /opt/local/lib/gcc/avr/4.6.2/avr51/libgcc.a(_udivmodsi4.o)
 .data          0x0000000000800305        0x0 /opt/local/lib/gcc/avr/4.6.2/avr51/libgcc.a(_exit.o)
 .data          0x0000000000800305        0x0 /opt/local/lib/gcc/avr/4.6.2/avr51/libgcc.a(_copy_data.o)
 .data          0x0000000000800305        0x0 /opt/local/lib/gcc/avr/4.6.2/avr51/libgcc.a(_clear_bss.o)
 .data          0x0000000000800305        0x0 /opt/local/lib/gcc/avr/4.6.2/avr51/libgcc.a(_udivdi3.o)
 .data          0x0000000000800305        0x0 /opt/local/lib/gcc/avr/4.6.2/avr51/libgcc.a(_prologue.o)
 .data          0x0000000000800305        0x0 /opt/local/lib/gcc/avr/4.6.2/avr51/libgcc.a(_epilogue.o)
 .data          0x0000000000800305      0x100 /opt/local/lib/gcc/avr/4.6.2/avr51/libgcc.a(_clz.o)
                0x0000000000800305                __clz_tab
 .data          0x0000000000800405        0x0 /opt/local/lib/gcc/avr/4.6.2/../../../../avr/lib/avr51/libc.a(strchr_P.o)
 .data          0x0000000000800405        0x0 /opt/local/lib/gcc/avr/4.6.2/../../../../avr/lib/avr51/libc.a(memcpy.o)
 .data          0x0000000000800405        0x0 /opt/local/lib/gcc/avr/4.6.2/../../../../avr/lib/avr51/libc.a(fdevopen.o)
 .data          0x0000000000800405        0x0 /opt/local/lib/gcc/avr/4.6.2/../../../../avr/lib/avr51/libc.a(fputc.o)
 .data          0x0000000000800405        0x0 /opt/local/lib/gcc/avr/4.6.2/../../../../avr/lib/avr51/libc.a(iob.o)
 .data          0x0000000000800405        0x0 /opt/local/lib/gcc/avr/4.6.2/../../../../avr/lib/avr51/libc.a(printf.o)
 .data          0x0000000000800405        0x0 /opt/local/lib/gcc/avr/4.6.2/../../../../avr/lib/avr51/libc.a(puts.o)
 .data          0x0000000000800405        0x0 /opt/local/lib/gcc/avr/4.6.2/../../../../avr/lib/avr51/libc.a(sprintf.o)
 .data          0x0000000000800405        0x0 /opt/local/lib/gcc/avr/4.6.2/../../../../avr/lib/avr51/libc.a(ultoa_invert.o)
 .data          0x0000000000800405        0x0 /opt/local/lib/gcc/avr/4.6.2/../../../../avr/lib/avr51/libc.a(eerd_byte_atmega128rfa1.o)
 .data          0x0000000000800405        0x0 /opt/local/lib/gcc/avr/4.6.2/../../../../avr/lib/avr51/libc.a(eewr_byte_atmega128rfa1.o)
 .data          0x0000000000800405        0x0 /opt/local/lib/gcc/avr/4.6.2/../../../../avr/lib/avr51/libc.a(calloc.o)
 .data          0x0000000000800405        0x6 /opt/local/lib/gcc/avr/4.6.2/../../../../avr/lib/avr51/libc.a(malloc.o)
                0x0000000000800405                __malloc_heap_end
                0x0000000000800407                __malloc_heap_start
                0x0000000000800409                __malloc_margin
 .data          0x000000000080040b        0x0 /opt/local/lib/gcc/avr/4.6.2/../../../../avr/lib/avr51/libc.a(memset.o)
 *(.data*)
 *(.rodata)
 *(.rodata*)
 *(.gnu.linkonce.d*)
                0x000000000080040c                . = ALIGN (0x2)
 *fill*         0x000000000080040b        0x1 00
                0x000000000080040c                _edata = .
                0x000000000080040c                PROVIDE (__data_end, .)

.bss            0x000000000080040c      0x2ea
                0x000000000080040c                PROVIDE (__bss_start, .)
 *(.bss)
 .bss           0x000000000080040c        0x0 /opt/local/lib/gcc/avr/4.6.2/../../../../avr/lib/avr51/crtm128rfa1.o
 .bss           0x000000000080040c        0x0 main.o
 .bss           0x000000000080040c        0x0 ../../../src/drivers/platform/MARS/source/MARS_basic_sensor.o
 .bss           0x000000000080040c        0x0 ../../../src/drivers/platform/MARS/source/ADXL345.o
 .bss           0x000000000080040c        0x0 ../../../src/drivers/platform/MARS/source/ITG3200.o
 .bss           0x000000000080040c        0x0 ../../../src/drivers/platform/MARS/source/HMC5883L.o
 .bss           0x000000000080040c       0x6c ../../../src/drivers/platform/MARS/source/twi.o
 .bss           0x0000000000800478        0x6 ../../../src/drivers/platform/MARS/source/Wire.o
                0x0000000000800478                transmitting
                0x0000000000800479                txBufferLength
                0x000000000080047a                txBufferIndex
                0x000000000080047b                txAddress
                0x000000000080047c                rxBufferLength
                0x000000000080047d                rxBufferIndex
 .bss           0x000000000080047e        0x2 ../../../src/radio/rf231_soc/source/basic_rf.o
                0x000000000080047e                rx_start_func
 .bss           0x0000000000800480        0x0 ../../../src/platform/MARS/source/ulib.o
 .bss           0x0000000000800480        0x0 ../../../src/platform/MARS/source/hal_wait.o
 .bss           0x0000000000800480        0x0 ../../../src/platform/MARS/source/nrk_eeprom.o
 .bss           0x0000000000800480        0x0 ../../../src/kernel/source/nrk.o
 .bss           0x0000000000800480        0x0 ../../../src/kernel/source/nrk_stats.o
 .bss           0x0000000000800480        0x0 ../../../src/kernel/source/nrk_error.o
 .bss           0x0000000000800480        0x0 ../../../src/kernel/source/nrk_stack_check.o
 .bss           0x0000000000800480        0x0 ../../../src/kernel/source/nrk_events.o
 .bss           0x0000000000800480        0x0 ../../../src/kernel/source/nrk_task.o
 .bss           0x0000000000800480        0x0 ../../../src/kernel/source/nrk_time.o
 .bss           0x0000000000800480        0x0 ../../../src/kernel/source/nrk_idle_task.o
 .bss           0x0000000000800480        0x0 ../../../src/kernel/source/nrk_scheduler.o
 .bss           0x0000000000800480        0x0 ../../../src/kernel/source/nrk_driver.o
 .bss           0x0000000000800480        0x0 ../../../src/kernel/source/nrk_reserve.o
 .bss           0x0000000000800480        0x0 ../../../src/kernel/source/nrk_sw_wdt.o
 .bss           0x0000000000800480        0x0 ../../../src/kernel/hal/atmega128rfa1/nrk_timer.o
 .bss           0x0000000000800480        0x0 ../../../src/kernel/hal/atmega128rfa1/nrk_status.o
 .bss           0x0000000000800480        0x0 ../../../src/kernel/hal/atmega128rfa1/nrk_ext_int.o
 .bss           0x0000000000800480        0x0 ../../../src/kernel/hal/atmega128rfa1/nrk_watchdog.o
 .bss           0x0000000000800480        0x0 ../../../src/kernel/hal/atmega128rfa1/nrk_cpu.o
 .bss           0x0000000000800480        0x0 ../../../src/kernel/hal/atmega128rfa1/atmel_hw_specific.o
 .bss           0x0000000000800480        0x0 /opt/local/lib/gcc/avr/4.6.2/../../../../avr/lib/avr51/libprintf_min.a(vfprintf_min.o)
 .bss           0x0000000000800480        0x0 /opt/local/lib/gcc/avr/4.6.2/../../../../avr/lib/avr51/libm.a(addsf3.o)
 .bss           0x0000000000800480        0x0 /opt/local/lib/gcc/avr/4.6.2/../../../../avr/lib/avr51/libm.a(addsf3x.o)
 .bss           0x0000000000800480        0x0 /opt/local/lib/gcc/avr/4.6.2/../../../../avr/lib/avr51/libm.a(atan2.o)
 .bss           0x0000000000800480        0x0 /opt/local/lib/gcc/avr/4.6.2/../../../../avr/lib/avr51/libm.a(atan.o)
 .bss           0x0000000000800480        0x0 /opt/local/lib/gcc/avr/4.6.2/../../../../avr/lib/avr51/libm.a(cmpsf2.o)
 .bss           0x0000000000800480        0x0 /opt/local/lib/gcc/avr/4.6.2/../../../../avr/lib/avr51/libm.a(divsf3.o)
 .bss           0x0000000000800480        0x0 /opt/local/lib/gcc/avr/4.6.2/../../../../avr/lib/avr51/libm.a(divsf3x.o)
 .bss           0x0000000000800480        0x0 /opt/local/lib/gcc/avr/4.6.2/../../../../avr/lib/avr51/libm.a(fixsfsi.o)
 .bss           0x0000000000800480        0x0 /opt/local/lib/gcc/avr/4.6.2/../../../../avr/lib/avr51/libm.a(fixunssfsi.o)
 .bss           0x0000000000800480        0x0 /opt/local/lib/gcc/avr/4.6.2/../../../../avr/lib/avr51/libm.a(floatsisf.o)
 .bss           0x0000000000800480        0x0 /opt/local/lib/gcc/avr/4.6.2/../../../../avr/lib/avr51/libm.a(fp_cmp.o)
 .bss           0x0000000000800480        0x0 /opt/local/lib/gcc/avr/4.6.2/../../../../avr/lib/avr51/libm.a(fp_inf.o)
 .bss           0x0000000000800480        0x0 /opt/local/lib/gcc/avr/4.6.2/../../../../avr/lib/avr51/libm.a(fp_nan.o)
 .bss           0x0000000000800480        0x0 /opt/local/lib/gcc/avr/4.6.2/../../../../avr/lib/avr51/libm.a(fp_powser.o)
 .bss           0x0000000000800480        0x0 /opt/local/lib/gcc/avr/4.6.2/../../../../avr/lib/avr51/libm.a(fp_pscA.o)
 .bss           0x0000000000800480        0x0 /opt/local/lib/gcc/avr/4.6.2/../../../../avr/lib/avr51/libm.a(fp_pscB.o)
 .bss           0x0000000000800480        0x0 /opt/local/lib/gcc/avr/4.6.2/../../../../avr/lib/avr51/libm.a(fp_round.o)
 .bss           0x0000000000800480        0x0 /opt/local/lib/gcc/avr/4.6.2/../../../../avr/lib/avr51/libm.a(fp_split3.o)
 .bss           0x0000000000800480        0x0 /opt/local/lib/gcc/avr/4.6.2/../../../../avr/lib/avr51/libm.a(fp_zero.o)
 .bss           0x0000000000800480        0x0 /opt/local/lib/gcc/avr/4.6.2/../../../../avr/lib/avr51/libm.a(inverse.o)
 .bss           0x0000000000800480        0x0 /opt/local/lib/gcc/avr/4.6.2/../../../../avr/lib/avr51/libm.a(mulsf3.o)
 .bss           0x0000000000800480        0x0 /opt/local/lib/gcc/avr/4.6.2/../../../../avr/lib/avr51/libm.a(mulsf3x.o)
 .bss           0x0000000000800480        0x0 /opt/local/lib/gcc/avr/4.6.2/../../../../avr/lib/avr51/libm.a(square.o)
 .bss           0x0000000000800480        0x0 /opt/local/lib/gcc/avr/4.6.2/avr51/libgcc.a(_mulsi3.o)
 .bss           0x0000000000800480        0x0 /opt/local/lib/gcc/avr/4.6.2/avr51/libgcc.a(_udivmodhi4.o)
 .bss           0x0000000000800480        0x0 /opt/local/lib/gcc/avr/4.6.2/avr51/libgcc.a(_divmodhi4.o)
 .bss           0x0000000000800480        0x0 /opt/local/lib/gcc/avr/4.6.2/avr51/libgcc.a(_udivmodsi4.o)
 .bss           0x0000000000800480        0x0 /opt/local/lib/gcc/avr/4.6.2/avr51/libgcc.a(_exit.o)
 .bss           0x0000000000800480        0x0 /opt/local/lib/gcc/avr/4.6.2/avr51/libgcc.a(_copy_data.o)
 .bss           0x0000000000800480        0x0 /opt/local/lib/gcc/avr/4.6.2/avr51/libgcc.a(_clear_bss.o)
 .bss           0x0000000000800480        0x0 /opt/local/lib/gcc/avr/4.6.2/avr51/libgcc.a(_udivdi3.o)
 .bss           0x0000000000800480        0x0 /opt/local/lib/gcc/avr/4.6.2/avr51/libgcc.a(_prologue.o)
 .bss           0x0000000000800480        0x0 /opt/local/lib/gcc/avr/4.6.2/avr51/libgcc.a(_epilogue.o)
 .bss           0x0000000000800480        0x0 /opt/local/lib/gcc/avr/4.6.2/avr51/libgcc.a(_clz.o)
 .bss           0x0000000000800480        0x0 /opt/local/lib/gcc/avr/4.6.2/../../../../avr/lib/avr51/libc.a(strchr_P.o)
 .bss           0x0000000000800480        0x0 /opt/local/lib/gcc/avr/4.6.2/../../../../avr/lib/avr51/libc.a(memcpy.o)
 .bss           0x0000000000800480        0x0 /opt/local/lib/gcc/avr/4.6.2/../../../../avr/lib/avr51/libc.a(fdevopen.o)
 .bss           0x0000000000800480        0x0 /opt/local/lib/gcc/avr/4.6.2/../../../../avr/lib/avr51/libc.a(fputc.o)
 .bss           0x0000000000800480        0x0 /opt/local/lib/gcc/avr/4.6.2/../../../../avr/lib/avr51/libc.a(iob.o)
 .bss           0x0000000000800480        0x0 /opt/local/lib/gcc/avr/4.6.2/../../../../avr/lib/avr51/libc.a(printf.o)
 .bss           0x0000000000800480        0x0 /opt/local/lib/gcc/avr/4.6.2/../../../../avr/lib/avr51/libc.a(puts.o)
 .bss           0x0000000000800480        0x0 /opt/local/lib/gcc/avr/4.6.2/../../../../avr/lib/avr51/libc.a(sprintf.o)
 .bss           0x0000000000800480        0x0 /opt/local/lib/gcc/avr/4.6.2/../../../../avr/lib/avr51/libc.a(ultoa_invert.o)
 .bss           0x0000000000800480        0x0 /opt/local/lib/gcc/avr/4.6.2/../../../../avr/lib/avr51/libc.a(eerd_byte_atmega128rfa1.o)
 .bss           0x0000000000800480        0x0 /opt/local/lib/gcc/avr/4.6.2/../../../../avr/lib/avr51/libc.a(eewr_byte_atmega128rfa1.o)
 .bss           0x0000000000800480        0x0 /opt/local/lib/gcc/avr/4.6.2/../../../../avr/lib/avr51/libc.a(calloc.o)
 .bss           0x0000000000800480        0x0 /opt/local/lib/gcc/avr/4.6.2/../../../../avr/lib/avr51/libc.a(malloc.o)
 .bss           0x0000000000800480        0x0 /opt/local/lib/gcc/avr/4.6.2/../../../../avr/lib/avr51/libc.a(memset.o)
 *(.bss*)
 *(COMMON)
 COMMON         0x0000000000800480      0x178 main.o
                0x0000000000800480                app_timer0_callback
                0x0000000000800482                success
                0x0000000000800484                m_Scale
                0x0000000000800488                error_task
                0x0000000000800489                IsConnected
                0x000000000080048a                offsets
                0x0000000000800490                gyro_start_wait_time
                0x0000000000800498                Mag_m_scale
                0x000000000080049c                cnt
                0x000000000080049e                _buff
                0x00000000008004a4                _nrk_time_trigger
                0x00000000008004a5                magbuf
                0x00000000008004ab                TaskOne
                0x00000000008004ce                m_Address
                0x00000000008004d0                scalefactor
                0x00000000008004dc                acbuf
                0x00000000008004e2                _nrk_signal_list
                0x00000000008004e6                buffer
                0x00000000008004ec                _dev_address
                0x00000000008004ed                Stack1
                0x000000000080056d                nrk_kernel_stk_ptr
                0x000000000080056f                app_timer0_prescale
                0x0000000000800570                _nrk_prev_timer_val
                0x0000000000800571                error_num
                0x0000000000800572                gyrobuf
                0x0000000000800578                nrk_idle_task_stk
 COMMON         0x00000000008005f8       0x44 ../../../src/drivers/platform/MARS/source/Wire.o
                0x00000000008005f8                user_onRequest
                0x00000000008005fa                rxBuffer
                0x000000000080061a                txBuffer
                0x000000000080063a                user_onReceive
 COMMON         0x000000000080063c       0x32 ../../../src/radio/rf231_soc/source/basic_rf.o
                0x000000000080063c                rx_ctr
                0x0000000000800640                radio_sem
                0x0000000000800642                mdmctrl0
                0x0000000000800644                rfSettings
                0x000000000080064d                curr_t
                0x0000000000800655                tx_done
                0x0000000000800656                rf_ready
                0x0000000000800657                target_t
                0x000000000080065f                tx_ctr
                0x0000000000800665                rx_ready
                0x0000000000800666                dummy_t
 COMMON         0x000000000080066e       0x6f ../../../src/kernel/source/nrk.o
                0x000000000080066e                _free_node
                0x0000000000800670                nrk_task_TCB
                0x00000000008006b2                next_next_wakeup
                0x00000000008006b4                nrk_sem_list
                0x00000000008006ba                nrk_task_init_cnt
                0x00000000008006bb                nrk_wakeup_signal
                0x00000000008006bc                nrk_high_ready_TCB
                0x00000000008006be                nrk_cur_task_prio
                0x00000000008006bf                _nrk_cpu_state
                0x00000000008006c0                _head_node
                0x00000000008006c2                nrk_system_time
                0x00000000008006ca                _nrk_resource_cnt
                0x00000000008006cb                nrk_cur_task_TCB
                0x00000000008006cd                nrk_high_ready_prio
                0x00000000008006ce                _nrk_readyQ
 COMMON         0x00000000008006dd        0x1 ../../../src/kernel/source/nrk_scheduler.o
                0x00000000008006dd                t
 COMMON         0x00000000008006de        0x6 ../../../src/kernel/source/nrk_driver.o
                0x00000000008006de                _nrk_driver_count
                0x00000000008006df                nrk_drivers
                0x00000000008006e3                nrk_driver_init
 COMMON         0x00000000008006e4        0x8 ../../../src/kernel/hal/atmega128rfa1/nrk_ext_int.o
                0x00000000008006e4                ext_int1_callback
                0x00000000008006e6                ext_int0_callback
                0x00000000008006e8                ext_int2_callback
                0x00000000008006ea                pc_int0_callback
 COMMON         0x00000000008006ec        0x6 /opt/local/lib/gcc/avr/4.6.2/../../../../avr/lib/avr51/libc.a(iob.o)
                0x00000000008006ec                __iob
 COMMON         0x00000000008006f2        0x4 /opt/local/lib/gcc/avr/4.6.2/../../../../avr/lib/avr51/libc.a(malloc.o)
                0x00000000008006f2                __brkval
                0x00000000008006f4                __flp
                0x00000000008006f6                PROVIDE (__bss_end, .)
                0x0000000000007fd8                __data_load_start = LOADADDR (.data)
                0x00000000000081e4                __data_load_end = (__data_load_start + SIZEOF (.data))

.noinit         0x00000000008006f6        0x0
                0x00000000008006f6                PROVIDE (__noinit_start, .)
 *(.noinit*)
                0x00000000008006f6                PROVIDE (__noinit_end, .)
                0x00000000008006f6                _end = .
                0x00000000008006f6                PROVIDE (__heap_start, .)

.eeprom         0x0000000000810000        0x0
 *(.eeprom*)
                0x0000000000810000                __eeprom_end = .

.fuse
 *(.fuse)
 *(.lfuse)
 *(.hfuse)
 *(.efuse)

.lock
 *(.lock*)

.signature
 *(.signature*)

.stab           0x0000000000000000    0x175d4
 *(.stab)
 .stab          0x0000000000000000      0x6cc /opt/local/lib/gcc/avr/4.6.2/../../../../avr/lib/avr51/crtm128rfa1.o
 .stab          0x00000000000006cc     0x11e8 main.o
                                       0x11f4 (size before relaxing)
 .stab          0x00000000000018b4      0x234 ../../../src/drivers/platform/MARS/source/MARS_basic_sensor.o
                                        0x420 (size before relaxing)
 .stab          0x0000000000001ae8     0x138c ../../../src/drivers/platform/MARS/source/ADXL345.o
                                       0x1ecc (size before relaxing)
 .stab          0x0000000000002e74     0x1a34 ../../../src/drivers/platform/MARS/source/ITG3200.o
                                       0x255c (size before relaxing)
 .stab          0x00000000000048a8      0x9f0 ../../../src/drivers/platform/MARS/source/HMC5883L.o
                                       0x1560 (size before relaxing)
 .stab          0x0000000000005298      0xa68 ../../../src/drivers/platform/MARS/source/twi.o
                                       0x13e0 (size before relaxing)
 .stab          0x0000000000005d00      0x9fc ../../../src/drivers/platform/MARS/source/Wire.o
                                        0xbe8 (size before relaxing)
 .stab          0x00000000000066fc     0x1a58 ../../../src/radio/rf231_soc/source/basic_rf.o
                                       0x24f0 (size before relaxing)
 .stab          0x0000000000008154     0x11e8 ../../../src/platform/MARS/source/ulib.o
                                       0x1c74 (size before relaxing)
 .stab          0x000000000000933c      0x1f8 ../../../src/platform/MARS/source/hal_wait.o
                                        0xbd0 (size before relaxing)
 .stab          0x0000000000009534      0x678 ../../../src/platform/MARS/source/nrk_eeprom.o
                                       0x10e0 (size before relaxing)
 .stab          0x0000000000009bac      0x954 ../../../src/kernel/source/nrk.o
                                       0x144c (size before relaxing)
 .stab          0x000000000000a500      0x2a0 ../../../src/kernel/source/nrk_stats.o
                                        0xdbc (size before relaxing)
 .stab          0x000000000000a7a0      0xa68 ../../../src/kernel/source/nrk_error.o
                                       0x1590 (size before relaxing)
 .stab          0x000000000000b208      0x498 ../../../src/kernel/source/nrk_stack_check.o
                                        0xfb4 (size before relaxing)
 .stab          0x000000000000b6a0      0xf30 ../../../src/kernel/source/nrk_events.o
                                       0x1a64 (size before relaxing)
 .stab          0x000000000000c5d0      0xf60 ../../../src/kernel/source/nrk_task.o
                                       0x1a94 (size before relaxing)
 .stab          0x000000000000d530      0x7ec ../../../src/kernel/source/nrk_time.o
                                       0x1320 (size before relaxing)
 .stab          0x000000000000dd1c      0x33c ../../../src/kernel/source/nrk_idle_task.o
                                        0xe70 (size before relaxing)
 .stab          0x000000000000e058      0x84c ../../../src/kernel/source/nrk_scheduler.o
                                       0x1380 (size before relaxing)
 .stab          0x000000000000e8a4      0x738 ../../../src/kernel/source/nrk_driver.o
                                       0x1290 (size before relaxing)
 .stab          0x000000000000efdc       0xe4 ../../../src/kernel/source/nrk_reserve.o
                                         0xf0 (size before relaxing)
 .stab          0x000000000000f0c0      0x210 ../../../src/kernel/source/nrk_sw_wdt.o
                                        0xd2c (size before relaxing)
 .stab          0x000000000000f2d0     0x1020 ../../../src/kernel/hal/atmega128rfa1/nrk_timer.o
                                       0x1b48 (size before relaxing)
 .stab          0x00000000000102f0      0x2f4 ../../../src/kernel/hal/atmega128rfa1/nrk_status.o
                                        0xd80 (size before relaxing)
 .stab          0x00000000000105e4      0x7bc ../../../src/kernel/hal/atmega128rfa1/nrk_ext_int.o
                                       0x1248 (size before relaxing)
 .stab          0x0000000000010da0      0x3d8 ../../../src/kernel/hal/atmega128rfa1/nrk_watchdog.o
                                        0xee8 (size before relaxing)
 .stab          0x0000000000011178      0x768 ../../../src/kernel/hal/atmega128rfa1/nrk_cpu.o
                                       0x1290 (size before relaxing)
 .stab          0x00000000000118e0      0x204 ../../../src/kernel/hal/atmega128rfa1/atmel_hw_specific.o
                                        0x210 (size before relaxing)
 .stab          0x0000000000011ae4      0x7b0 /opt/local/lib/gcc/avr/4.6.2/../../../../avr/lib/avr51/libprintf_min.a(vfprintf_min.o)
                                        0x7f8 (size before relaxing)
 .stab          0x0000000000012294       0x78 /opt/local/lib/gcc/avr/4.6.2/../../../../avr/lib/avr51/libm.a(addsf3.o)
                                         0x84 (size before relaxing)
 .stab          0x000000000001230c      0x4bc /opt/local/lib/gcc/avr/4.6.2/../../../../avr/lib/avr51/libm.a(addsf3x.o)
                                        0x4c8 (size before relaxing)
 .stab          0x00000000000127c8      0x2f4 /opt/local/lib/gcc/avr/4.6.2/../../../../avr/lib/avr51/libm.a(atan2.o)
                                        0x300 (size before relaxing)
 .stab          0x0000000000012abc      0x210 /opt/local/lib/gcc/avr/4.6.2/../../../../avr/lib/avr51/libm.a(atan.o)
                                        0x21c (size before relaxing)
 .stab          0x0000000000012ccc       0x90 /opt/local/lib/gcc/avr/4.6.2/../../../../avr/lib/avr51/libm.a(cmpsf2.o)
                                         0x9c (size before relaxing)
 .stab          0x0000000000012d5c       0x48 /opt/local/lib/gcc/avr/4.6.2/../../../../avr/lib/avr51/libm.a(divsf3.o)
                                         0x54 (size before relaxing)
 .stab          0x0000000000012da4      0x510 /opt/local/lib/gcc/avr/4.6.2/../../../../avr/lib/avr51/libm.a(divsf3x.o)
                                        0x51c (size before relaxing)
 .stab          0x00000000000132b4       0x6c /opt/local/lib/gcc/avr/4.6.2/../../../../avr/lib/avr51/libm.a(fixsfsi.o)
                                         0x78 (size before relaxing)
 .stab          0x0000000000013320      0x240 /opt/local/lib/gcc/avr/4.6.2/../../../../avr/lib/avr51/libm.a(fixunssfsi.o)
                                        0x24c (size before relaxing)
 .stab          0x0000000000013560      0x318 /opt/local/lib/gcc/avr/4.6.2/../../../../avr/lib/avr51/libm.a(floatsisf.o)
                                        0x324 (size before relaxing)
 .stab          0x0000000000013878      0x1e0 /opt/local/lib/gcc/avr/4.6.2/../../../../avr/lib/avr51/libm.a(fp_cmp.o)
                                        0x1ec (size before relaxing)
 .stab          0x0000000000013a58       0x78 /opt/local/lib/gcc/avr/4.6.2/../../../../avr/lib/avr51/libm.a(fp_inf.o)
                                         0x84 (size before relaxing)
 .stab          0x0000000000013ad0       0x54 /opt/local/lib/gcc/avr/4.6.2/../../../../avr/lib/avr51/libm.a(fp_nan.o)
                                         0x60 (size before relaxing)
 .stab          0x0000000000013b24      0x1ec /opt/local/lib/gcc/avr/4.6.2/../../../../avr/lib/avr51/libm.a(fp_powser.o)
                                        0x1f8 (size before relaxing)
 .stab          0x0000000000013d10       0x84 /opt/local/lib/gcc/avr/4.6.2/../../../../avr/lib/avr51/libm.a(fp_pscA.o)
                                         0x90 (size before relaxing)
 .stab          0x0000000000013d94       0x84 /opt/local/lib/gcc/avr/4.6.2/../../../../avr/lib/avr51/libm.a(fp_pscB.o)
                                         0x90 (size before relaxing)
 .stab          0x0000000000013e18       0xfc /opt/local/lib/gcc/avr/4.6.2/../../../../avr/lib/avr51/libm.a(fp_round.o)
                                        0x108 (size before relaxing)
 .stab          0x0000000000013f14      0x1d4 /opt/local/lib/gcc/avr/4.6.2/../../../../avr/lib/avr51/libm.a(fp_split3.o)
                                        0x1e0 (size before relaxing)
 .stab          0x00000000000140e8       0x90 /opt/local/lib/gcc/avr/4.6.2/../../../../avr/lib/avr51/libm.a(fp_zero.o)
                                         0x9c (size before relaxing)
 .stab          0x0000000000014178       0x84 /opt/local/lib/gcc/avr/4.6.2/../../../../avr/lib/avr51/libm.a(inverse.o)
                                         0x90 (size before relaxing)
 .stab          0x00000000000141fc       0x48 /opt/local/lib/gcc/avr/4.6.2/../../../../avr/lib/avr51/libm.a(mulsf3.o)
                                         0x54 (size before relaxing)
 .stab          0x0000000000014244      0x4d4 /opt/local/lib/gcc/avr/4.6.2/../../../../avr/lib/avr51/libm.a(mulsf3x.o)
                                        0x4e0 (size before relaxing)
 .stab          0x0000000000014718       0x54 /opt/local/lib/gcc/avr/4.6.2/../../../../avr/lib/avr51/libm.a(square.o)
                                         0x60 (size before relaxing)
 .stab          0x000000000001476c      0x1b0 /opt/local/lib/gcc/avr/4.6.2/avr51/libgcc.a(_mulsi3.o)
                                        0x1bc (size before relaxing)
 .stab          0x000000000001491c      0x144 /opt/local/lib/gcc/avr/4.6.2/avr51/libgcc.a(_udivmodhi4.o)
                                        0x150 (size before relaxing)
 .stab          0x0000000000014a60      0x120 /opt/local/lib/gcc/avr/4.6.2/avr51/libgcc.a(_divmodhi4.o)
                                        0x12c (size before relaxing)
 .stab          0x0000000000014b80      0x210 /opt/local/lib/gcc/avr/4.6.2/avr51/libgcc.a(_udivmodsi4.o)
                                        0x21c (size before relaxing)
 .stab          0x0000000000014d90       0x54 /opt/local/lib/gcc/avr/4.6.2/avr51/libgcc.a(_exit.o)
                                         0x60 (size before relaxing)
 .stab          0x0000000000014de4       0xb4 /opt/local/lib/gcc/avr/4.6.2/avr51/libgcc.a(_copy_data.o)
                                         0xc0 (size before relaxing)
 .stab          0x0000000000014e98       0x78 /opt/local/lib/gcc/avr/4.6.2/avr51/libgcc.a(_clear_bss.o)
                                         0x84 (size before relaxing)
 .stab          0x0000000000014f10      0x894 /opt/local/lib/gcc/avr/4.6.2/avr51/libgcc.a(_udivdi3.o)
                                        0x8a0 (size before relaxing)
 .stab          0x00000000000157a4      0x18c /opt/local/lib/gcc/avr/4.6.2/avr51/libgcc.a(_prologue.o)
                                        0x198 (size before relaxing)
 .stab          0x0000000000015930      0x18c /opt/local/lib/gcc/avr/4.6.2/avr51/libgcc.a(_epilogue.o)
                                        0x198 (size before relaxing)
 .stab          0x0000000000015abc      0x144 /opt/local/lib/gcc/avr/4.6.2/avr51/libgcc.a(_clz.o)
                                        0x36c (size before relaxing)
 .stab          0x0000000000015c00       0x9c /opt/local/lib/gcc/avr/4.6.2/../../../../avr/lib/avr51/libc.a(strchr_P.o)
                                         0xa8 (size before relaxing)
 .stab          0x0000000000015c9c       0x84 /opt/local/lib/gcc/avr/4.6.2/../../../../avr/lib/avr51/libc.a(memcpy.o)
                                         0x90 (size before relaxing)
 .stab          0x0000000000015d20      0x288 /opt/local/lib/gcc/avr/4.6.2/../../../../avr/lib/avr51/libc.a(fdevopen.o)
                                        0x4b0 (size before relaxing)
 .stab          0x0000000000015fa8      0x1e0 /opt/local/lib/gcc/avr/4.6.2/../../../../avr/lib/avr51/libc.a(fputc.o)
                                        0x3c0 (size before relaxing)
 .stab          0x0000000000016188      0x12c /opt/local/lib/gcc/avr/4.6.2/../../../../avr/lib/avr51/libc.a(iob.o)
                                        0x30c (size before relaxing)
 .stab          0x00000000000162b4      0x18c /opt/local/lib/gcc/avr/4.6.2/../../../../avr/lib/avr51/libc.a(printf.o)
                                        0x36c (size before relaxing)
 .stab          0x0000000000016440      0x204 /opt/local/lib/gcc/avr/4.6.2/../../../../avr/lib/avr51/libc.a(puts.o)
                                        0x3e4 (size before relaxing)
 .stab          0x0000000000016644      0x1f8 /opt/local/lib/gcc/avr/4.6.2/../../../../avr/lib/avr51/libc.a(sprintf.o)
                                        0x3d8 (size before relaxing)
 .stab          0x000000000001683c      0x480 /opt/local/lib/gcc/avr/4.6.2/../../../../avr/lib/avr51/libc.a(ultoa_invert.o)
                                        0x48c (size before relaxing)
 .stab          0x0000000000016cbc       0x90 /opt/local/lib/gcc/avr/4.6.2/../../../../avr/lib/avr51/libc.a(eerd_byte_atmega128rfa1.o)
                                         0x9c (size before relaxing)
 .stab          0x0000000000016d4c       0xe4 /opt/local/lib/gcc/avr/4.6.2/../../../../avr/lib/avr51/libc.a(eewr_byte_atmega128rfa1.o)
                                         0xf0 (size before relaxing)
 .stab          0x0000000000016e30      0x198 /opt/local/lib/gcc/avr/4.6.2/../../../../avr/lib/avr51/libc.a(calloc.o)
                                        0x1f8 (size before relaxing)
 .stab          0x0000000000016fc8      0x5a0 /opt/local/lib/gcc/avr/4.6.2/../../../../avr/lib/avr51/libc.a(malloc.o)
                                        0x780 (size before relaxing)
 .stab          0x0000000000017568       0x6c /opt/local/lib/gcc/avr/4.6.2/../../../../avr/lib/avr51/libc.a(memset.o)
                                         0x78 (size before relaxing)

.stabstr        0x0000000000000000    0x1086f
 *(.stabstr)
 .stabstr       0x0000000000000000    0x1086f /opt/local/lib/gcc/avr/4.6.2/../../../../avr/lib/avr51/crtm128rfa1.o

.stab.excl
 *(.stab.excl)

.stab.exclstr
 *(.stab.exclstr)

.stab.index
 *(.stab.index)

.stab.indexstr
 *(.stab.indexstr)

.comment
 *(.comment)

.debug
 *(.debug)

.line
 *(.line)

.debug_srcinfo
 *(.debug_srcinfo)

.debug_sfnames
 *(.debug_sfnames)

.debug_aranges
 *(.debug_aranges)

.debug_pubnames
 *(.debug_pubnames)

.debug_info
 *(.debug_info)
 *(.gnu.linkonce.wi.*)

.debug_abbrev
 *(.debug_abbrev)

.debug_line
 *(.debug_line)

.debug_frame
 *(.debug_frame)

.debug_str
 *(.debug_str)

.debug_loc
 *(.debug_loc)

.debug_macinfo
 *(.debug_macinfo)
OUTPUT(main.elf elf32-avr)
LOAD linker stubs

Cross Reference Table

Symbol                                            File
EnableMeasurements                                ../../../src/drivers/platform/MARS/source/ADXL345.o
EnsureConnected                                   ../../../src/drivers/platform/MARS/source/ADXL345.o
GetErrorText                                      ../../../src/drivers/platform/MARS/source/ADXL345.o
IsConnected                                       ../../../src/drivers/platform/MARS/source/ADXL345.o
                                                  main.o
MARS_sensor_val_to_uint8_buf                      ../../../src/drivers/platform/MARS/source/MARS_basic_sensor.o
Mag_m_scale                                       ../../../src/drivers/platform/MARS/source/HMC5883L.o
                                                  main.o
NRK_ADC_INPUT_0                                   ../../../src/platform/MARS/source/ulib.o
NRK_ADC_INPUT_1                                   ../../../src/platform/MARS/source/ulib.o
NRK_ADC_INPUT_2                                   ../../../src/platform/MARS/source/ulib.o
NRK_ADC_INPUT_3                                   ../../../src/platform/MARS/source/ulib.o
NRK_ADC_INPUT_4                                   ../../../src/platform/MARS/source/ulib.o
NRK_ADC_INPUT_5                                   ../../../src/platform/MARS/source/ulib.o
NRK_ADC_INPUT_6                                   ../../../src/platform/MARS/source/ulib.o
NRK_ADC_INPUT_7                                   ../../../src/platform/MARS/source/ulib.o
NRK_BUTTON                                        ../../../src/platform/MARS/source/ulib.o
NRK_GPIO26                                        ../../../src/platform/MARS/source/ulib.o
NRK_GPIO34                                        ../../../src/platform/MARS/source/ulib.o
NRK_LED_0                                         ../../../src/platform/MARS/source/ulib.o
NRK_LED_1                                         ../../../src/platform/MARS/source/ulib.o
NRK_LED_2                                         ../../../src/platform/MARS/source/ulib.o
NRK_LED_3                                         ../../../src/platform/MARS/source/ulib.o
NRK_MISO                                          ../../../src/platform/MARS/source/ulib.o
NRK_MMC_10                                        ../../../src/platform/MARS/source/ulib.o
NRK_MMC_11                                        ../../../src/platform/MARS/source/ulib.o
NRK_MMC_9                                         ../../../src/platform/MARS/source/ulib.o
NRK_MOSI                                          ../../../src/platform/MARS/source/ulib.o
NRK_SCK                                           ../../../src/platform/MARS/source/ulib.o
NRK_SPI_SS                                        ../../../src/platform/MARS/source/ulib.o
NRK_UART0_RXD                                     ../../../src/platform/MARS/source/ulib.o
NRK_UART0_TXD                                     ../../../src/platform/MARS/source/ulib.o
NRK_UART1_RXD                                     ../../../src/platform/MARS/source/ulib.o
NRK_UART1_TXD                                     ../../../src/platform/MARS/source/ulib.o
PORT_INIT                                         ../../../src/platform/MARS/source/ulib.o
Read                                              ../../../src/drivers/platform/MARS/source/ADXL345.o
ReadRawAxis                                       ../../../src/drivers/platform/MARS/source/ADXL345.o
ReadScaledAxis                                    ../../../src/drivers/platform/MARS/source/ADXL345.o
SIG_OUTPUT_COMPARE1A                              ../../../src/kernel/hal/atmega128rfa1/nrk_timer.o
SetRange                                          ../../../src/drivers/platform/MARS/source/ADXL345.o
Stack1                                            main.o
Task1                                             main.o
TaskOne                                           main.o
Write                                             ../../../src/drivers/platform/MARS/source/ADXL345.o
__addsf3                                          /opt/local/lib/gcc/avr/4.6.2/../../../../avr/lib/avr51/libm.a(addsf3.o)
                                                  /opt/local/lib/gcc/avr/4.6.2/../../../../avr/lib/avr51/libm.a(atan2.o)
                                                  ../../../src/drivers/platform/MARS/source/HMC5883L.o
                                                  ../../../src/drivers/platform/MARS/source/ITG3200.o
__addsf3x                                         /opt/local/lib/gcc/avr/4.6.2/../../../../avr/lib/avr51/libm.a(addsf3x.o)
                                                  /opt/local/lib/gcc/avr/4.6.2/../../../../avr/lib/avr51/libm.a(fp_powser.o)
                                                  /opt/local/lib/gcc/avr/4.6.2/../../../../avr/lib/avr51/libm.a(atan.o)
                                                  /opt/local/lib/gcc/avr/4.6.2/../../../../avr/lib/avr51/libm.a(addsf3.o)
__bad_interrupt                                   /opt/local/lib/gcc/avr/4.6.2/../../../../avr/lib/avr51/crtm128rfa1.o
__brkval                                          /opt/local/lib/gcc/avr/4.6.2/../../../../avr/lib/avr51/libc.a(malloc.o)
__bss_end                                         /opt/local/lib/gcc/avr/4.6.2/avr51/libgcc.a(_clear_bss.o)
__bss_start                                       /opt/local/lib/gcc/avr/4.6.2/avr51/libgcc.a(_clear_bss.o)
__clz_tab                                         /opt/local/lib/gcc/avr/4.6.2/avr51/libgcc.a(_clz.o)
                                                  /opt/local/lib/gcc/avr/4.6.2/avr51/libgcc.a(_udivdi3.o)
__cmpsf2                                          /opt/local/lib/gcc/avr/4.6.2/../../../../avr/lib/avr51/libm.a(cmpsf2.o)
__data_end                                        /opt/local/lib/gcc/avr/4.6.2/avr51/libgcc.a(_copy_data.o)
__data_load_start                                 /opt/local/lib/gcc/avr/4.6.2/avr51/libgcc.a(_copy_data.o)
__data_start                                      /opt/local/lib/gcc/avr/4.6.2/avr51/libgcc.a(_copy_data.o)
__divmodhi4                                       /opt/local/lib/gcc/avr/4.6.2/avr51/libgcc.a(_divmodhi4.o)
                                                  ../../../src/drivers/platform/MARS/source/ITG3200.o
__divsf3                                          /opt/local/lib/gcc/avr/4.6.2/../../../../avr/lib/avr51/libm.a(divsf3.o)
                                                  /opt/local/lib/gcc/avr/4.6.2/../../../../avr/lib/avr51/libm.a(inverse.o)
                                                  ../../../src/drivers/platform/MARS/source/HMC5883L.o
                                                  ../../../src/drivers/platform/MARS/source/ITG3200.o
__divsf3_pse                                      /opt/local/lib/gcc/avr/4.6.2/../../../../avr/lib/avr51/libm.a(divsf3x.o)
                                                  /opt/local/lib/gcc/avr/4.6.2/../../../../avr/lib/avr51/libm.a(atan2.o)
__divsf3x                                         /opt/local/lib/gcc/avr/4.6.2/../../../../avr/lib/avr51/libm.a(divsf3x.o)
                                                  /opt/local/lib/gcc/avr/4.6.2/../../../../avr/lib/avr51/libm.a(divsf3.o)
__do_clear_bss                                    /opt/local/lib/gcc/avr/4.6.2/avr51/libgcc.a(_clear_bss.o)
                                                  /opt/local/lib/gcc/avr/4.6.2/../../../../avr/lib/avr51/libc.a(malloc.o)
                                                  /opt/local/lib/gcc/avr/4.6.2/../../../../avr/lib/avr51/libc.a(calloc.o)
                                                  /opt/local/lib/gcc/avr/4.6.2/../../../../avr/lib/avr51/libc.a(sprintf.o)
                                                  /opt/local/lib/gcc/avr/4.6.2/../../../../avr/lib/avr51/libc.a(puts.o)
                                                  /opt/local/lib/gcc/avr/4.6.2/../../../../avr/lib/avr51/libc.a(printf.o)
                                                  /opt/local/lib/gcc/avr/4.6.2/../../../../avr/lib/avr51/libc.a(iob.o)
                                                  /opt/local/lib/gcc/avr/4.6.2/../../../../avr/lib/avr51/libc.a(fputc.o)
                                                  /opt/local/lib/gcc/avr/4.6.2/../../../../avr/lib/avr51/libc.a(fdevopen.o)
                                                  /opt/local/lib/gcc/avr/4.6.2/avr51/libgcc.a(_clz.o)
                                                  /opt/local/lib/gcc/avr/4.6.2/avr51/libgcc.a(_udivdi3.o)
                                                  /opt/local/lib/gcc/avr/4.6.2/../../../../avr/lib/avr51/libprintf_min.a(vfprintf_min.o)
                                                  ../../../src/kernel/hal/atmega128rfa1/nrk_cpu.o
                                                  ../../../src/kernel/hal/atmega128rfa1/nrk_watchdog.o
                                                  ../../../src/kernel/hal/atmega128rfa1/nrk_ext_int.o
                                                  ../../../src/kernel/hal/atmega128rfa1/nrk_status.o
                                                  ../../../src/kernel/hal/atmega128rfa1/nrk_timer.o
                                                  ../../../src/kernel/source/nrk_sw_wdt.o
                                                  ../../../src/kernel/source/nrk_reserve.o
                                                  ../../../src/kernel/source/nrk_driver.o
                                                  ../../../src/kernel/source/nrk_scheduler.o
                                                  ../../../src/kernel/source/nrk_idle_task.o
                                                  ../../../src/kernel/source/nrk_time.o
                                                  ../../../src/kernel/source/nrk_task.o
                                                  ../../../src/kernel/source/nrk_events.o
                                                  ../../../src/kernel/source/nrk_stack_check.o
                                                  ../../../src/kernel/source/nrk_error.o
                                                  ../../../src/kernel/source/nrk_stats.o
                                                  ../../../src/kernel/source/nrk.o
                                                  ../../../src/platform/MARS/source/nrk_eeprom.o
                                                  ../../../src/platform/MARS/source/hal_wait.o
                                                  ../../../src/platform/MARS/source/ulib.o
                                                  ../../../src/radio/rf231_soc/source/basic_rf.o
                                                  ../../../src/drivers/platform/MARS/source/Wire.o
                                                  ../../../src/drivers/platform/MARS/source/twi.o
                                                  ../../../src/drivers/platform/MARS/source/HMC5883L.o
                                                  ../../../src/drivers/platform/MARS/source/ITG3200.o
                                                  ../../../src/drivers/platform/MARS/source/ADXL345.o
                                                  ../../../src/drivers/platform/MARS/source/MARS_basic_sensor.o
                                                  main.o
__do_copy_data                                    /opt/local/lib/gcc/avr/4.6.2/avr51/libgcc.a(_copy_data.o)
                                                  /opt/local/lib/gcc/avr/4.6.2/../../../../avr/lib/avr51/libc.a(malloc.o)
                                                  /opt/local/lib/gcc/avr/4.6.2/../../../../avr/lib/avr51/libc.a(calloc.o)
                                                  /opt/local/lib/gcc/avr/4.6.2/../../../../avr/lib/avr51/libc.a(sprintf.o)
                                                  /opt/local/lib/gcc/avr/4.6.2/../../../../avr/lib/avr51/libc.a(puts.o)
                                                  /opt/local/lib/gcc/avr/4.6.2/../../../../avr/lib/avr51/libc.a(printf.o)
                                                  /opt/local/lib/gcc/avr/4.6.2/../../../../avr/lib/avr51/libc.a(iob.o)
                                                  /opt/local/lib/gcc/avr/4.6.2/../../../../avr/lib/avr51/libc.a(fputc.o)
                                                  /opt/local/lib/gcc/avr/4.6.2/../../../../avr/lib/avr51/libc.a(fdevopen.o)
                                                  /opt/local/lib/gcc/avr/4.6.2/avr51/libgcc.a(_clz.o)
                                                  /opt/local/lib/gcc/avr/4.6.2/avr51/libgcc.a(_udivdi3.o)
                                                  /opt/local/lib/gcc/avr/4.6.2/../../../../avr/lib/avr51/libprintf_min.a(vfprintf_min.o)
                                                  ../../../src/kernel/hal/atmega128rfa1/nrk_cpu.o
                                                  ../../../src/kernel/hal/atmega128rfa1/nrk_watchdog.o
                                                  ../../../src/kernel/hal/atmega128rfa1/nrk_ext_int.o
                                                  ../../../src/kernel/hal/atmega128rfa1/nrk_status.o
                                                  ../../../src/kernel/hal/atmega128rfa1/nrk_timer.o
                                                  ../../../src/kernel/source/nrk_sw_wdt.o
                                                  ../../../src/kernel/source/nrk_reserve.o
                                                  ../../../src/kernel/source/nrk_driver.o
                                                  ../../../src/kernel/source/nrk_scheduler.o
                                                  ../../../src/kernel/source/nrk_idle_task.o
                                                  ../../../src/kernel/source/nrk_time.o
                                                  ../../../src/kernel/source/nrk_task.o
                                                  ../../../src/kernel/source/nrk_events.o
                                                  ../../../src/kernel/source/nrk_stack_check.o
                                                  ../../../src/kernel/source/nrk_error.o
                                                  ../../../src/kernel/source/nrk_stats.o
                                                  ../../../src/kernel/source/nrk.o
                                                  ../../../src/platform/MARS/source/nrk_eeprom.o
                                                  ../../../src/platform/MARS/source/hal_wait.o
                                                  ../../../src/platform/MARS/source/ulib.o
                                                  ../../../src/radio/rf231_soc/source/basic_rf.o
                                                  ../../../src/drivers/platform/MARS/source/Wire.o
                                                  ../../../src/drivers/platform/MARS/source/twi.o
                                                  ../../../src/drivers/platform/MARS/source/HMC5883L.o
                                                  ../../../src/drivers/platform/MARS/source/ITG3200.o
                                                  ../../../src/drivers/platform/MARS/source/ADXL345.o
                                                  ../../../src/drivers/platform/MARS/source/MARS_basic_sensor.o
                                                  main.o
__eerd_byte_m128rfa1                              /opt/local/lib/gcc/avr/4.6.2/../../../../avr/lib/avr51/libc.a(eerd_byte_atmega128rfa1.o)
                                                  ../../../src/platform/MARS/source/nrk_eeprom.o
__eewr_byte_m128rfa1                              /opt/local/lib/gcc/avr/4.6.2/../../../../avr/lib/avr51/libc.a(eewr_byte_atmega128rfa1.o)
                                                  ../../../src/platform/MARS/source/nrk_eeprom.o
__eewr_r18_m128rfa1                               /opt/local/lib/gcc/avr/4.6.2/../../../../avr/lib/avr51/libc.a(eewr_byte_atmega128rfa1.o)
__epilogue_restores__                             /opt/local/lib/gcc/avr/4.6.2/avr51/libgcc.a(_epilogue.o)
                                                  /opt/local/lib/gcc/avr/4.6.2/avr51/libgcc.a(_udivdi3.o)
__eqsf2                                           /opt/local/lib/gcc/avr/4.6.2/../../../../avr/lib/avr51/libm.a(cmpsf2.o)
                                                  ../../../src/drivers/platform/MARS/source/HMC5883L.o
__fixsfsi                                         /opt/local/lib/gcc/avr/4.6.2/../../../../avr/lib/avr51/libm.a(fixsfsi.o)
                                                  ../../../src/drivers/platform/MARS/source/HMC5883L.o
                                                  ../../../src/drivers/platform/MARS/source/ITG3200.o
                                                  ../../../src/drivers/platform/MARS/source/ADXL345.o
__fixunssfsi                                      /opt/local/lib/gcc/avr/4.6.2/../../../../avr/lib/avr51/libm.a(fixunssfsi.o)
                                                  /opt/local/lib/gcc/avr/4.6.2/../../../../avr/lib/avr51/libm.a(fixsfsi.o)
__floatsisf                                       /opt/local/lib/gcc/avr/4.6.2/../../../../avr/lib/avr51/libm.a(floatsisf.o)
                                                  ../../../src/drivers/platform/MARS/source/HMC5883L.o
                                                  ../../../src/drivers/platform/MARS/source/ITG3200.o
                                                  ../../../src/drivers/platform/MARS/source/ADXL345.o
__floatunsisf                                     /opt/local/lib/gcc/avr/4.6.2/../../../../avr/lib/avr51/libm.a(floatsisf.o)
                                                  ../../../src/drivers/platform/MARS/source/ITG3200.o
__flp                                             /opt/local/lib/gcc/avr/4.6.2/../../../../avr/lib/avr51/libc.a(malloc.o)
__fp_cmp                                          /opt/local/lib/gcc/avr/4.6.2/../../../../avr/lib/avr51/libm.a(fp_cmp.o)
                                                  /opt/local/lib/gcc/avr/4.6.2/../../../../avr/lib/avr51/libm.a(cmpsf2.o)
__fp_inf                                          /opt/local/lib/gcc/avr/4.6.2/../../../../avr/lib/avr51/libm.a(fp_inf.o)
                                                  /opt/local/lib/gcc/avr/4.6.2/../../../../avr/lib/avr51/libm.a(mulsf3x.o)
                                                  /opt/local/lib/gcc/avr/4.6.2/../../../../avr/lib/avr51/libm.a(divsf3x.o)
                                                  /opt/local/lib/gcc/avr/4.6.2/../../../../avr/lib/avr51/libm.a(addsf3x.o)
__fp_nan                                          /opt/local/lib/gcc/avr/4.6.2/../../../../avr/lib/avr51/libm.a(fp_nan.o)
                                                  /opt/local/lib/gcc/avr/4.6.2/../../../../avr/lib/avr51/libm.a(mulsf3x.o)
                                                  /opt/local/lib/gcc/avr/4.6.2/../../../../avr/lib/avr51/libm.a(divsf3x.o)
                                                  /opt/local/lib/gcc/avr/4.6.2/../../../../avr/lib/avr51/libm.a(atan2.o)
                                                  /opt/local/lib/gcc/avr/4.6.2/../../../../avr/lib/avr51/libm.a(addsf3x.o)
__fp_powser                                       /opt/local/lib/gcc/avr/4.6.2/../../../../avr/lib/avr51/libm.a(fp_powser.o)
                                                  /opt/local/lib/gcc/avr/4.6.2/../../../../avr/lib/avr51/libm.a(atan.o)
__fp_pscA                                         /opt/local/lib/gcc/avr/4.6.2/../../../../avr/lib/avr51/libm.a(fp_pscA.o)
                                                  /opt/local/lib/gcc/avr/4.6.2/../../../../avr/lib/avr51/libm.a(mulsf3x.o)
                                                  /opt/local/lib/gcc/avr/4.6.2/../../../../avr/lib/avr51/libm.a(divsf3x.o)
                                                  /opt/local/lib/gcc/avr/4.6.2/../../../../avr/lib/avr51/libm.a(atan2.o)
                                                  /opt/local/lib/gcc/avr/4.6.2/../../../../avr/lib/avr51/libm.a(addsf3x.o)
__fp_pscB                                         /opt/local/lib/gcc/avr/4.6.2/../../../../avr/lib/avr51/libm.a(fp_pscB.o)
                                                  /opt/local/lib/gcc/avr/4.6.2/../../../../avr/lib/avr51/libm.a(mulsf3x.o)
                                                  /opt/local/lib/gcc/avr/4.6.2/../../../../avr/lib/avr51/libm.a(divsf3x.o)
                                                  /opt/local/lib/gcc/avr/4.6.2/../../../../avr/lib/avr51/libm.a(atan2.o)
                                                  /opt/local/lib/gcc/avr/4.6.2/../../../../avr/lib/avr51/libm.a(addsf3x.o)
__fp_round                                        /opt/local/lib/gcc/avr/4.6.2/../../../../avr/lib/avr51/libm.a(fp_round.o)
                                                  /opt/local/lib/gcc/avr/4.6.2/../../../../avr/lib/avr51/libm.a(mulsf3.o)
                                                  /opt/local/lib/gcc/avr/4.6.2/../../../../avr/lib/avr51/libm.a(divsf3.o)
                                                  /opt/local/lib/gcc/avr/4.6.2/../../../../avr/lib/avr51/libm.a(atan.o)
                                                  /opt/local/lib/gcc/avr/4.6.2/../../../../avr/lib/avr51/libm.a(atan2.o)
                                                  /opt/local/lib/gcc/avr/4.6.2/../../../../avr/lib/avr51/libm.a(addsf3.o)
__fp_split3                                       /opt/local/lib/gcc/avr/4.6.2/../../../../avr/lib/avr51/libm.a(fp_split3.o)
                                                  /opt/local/lib/gcc/avr/4.6.2/../../../../avr/lib/avr51/libm.a(mulsf3x.o)
                                                  /opt/local/lib/gcc/avr/4.6.2/../../../../avr/lib/avr51/libm.a(divsf3x.o)
                                                  /opt/local/lib/gcc/avr/4.6.2/../../../../avr/lib/avr51/libm.a(atan2.o)
                                                  /opt/local/lib/gcc/avr/4.6.2/../../../../avr/lib/avr51/libm.a(addsf3x.o)
__fp_splitA                                       /opt/local/lib/gcc/avr/4.6.2/../../../../avr/lib/avr51/libm.a(fp_split3.o)
                                                  /opt/local/lib/gcc/avr/4.6.2/../../../../avr/lib/avr51/libm.a(fixunssfsi.o)
__fp_szero                                        /opt/local/lib/gcc/avr/4.6.2/../../../../avr/lib/avr51/libm.a(fp_zero.o)
                                                  /opt/local/lib/gcc/avr/4.6.2/../../../../avr/lib/avr51/libm.a(mulsf3x.o)
                                                  /opt/local/lib/gcc/avr/4.6.2/../../../../avr/lib/avr51/libm.a(fixsfsi.o)
                                                  /opt/local/lib/gcc/avr/4.6.2/../../../../avr/lib/avr51/libm.a(divsf3x.o)
__fp_zero                                         /opt/local/lib/gcc/avr/4.6.2/../../../../avr/lib/avr51/libm.a(fp_zero.o)
                                                  /opt/local/lib/gcc/avr/4.6.2/../../../../avr/lib/avr51/libm.a(fixunssfsi.o)
                                                  /opt/local/lib/gcc/avr/4.6.2/../../../../avr/lib/avr51/libm.a(atan2.o)
                                                  /opt/local/lib/gcc/avr/4.6.2/../../../../avr/lib/avr51/libm.a(addsf3x.o)
__heap_end                                        /opt/local/lib/gcc/avr/4.6.2/../../../../avr/lib/avr51/crtm128rfa1.o
                                                  /opt/local/lib/gcc/avr/4.6.2/../../../../avr/lib/avr51/libc.a(malloc.o)
__heap_start                                      /opt/local/lib/gcc/avr/4.6.2/../../../../avr/lib/avr51/libc.a(malloc.o)
__init                                            /opt/local/lib/gcc/avr/4.6.2/../../../../avr/lib/avr51/crtm128rfa1.o
__iob                                             /opt/local/lib/gcc/avr/4.6.2/../../../../avr/lib/avr51/libc.a(puts.o)
                                                  /opt/local/lib/gcc/avr/4.6.2/../../../../avr/lib/avr51/libc.a(printf.o)
                                                  /opt/local/lib/gcc/avr/4.6.2/../../../../avr/lib/avr51/libc.a(iob.o)
                                                  /opt/local/lib/gcc/avr/4.6.2/../../../../avr/lib/avr51/libc.a(fdevopen.o)
                                                  ../../../src/kernel/source/nrk_error.o
                                                  ../../../src/platform/MARS/source/ulib.o
__lesf2                                           /opt/local/lib/gcc/avr/4.6.2/../../../../avr/lib/avr51/libm.a(cmpsf2.o)
__ltsf2                                           /opt/local/lib/gcc/avr/4.6.2/../../../../avr/lib/avr51/libm.a(cmpsf2.o)
__malloc_heap_end                                 /opt/local/lib/gcc/avr/4.6.2/../../../../avr/lib/avr51/libc.a(malloc.o)
__malloc_heap_start                               /opt/local/lib/gcc/avr/4.6.2/../../../../avr/lib/avr51/libc.a(malloc.o)
__malloc_margin                                   /opt/local/lib/gcc/avr/4.6.2/../../../../avr/lib/avr51/libc.a(malloc.o)
__mulsf3                                          /opt/local/lib/gcc/avr/4.6.2/../../../../avr/lib/avr51/libm.a(mulsf3.o)
                                                  /opt/local/lib/gcc/avr/4.6.2/../../../../avr/lib/avr51/libm.a(square.o)
                                                  ../../../src/drivers/platform/MARS/source/HMC5883L.o
                                                  ../../../src/drivers/platform/MARS/source/ITG3200.o
                                                  ../../../src/drivers/platform/MARS/source/ADXL345.o
__mulsf3_pse                                      /opt/local/lib/gcc/avr/4.6.2/../../../../avr/lib/avr51/libm.a(mulsf3x.o)
__mulsf3x                                         /opt/local/lib/gcc/avr/4.6.2/../../../../avr/lib/avr51/libm.a(mulsf3x.o)
                                                  /opt/local/lib/gcc/avr/4.6.2/../../../../avr/lib/avr51/libm.a(mulsf3.o)
                                                  /opt/local/lib/gcc/avr/4.6.2/../../../../avr/lib/avr51/libm.a(fp_powser.o)
                                                  /opt/local/lib/gcc/avr/4.6.2/../../../../avr/lib/avr51/libm.a(atan.o)
__mulsi3                                          /opt/local/lib/gcc/avr/4.6.2/avr51/libgcc.a(_mulsi3.o)
                                                  /opt/local/lib/gcc/avr/4.6.2/avr51/libgcc.a(_udivdi3.o)
                                                  ../../../src/kernel/source/nrk_scheduler.o
                                                  ../../../src/kernel/source/nrk_time.o
                                                  ../../../src/radio/rf231_soc/source/basic_rf.o
__nesf2                                           /opt/local/lib/gcc/avr/4.6.2/../../../../avr/lib/avr51/libm.a(cmpsf2.o)
__prologue_saves__                                /opt/local/lib/gcc/avr/4.6.2/avr51/libgcc.a(_prologue.o)
                                                  /opt/local/lib/gcc/avr/4.6.2/avr51/libgcc.a(_udivdi3.o)
__stack                                           /opt/local/lib/gcc/avr/4.6.2/../../../../avr/lib/avr51/crtm128rfa1.o
__subsf3                                          /opt/local/lib/gcc/avr/4.6.2/../../../../avr/lib/avr51/libm.a(addsf3.o)
__udivdi3                                         /opt/local/lib/gcc/avr/4.6.2/avr51/libgcc.a(_udivdi3.o)
                                                  ../../../src/kernel/source/nrk_time.o
__udivmodhi4                                      /opt/local/lib/gcc/avr/4.6.2/avr51/libgcc.a(_udivmodhi4.o)
                                                  /opt/local/lib/gcc/avr/4.6.2/avr51/libgcc.a(_divmodhi4.o)
                                                  ../../../src/kernel/source/nrk_scheduler.o
__udivmodsi4                                      /opt/local/lib/gcc/avr/4.6.2/avr51/libgcc.a(_udivmodsi4.o)
                                                  /opt/local/lib/gcc/avr/4.6.2/avr51/libgcc.a(_udivdi3.o)
                                                  ../../../src/kernel/source/nrk_scheduler.o
                                                  ../../../src/kernel/source/nrk_time.o
__ultoa_invert                                    /opt/local/lib/gcc/avr/4.6.2/../../../../avr/lib/avr51/libc.a(ultoa_invert.o)
                                                  /opt/local/lib/gcc/avr/4.6.2/../../../../avr/lib/avr51/libprintf_min.a(vfprintf_min.o)
__vector_1                                        ../../../src/kernel/hal/atmega128rfa1/nrk_ext_int.o
                                                  /opt/local/lib/gcc/avr/4.6.2/../../../../avr/lib/avr51/crtm128rfa1.o
__vector_10                                       /opt/local/lib/gcc/avr/4.6.2/../../../../avr/lib/avr51/crtm128rfa1.o
__vector_11                                       /opt/local/lib/gcc/avr/4.6.2/../../../../avr/lib/avr51/crtm128rfa1.o
__vector_12                                       /opt/local/lib/gcc/avr/4.6.2/../../../../avr/lib/avr51/crtm128rfa1.o
__vector_13                                       ../../../src/kernel/hal/atmega128rfa1/nrk_timer.o
                                                  /opt/local/lib/gcc/avr/4.6.2/../../../../avr/lib/avr51/crtm128rfa1.o
__vector_14                                       /opt/local/lib/gcc/avr/4.6.2/../../../../avr/lib/avr51/crtm128rfa1.o
__vector_15                                       ../../../src/kernel/hal/atmega128rfa1/nrk_timer.o
                                                  /opt/local/lib/gcc/avr/4.6.2/../../../../avr/lib/avr51/crtm128rfa1.o
__vector_16                                       /opt/local/lib/gcc/avr/4.6.2/../../../../avr/lib/avr51/crtm128rfa1.o
__vector_17                                       /opt/local/lib/gcc/avr/4.6.2/../../../../avr/lib/avr51/crtm128rfa1.o
__vector_18                                       /opt/local/lib/gcc/avr/4.6.2/../../../../avr/lib/avr51/crtm128rfa1.o
__vector_19                                       /opt/local/lib/gcc/avr/4.6.2/../../../../avr/lib/avr51/crtm128rfa1.o
__vector_2                                        /opt/local/lib/gcc/avr/4.6.2/../../../../avr/lib/avr51/crtm128rfa1.o
__vector_20                                       /opt/local/lib/gcc/avr/4.6.2/../../../../avr/lib/avr51/crtm128rfa1.o
__vector_21                                       /opt/local/lib/gcc/avr/4.6.2/../../../../avr/lib/avr51/crtm128rfa1.o
__vector_22                                       /opt/local/lib/gcc/avr/4.6.2/../../../../avr/lib/avr51/crtm128rfa1.o
__vector_23                                       /opt/local/lib/gcc/avr/4.6.2/../../../../avr/lib/avr51/crtm128rfa1.o
__vector_24                                       /opt/local/lib/gcc/avr/4.6.2/../../../../avr/lib/avr51/crtm128rfa1.o
__vector_25                                       /opt/local/lib/gcc/avr/4.6.2/../../../../avr/lib/avr51/crtm128rfa1.o
__vector_26                                       /opt/local/lib/gcc/avr/4.6.2/../../../../avr/lib/avr51/crtm128rfa1.o
__vector_27                                       /opt/local/lib/gcc/avr/4.6.2/../../../../avr/lib/avr51/crtm128rfa1.o
__vector_28                                       /opt/local/lib/gcc/avr/4.6.2/../../../../avr/lib/avr51/crtm128rfa1.o
__vector_29                                       /opt/local/lib/gcc/avr/4.6.2/../../../../avr/lib/avr51/crtm128rfa1.o
__vector_3                                        /opt/local/lib/gcc/avr/4.6.2/../../../../avr/lib/avr51/crtm128rfa1.o
__vector_30                                       /opt/local/lib/gcc/avr/4.6.2/../../../../avr/lib/avr51/crtm128rfa1.o
__vector_31                                       /opt/local/lib/gcc/avr/4.6.2/../../../../avr/lib/avr51/crtm128rfa1.o
__vector_32                                       ../../../src/kernel/hal/atmega128rfa1/nrk_timer.o
                                                  /opt/local/lib/gcc/avr/4.6.2/../../../../avr/lib/avr51/crtm128rfa1.o
__vector_33                                       /opt/local/lib/gcc/avr/4.6.2/../../../../avr/lib/avr51/crtm128rfa1.o
__vector_34                                       /opt/local/lib/gcc/avr/4.6.2/../../../../avr/lib/avr51/crtm128rfa1.o
__vector_35                                       /opt/local/lib/gcc/avr/4.6.2/../../../../avr/lib/avr51/crtm128rfa1.o
__vector_36                                       /opt/local/lib/gcc/avr/4.6.2/../../../../avr/lib/avr51/crtm128rfa1.o
__vector_37                                       /opt/local/lib/gcc/avr/4.6.2/../../../../avr/lib/avr51/crtm128rfa1.o
__vector_38                                       /opt/local/lib/gcc/avr/4.6.2/../../../../avr/lib/avr51/crtm128rfa1.o
__vector_39                                       ../../../src/drivers/platform/MARS/source/twi.o
                                                  /opt/local/lib/gcc/avr/4.6.2/../../../../avr/lib/avr51/crtm128rfa1.o
__vector_4                                        /opt/local/lib/gcc/avr/4.6.2/../../../../avr/lib/avr51/crtm128rfa1.o
__vector_40                                       /opt/local/lib/gcc/avr/4.6.2/../../../../avr/lib/avr51/crtm128rfa1.o
__vector_41                                       /opt/local/lib/gcc/avr/4.6.2/../../../../avr/lib/avr51/crtm128rfa1.o
__vector_42                                       /opt/local/lib/gcc/avr/4.6.2/../../../../avr/lib/avr51/crtm128rfa1.o
__vector_43                                       /opt/local/lib/gcc/avr/4.6.2/../../../../avr/lib/avr51/crtm128rfa1.o
__vector_44                                       /opt/local/lib/gcc/avr/4.6.2/../../../../avr/lib/avr51/crtm128rfa1.o
__vector_45                                       /opt/local/lib/gcc/avr/4.6.2/../../../../avr/lib/avr51/crtm128rfa1.o
__vector_46                                       /opt/local/lib/gcc/avr/4.6.2/../../../../avr/lib/avr51/crtm128rfa1.o
__vector_47                                       /opt/local/lib/gcc/avr/4.6.2/../../../../avr/lib/avr51/crtm128rfa1.o
__vector_48                                       /opt/local/lib/gcc/avr/4.6.2/../../../../avr/lib/avr51/crtm128rfa1.o
__vector_49                                       /opt/local/lib/gcc/avr/4.6.2/../../../../avr/lib/avr51/crtm128rfa1.o
__vector_5                                        /opt/local/lib/gcc/avr/4.6.2/../../../../avr/lib/avr51/crtm128rfa1.o
__vector_50                                       /opt/local/lib/gcc/avr/4.6.2/../../../../avr/lib/avr51/crtm128rfa1.o
__vector_51                                       /opt/local/lib/gcc/avr/4.6.2/../../../../avr/lib/avr51/crtm128rfa1.o
__vector_52                                       /opt/local/lib/gcc/avr/4.6.2/../../../../avr/lib/avr51/crtm128rfa1.o
__vector_53                                       /opt/local/lib/gcc/avr/4.6.2/../../../../avr/lib/avr51/crtm128rfa1.o
__vector_54                                       /opt/local/lib/gcc/avr/4.6.2/../../../../avr/lib/avr51/crtm128rfa1.o
__vector_55                                       /opt/local/lib/gcc/avr/4.6.2/../../../../avr/lib/avr51/crtm128rfa1.o
__vector_56                                       /opt/local/lib/gcc/avr/4.6.2/../../../../avr/lib/avr51/crtm128rfa1.o
__vector_57                                       ../../../src/radio/rf231_soc/source/basic_rf.o
                                                  /opt/local/lib/gcc/avr/4.6.2/../../../../avr/lib/avr51/crtm128rfa1.o
__vector_58                                       ../../../src/radio/rf231_soc/source/basic_rf.o
                                                  /opt/local/lib/gcc/avr/4.6.2/../../../../avr/lib/avr51/crtm128rfa1.o
__vector_59                                       ../../../src/radio/rf231_soc/source/basic_rf.o
                                                  /opt/local/lib/gcc/avr/4.6.2/../../../../avr/lib/avr51/crtm128rfa1.o
__vector_6                                        /opt/local/lib/gcc/avr/4.6.2/../../../../avr/lib/avr51/crtm128rfa1.o
__vector_60                                       ../../../src/radio/rf231_soc/source/basic_rf.o
                                                  /opt/local/lib/gcc/avr/4.6.2/../../../../avr/lib/avr51/crtm128rfa1.o
__vector_61                                       ../../../src/radio/rf231_soc/source/basic_rf.o
                                                  /opt/local/lib/gcc/avr/4.6.2/../../../../avr/lib/avr51/crtm128rfa1.o
__vector_62                                       ../../../src/radio/rf231_soc/source/basic_rf.o
                                                  /opt/local/lib/gcc/avr/4.6.2/../../../../avr/lib/avr51/crtm128rfa1.o
__vector_63                                       ../../../src/radio/rf231_soc/source/basic_rf.o
                                                  /opt/local/lib/gcc/avr/4.6.2/../../../../avr/lib/avr51/crtm128rfa1.o
__vector_64                                       ../../../src/radio/rf231_soc/source/basic_rf.o
                                                  /opt/local/lib/gcc/avr/4.6.2/../../../../avr/lib/avr51/crtm128rfa1.o
__vector_65                                       /opt/local/lib/gcc/avr/4.6.2/../../../../avr/lib/avr51/crtm128rfa1.o
__vector_66                                       /opt/local/lib/gcc/avr/4.6.2/../../../../avr/lib/avr51/crtm128rfa1.o
__vector_67                                       /opt/local/lib/gcc/avr/4.6.2/../../../../avr/lib/avr51/crtm128rfa1.o
__vector_68                                       /opt/local/lib/gcc/avr/4.6.2/../../../../avr/lib/avr51/crtm128rfa1.o
__vector_69                                       /opt/local/lib/gcc/avr/4.6.2/../../../../avr/lib/avr51/crtm128rfa1.o
__vector_7                                        /opt/local/lib/gcc/avr/4.6.2/../../../../avr/lib/avr51/crtm128rfa1.o
__vector_70                                       /opt/local/lib/gcc/avr/4.6.2/../../../../avr/lib/avr51/crtm128rfa1.o
__vector_71                                       /opt/local/lib/gcc/avr/4.6.2/../../../../avr/lib/avr51/crtm128rfa1.o
__vector_8                                        /opt/local/lib/gcc/avr/4.6.2/../../../../avr/lib/avr51/crtm128rfa1.o
__vector_9                                        ../../../src/kernel/hal/atmega128rfa1/nrk_ext_int.o
                                                  /opt/local/lib/gcc/avr/4.6.2/../../../../avr/lib/avr51/crtm128rfa1.o
__vector_default                                  ../../../src/kernel/hal/atmega128rfa1/nrk_timer.o
                                                  /opt/local/lib/gcc/avr/4.6.2/../../../../avr/lib/avr51/crtm128rfa1.o
__vectors                                         /opt/local/lib/gcc/avr/4.6.2/../../../../avr/lib/avr51/crtm128rfa1.o
_buff                                             ../../../src/drivers/platform/MARS/source/ITG3200.o
                                                  main.o
_dev_address                                      ../../../src/drivers/platform/MARS/source/ITG3200.o
                                                  main.o
_div                                              /opt/local/lib/gcc/avr/4.6.2/avr51/libgcc.a(_divmodhi4.o)
_exit                                             /opt/local/lib/gcc/avr/4.6.2/avr51/libgcc.a(_exit.o)
_free_node                                        ../../../src/kernel/hal/atmega128rfa1/nrk_cpu.o
                                                  ../../../src/kernel/source/nrk_scheduler.o
                                                  ../../../src/kernel/source/nrk_task.o
                                                  ../../../src/kernel/source/nrk_events.o
                                                  ../../../src/kernel/source/nrk_stats.o
                                                  ../../../src/kernel/source/nrk.o
_head_node                                        ../../../src/kernel/hal/atmega128rfa1/nrk_cpu.o
                                                  ../../../src/kernel/source/nrk_scheduler.o
                                                  ../../../src/kernel/source/nrk_task.o
                                                  ../../../src/kernel/source/nrk_events.o
                                                  ../../../src/kernel/source/nrk_stats.o
                                                  ../../../src/kernel/source/nrk.o
_nrk_cpu_state                                    ../../../src/kernel/source/nrk_driver.o
                                                  ../../../src/kernel/source/nrk_scheduler.o
                                                  ../../../src/kernel/source/nrk_idle_task.o
                                                  ../../../src/kernel/source/nrk_task.o
                                                  ../../../src/kernel/source/nrk_events.o
                                                  ../../../src/kernel/source/nrk.o
_nrk_driver_count                                 ../../../src/kernel/source/nrk_driver.o
_nrk_errno_set                                    ../../../src/kernel/source/nrk_error.o
                                                  ../../../src/kernel/source/nrk_driver.o
                                                  ../../../src/kernel/source/nrk_events.o
_nrk_get_next_wakeup                              ../../../src/kernel/hal/atmega128rfa1/nrk_timer.o
                                                  ../../../src/kernel/source/nrk_idle_task.o
                                                  ../../../src/kernel/source/nrk_task.o
_nrk_high_speed_timer_get                         ../../../src/kernel/hal/atmega128rfa1/nrk_timer.o
                                                  ../../../src/kernel/source/nrk_scheduler.o
_nrk_high_speed_timer_reset                       ../../../src/kernel/hal/atmega128rfa1/nrk_timer.o
                                                  ../../../src/kernel/source/nrk_scheduler.o
_nrk_high_speed_timer_start                       ../../../src/kernel/hal/atmega128rfa1/nrk_timer.o
_nrk_high_speed_timer_stop                        ../../../src/kernel/hal/atmega128rfa1/nrk_timer.o
_nrk_os_timer_get                                 ../../../src/kernel/hal/atmega128rfa1/nrk_timer.o
                                                  ../../../src/kernel/source/nrk_scheduler.o
                                                  ../../../src/kernel/source/nrk_time.o
                                                  ../../../src/kernel/source/nrk_task.o
_nrk_os_timer_reset                               ../../../src/kernel/hal/atmega128rfa1/nrk_timer.o
_nrk_os_timer_set                                 ../../../src/kernel/hal/atmega128rfa1/nrk_timer.o
_nrk_os_timer_start                               ../../../src/kernel/hal/atmega128rfa1/nrk_timer.o
_nrk_os_timer_stop                                ../../../src/kernel/hal/atmega128rfa1/nrk_timer.o
_nrk_precision_os_timer_get                       ../../../src/kernel/hal/atmega128rfa1/nrk_timer.o
_nrk_precision_os_timer_reset                     ../../../src/kernel/hal/atmega128rfa1/nrk_timer.o
                                                  ../../../src/kernel/source/nrk_scheduler.o
_nrk_precision_os_timer_start                     ../../../src/kernel/hal/atmega128rfa1/nrk_timer.o
_nrk_precision_os_timer_stop                      ../../../src/kernel/hal/atmega128rfa1/nrk_timer.o
_nrk_prev_timer_val                               ../../../src/kernel/hal/atmega128rfa1/nrk_cpu.o
                                                  ../../../src/kernel/hal/atmega128rfa1/nrk_timer.o
                                                  ../../../src/kernel/source/nrk_driver.o
                                                  ../../../src/kernel/source/nrk_scheduler.o
                                                  ../../../src/kernel/source/nrk_idle_task.o
                                                  ../../../src/kernel/source/nrk_time.o
                                                  ../../../src/kernel/source/nrk_task.o
                                                  ../../../src/kernel/source/nrk_events.o
                                                  ../../../src/kernel/source/nrk_error.o
                                                  ../../../src/radio/rf231_soc/source/basic_rf.o
                                                  ../../../src/drivers/platform/MARS/source/ADXL345.o
                                                  main.o
_nrk_readyQ                                       ../../../src/kernel/hal/atmega128rfa1/nrk_cpu.o
                                                  ../../../src/kernel/source/nrk_scheduler.o
                                                  ../../../src/kernel/source/nrk_events.o
                                                  ../../../src/kernel/source/nrk_stats.o
                                                  ../../../src/kernel/source/nrk.o
_nrk_resource_cnt                                 ../../../src/kernel/hal/atmega128rfa1/nrk_cpu.o
                                                  ../../../src/kernel/source/nrk_scheduler.o
                                                  ../../../src/kernel/source/nrk_events.o
                                                  ../../../src/kernel/source/nrk_stats.o
                                                  ../../../src/kernel/source/nrk.o
_nrk_scheduler                                    ../../../src/kernel/source/nrk_scheduler.o
                                                  ../../../src/kernel/source/nrk.o
_nrk_set_next_wakeup                              ../../../src/kernel/hal/atmega128rfa1/nrk_timer.o
                                                  ../../../src/kernel/source/nrk_scheduler.o
                                                  ../../../src/kernel/source/nrk_task.o
_nrk_setup_timer                                  ../../../src/kernel/hal/atmega128rfa1/nrk_timer.o
                                                  ../../../src/kernel/hal/atmega128rfa1/nrk_cpu.o
_nrk_signal_list                                  ../../../src/kernel/hal/atmega128rfa1/nrk_cpu.o
                                                  ../../../src/kernel/hal/atmega128rfa1/nrk_watchdog.o
                                                  ../../../src/kernel/hal/atmega128rfa1/nrk_ext_int.o
                                                  ../../../src/kernel/hal/atmega128rfa1/nrk_status.o
                                                  ../../../src/kernel/hal/atmega128rfa1/nrk_timer.o
                                                  ../../../src/kernel/source/nrk_sw_wdt.o
                                                  ../../../src/kernel/source/nrk_driver.o
                                                  ../../../src/kernel/source/nrk_scheduler.o
                                                  ../../../src/kernel/source/nrk_idle_task.o
                                                  ../../../src/kernel/source/nrk_time.o
                                                  ../../../src/kernel/source/nrk_task.o
                                                  ../../../src/kernel/source/nrk_events.o
                                                  ../../../src/kernel/source/nrk_stack_check.o
                                                  ../../../src/kernel/source/nrk_error.o
                                                  ../../../src/kernel/source/nrk_stats.o
                                                  ../../../src/kernel/source/nrk.o
                                                  ../../../src/platform/MARS/source/nrk_eeprom.o
                                                  ../../../src/platform/MARS/source/ulib.o
                                                  ../../../src/radio/rf231_soc/source/basic_rf.o
                                                  ../../../src/drivers/platform/MARS/source/HMC5883L.o
                                                  ../../../src/drivers/platform/MARS/source/ITG3200.o
                                                  ../../../src/drivers/platform/MARS/source/ADXL345.o
                                                  main.o
_nrk_startup_error                                ../../../src/kernel/hal/atmega128rfa1/nrk_status.o
                                                  ../../../src/kernel/source/nrk.o
_nrk_ticks_to_time                                ../../../src/kernel/source/nrk_time.o
_nrk_time_to_ticks                                ../../../src/kernel/source/nrk_time.o
                                                  ../../../src/kernel/source/nrk_task.o
                                                  ../../../src/kernel/source/nrk.o
_nrk_time_to_ticks_long                           ../../../src/kernel/source/nrk_time.o
_nrk_time_trigger                                 ../../../src/kernel/hal/atmega128rfa1/nrk_cpu.o
                                                  ../../../src/kernel/hal/atmega128rfa1/nrk_timer.o
                                                  ../../../src/kernel/source/nrk_driver.o
                                                  ../../../src/kernel/source/nrk_scheduler.o
                                                  ../../../src/kernel/source/nrk_idle_task.o
                                                  ../../../src/kernel/source/nrk_time.o
                                                  ../../../src/kernel/source/nrk_task.o
                                                  ../../../src/kernel/source/nrk_events.o
                                                  ../../../src/kernel/source/nrk_error.o
                                                  ../../../src/radio/rf231_soc/source/basic_rf.o
                                                  ../../../src/drivers/platform/MARS/source/ADXL345.o
                                                  main.o
_nrk_timer_tick                                   ../../../src/kernel/source/nrk.o
                                                  ../../../src/kernel/hal/atmega128rfa1/nrk_cpu.o
_nrk_wait_for_scheduler                           ../../../src/kernel/source/nrk_task.o
acbuf                                             main.o
acc_power_on                                      ../../../src/drivers/platform/MARS/source/ADXL345.o
acc_set_data_rate                                 ../../../src/drivers/platform/MARS/source/ADXL345.o
app_timer0_callback                               ../../../src/kernel/hal/atmega128rfa1/nrk_cpu.o
                                                  ../../../src/kernel/hal/atmega128rfa1/nrk_timer.o
                                                  ../../../src/kernel/source/nrk_driver.o
                                                  ../../../src/kernel/source/nrk_scheduler.o
                                                  ../../../src/kernel/source/nrk_idle_task.o
                                                  ../../../src/kernel/source/nrk_time.o
                                                  ../../../src/kernel/source/nrk_task.o
                                                  ../../../src/kernel/source/nrk_events.o
                                                  ../../../src/kernel/source/nrk_error.o
                                                  ../../../src/radio/rf231_soc/source/basic_rf.o
                                                  ../../../src/drivers/platform/MARS/source/ADXL345.o
                                                  main.o
app_timer0_prescale                               ../../../src/kernel/hal/atmega128rfa1/nrk_cpu.o
                                                  ../../../src/kernel/hal/atmega128rfa1/nrk_timer.o
                                                  ../../../src/kernel/source/nrk_driver.o
                                                  ../../../src/kernel/source/nrk_scheduler.o
                                                  ../../../src/kernel/source/nrk_idle_task.o
                                                  ../../../src/kernel/source/nrk_time.o
                                                  ../../../src/kernel/source/nrk_task.o
                                                  ../../../src/kernel/source/nrk_events.o
                                                  ../../../src/kernel/source/nrk_error.o
                                                  ../../../src/radio/rf231_soc/source/basic_rf.o
                                                  ../../../src/drivers/platform/MARS/source/ADXL345.o
                                                  main.o
atan                                              /opt/local/lib/gcc/avr/4.6.2/../../../../avr/lib/avr51/libm.a(atan.o)
                                                  /opt/local/lib/gcc/avr/4.6.2/../../../../avr/lib/avr51/libm.a(atan2.o)
atan2                                             /opt/local/lib/gcc/avr/4.6.2/../../../../avr/lib/avr51/libm.a(atan2.o)
                                                  ../../../src/drivers/platform/MARS/source/HMC5883L.o
available                                         ../../../src/drivers/platform/MARS/source/Wire.o
                                                  ../../../src/drivers/platform/MARS/source/HMC5883L.o
                                                  ../../../src/drivers/platform/MARS/source/ITG3200.o
                                                  ../../../src/drivers/platform/MARS/source/ADXL345.o
begin                                             ../../../src/drivers/platform/MARS/source/Wire.o
                                                  main.o
beginTransmission_int                             ../../../src/drivers/platform/MARS/source/Wire.o
                                                  ../../../src/drivers/platform/MARS/source/HMC5883L.o
                                                  ../../../src/drivers/platform/MARS/source/ADXL345.o
beginTransmission_uint8                           ../../../src/drivers/platform/MARS/source/Wire.o
                                                  ../../../src/drivers/platform/MARS/source/ITG3200.o
begin_int                                         ../../../src/drivers/platform/MARS/source/Wire.o
begin_uint8                                       ../../../src/drivers/platform/MARS/source/Wire.o
blink_dash                                        ../../../src/kernel/source/nrk_error.o
blink_dot                                         ../../../src/kernel/source/nrk_error.o
blink_morse_code_error                            ../../../src/kernel/source/nrk_error.o
buffer                                            main.o
calloc                                            /opt/local/lib/gcc/avr/4.6.2/../../../../avr/lib/avr51/libc.a(calloc.o)
                                                  /opt/local/lib/gcc/avr/4.6.2/../../../../avr/lib/avr51/libc.a(fdevopen.o)
cnt                                               main.o
curr_t                                            ../../../src/radio/rf231_soc/source/basic_rf.o
dummy_t                                           ../../../src/radio/rf231_soc/source/basic_rf.o
dump_stack_info                                   ../../../src/kernel/source/nrk_stack_check.o
endTransmission                                   ../../../src/drivers/platform/MARS/source/Wire.o
                                                  ../../../src/drivers/platform/MARS/source/HMC5883L.o
                                                  ../../../src/drivers/platform/MARS/source/ITG3200.o
                                                  ../../../src/drivers/platform/MARS/source/ADXL345.o
error_num                                         ../../../src/kernel/hal/atmega128rfa1/nrk_cpu.o
                                                  ../../../src/kernel/hal/atmega128rfa1/nrk_watchdog.o
                                                  ../../../src/kernel/hal/atmega128rfa1/nrk_ext_int.o
                                                  ../../../src/kernel/hal/atmega128rfa1/nrk_status.o
                                                  ../../../src/kernel/hal/atmega128rfa1/nrk_timer.o
                                                  ../../../src/kernel/source/nrk_sw_wdt.o
                                                  ../../../src/kernel/source/nrk_driver.o
                                                  ../../../src/kernel/source/nrk_scheduler.o
                                                  ../../../src/kernel/source/nrk_idle_task.o
                                                  ../../../src/kernel/source/nrk_time.o
                                                  ../../../src/kernel/source/nrk_task.o
                                                  ../../../src/kernel/source/nrk_events.o
                                                  ../../../src/kernel/source/nrk_stack_check.o
                                                  ../../../src/kernel/source/nrk_error.o
                                                  ../../../src/kernel/source/nrk_stats.o
                                                  ../../../src/kernel/source/nrk.o
                                                  ../../../src/platform/MARS/source/nrk_eeprom.o
                                                  ../../../src/platform/MARS/source/ulib.o
                                                  ../../../src/radio/rf231_soc/source/basic_rf.o
                                                  ../../../src/drivers/platform/MARS/source/HMC5883L.o
                                                  ../../../src/drivers/platform/MARS/source/ITG3200.o
                                                  ../../../src/drivers/platform/MARS/source/ADXL345.o
                                                  main.o
error_task                                        ../../../src/kernel/hal/atmega128rfa1/nrk_cpu.o
                                                  ../../../src/kernel/hal/atmega128rfa1/nrk_watchdog.o
                                                  ../../../src/kernel/hal/atmega128rfa1/nrk_ext_int.o
                                                  ../../../src/kernel/hal/atmega128rfa1/nrk_status.o
                                                  ../../../src/kernel/hal/atmega128rfa1/nrk_timer.o
                                                  ../../../src/kernel/source/nrk_sw_wdt.o
                                                  ../../../src/kernel/source/nrk_driver.o
                                                  ../../../src/kernel/source/nrk_scheduler.o
                                                  ../../../src/kernel/source/nrk_idle_task.o
                                                  ../../../src/kernel/source/nrk_time.o
                                                  ../../../src/kernel/source/nrk_task.o
                                                  ../../../src/kernel/source/nrk_events.o
                                                  ../../../src/kernel/source/nrk_stack_check.o
                                                  ../../../src/kernel/source/nrk_error.o
                                                  ../../../src/kernel/source/nrk_stats.o
                                                  ../../../src/kernel/source/nrk.o
                                                  ../../../src/platform/MARS/source/nrk_eeprom.o
                                                  ../../../src/platform/MARS/source/ulib.o
                                                  ../../../src/radio/rf231_soc/source/basic_rf.o
                                                  ../../../src/drivers/platform/MARS/source/HMC5883L.o
                                                  ../../../src/drivers/platform/MARS/source/ITG3200.o
                                                  ../../../src/drivers/platform/MARS/source/ADXL345.o
                                                  main.o
exit                                              /opt/local/lib/gcc/avr/4.6.2/avr51/libgcc.a(_exit.o)
                                                  /opt/local/lib/gcc/avr/4.6.2/../../../../avr/lib/avr51/crtm128rfa1.o
ext_int0_callback                                 ../../../src/kernel/hal/atmega128rfa1/nrk_ext_int.o
ext_int1_callback                                 ../../../src/kernel/hal/atmega128rfa1/nrk_ext_int.o
ext_int2_callback                                 ../../../src/kernel/hal/atmega128rfa1/nrk_ext_int.o
fdevopen                                          /opt/local/lib/gcc/avr/4.6.2/../../../../avr/lib/avr51/libc.a(fdevopen.o)
                                                  ../../../src/platform/MARS/source/ulib.o
fputc                                             /opt/local/lib/gcc/avr/4.6.2/../../../../avr/lib/avr51/libc.a(fputc.o)
                                                  /opt/local/lib/gcc/avr/4.6.2/../../../../avr/lib/avr51/libprintf_min.a(vfprintf_min.o)
                                                  ../../../src/kernel/source/nrk_error.o
                                                  ../../../src/platform/MARS/source/ulib.o
free                                              /opt/local/lib/gcc/avr/4.6.2/../../../../avr/lib/avr51/libc.a(malloc.o)
getClockSource                                    ../../../src/drivers/platform/MARS/source/ITG3200.o
getDoubleTapLatency                               ../../../src/drivers/platform/MARS/source/ADXL345.o
getDoubleTapWindow                                ../../../src/drivers/platform/MARS/source/ADXL345.o
getInterruptMapping                               ../../../src/drivers/platform/MARS/source/ADXL345.o
getInterruptSource                                ../../../src/drivers/platform/MARS/source/ADXL345.o
getInterruptSourceVoid                            ../../../src/drivers/platform/MARS/source/ADXL345.o
getRegisterBit                                    ../../../src/drivers/platform/MARS/source/ADXL345.o
getTapDuration                                    ../../../src/drivers/platform/MARS/source/ADXL345.o
getTapThreshold                                   ../../../src/drivers/platform/MARS/source/ADXL345.o
get_Magneto_Values_flat                           ../../../src/drivers/platform/MARS/source/HMC5883L.o
get_Magneto_Values_scaled                         ../../../src/drivers/platform/MARS/source/HMC5883L.o
                                                  main.o
get_acc_values                                    ../../../src/drivers/platform/MARS/source/ADXL345.o
                                                  main.o
get_gyro_FS_range                                 ../../../src/drivers/platform/MARS/source/ITG3200.o
get_gyro_addr                                     ../../../src/drivers/platform/MARS/source/ITG3200.o
get_gyro_filter_BW                                ../../../src/drivers/platform/MARS/source/ITG3200.o
get_gyro_sample_rate_div                          ../../../src/drivers/platform/MARS/source/ITG3200.o
getc0                                             ../../../src/platform/MARS/source/ulib.o
getc1                                             ../../../src/platform/MARS/source/ulib.o
gyro_start_wait_time                              ../../../src/drivers/platform/MARS/source/ITG3200.o
                                                  main.o
gyro_zero_calibrate                               ../../../src/drivers/platform/MARS/source/ITG3200.o
gyrobuf                                           main.o
halWait                                           ../../../src/platform/MARS/source/hal_wait.o
init_gyro_all                                     ../../../src/drivers/platform/MARS/source/ITG3200.o
init_gyro_uint_address                            ../../../src/drivers/platform/MARS/source/ITG3200.o
inverse                                           /opt/local/lib/gcc/avr/4.6.2/../../../../avr/lib/avr51/libm.a(inverse.o)
                                                  /opt/local/lib/gcc/avr/4.6.2/../../../../avr/lib/avr51/libm.a(atan.o)
isAnyRegClrMode                                   ../../../src/drivers/platform/MARS/source/ITG3200.o
isITGReady                                        ../../../src/drivers/platform/MARS/source/ITG3200.o
isITGReadyOn                                      ../../../src/drivers/platform/MARS/source/ITG3200.o
isInterruptEnabled                                ../../../src/drivers/platform/MARS/source/ADXL345.o
isLatchUntilCleared                               ../../../src/drivers/platform/MARS/source/ITG3200.o
isLowPower                                        ../../../src/drivers/platform/MARS/source/ITG3200.o
isRawDataReady                                    ../../../src/drivers/platform/MARS/source/ITG3200.o
isRawDataReadyOn                                  ../../../src/drivers/platform/MARS/source/ITG3200.o
isTapDetectionOnX                                 ../../../src/drivers/platform/MARS/source/ADXL345.o
isTapDetectionOnY                                 ../../../src/drivers/platform/MARS/source/ADXL345.o
isTapDetectionOnZ                                 ../../../src/drivers/platform/MARS/source/ADXL345.o
isXgyroStandby                                    ../../../src/drivers/platform/MARS/source/ITG3200.o
isYgyroStandby                                    ../../../src/drivers/platform/MARS/source/ITG3200.o
isZgyroStandby                                    ../../../src/drivers/platform/MARS/source/ITG3200.o
is_gyro_INT_active_On_Low                         ../../../src/drivers/platform/MARS/source/ITG3200.o
is_gyro_INT_open_drain                            ../../../src/drivers/platform/MARS/source/ITG3200.o
m_Address                                         ../../../src/drivers/platform/MARS/source/ADXL345.o
                                                  main.o
m_Scale                                           ../../../src/drivers/platform/MARS/source/ADXL345.o
                                                  main.o
mag_read                                          ../../../src/drivers/platform/MARS/source/HMC5883L.o
mag_write                                         ../../../src/drivers/platform/MARS/source/HMC5883L.o
magbuf                                            main.o
main                                              main.o
                                                  /opt/local/lib/gcc/avr/4.6.2/../../../../avr/lib/avr51/crtm128rfa1.o
malloc                                            /opt/local/lib/gcc/avr/4.6.2/../../../../avr/lib/avr51/libc.a(malloc.o)
                                                  /opt/local/lib/gcc/avr/4.6.2/../../../../avr/lib/avr51/libc.a(calloc.o)
mdmctrl0                                          ../../../src/radio/rf231_soc/source/basic_rf.o
memcpy                                            /opt/local/lib/gcc/avr/4.6.2/../../../../avr/lib/avr51/libc.a(memcpy.o)
                                                  ../../../src/radio/rf231_soc/source/basic_rf.o
memset                                            /opt/local/lib/gcc/avr/4.6.2/../../../../avr/lib/avr51/libc.a(memset.o)
                                                  /opt/local/lib/gcc/avr/4.6.2/../../../../avr/lib/avr51/libc.a(calloc.o)
next_next_wakeup                                  ../../../src/kernel/source/nrk_driver.o
                                                  ../../../src/kernel/source/nrk_scheduler.o
                                                  ../../../src/kernel/source/nrk_idle_task.o
                                                  ../../../src/kernel/source/nrk_task.o
                                                  ../../../src/kernel/source/nrk_events.o
                                                  ../../../src/kernel/source/nrk.o
nrk_TCB_init                                      ../../../src/kernel/source/nrk.o
                                                  ../../../src/kernel/source/nrk_task.o
nrk_activate_task                                 ../../../src/kernel/source/nrk_task.o
                                                  ../../../src/kernel/source/nrk.o
                                                  main.o
nrk_add_to_readyQ                                 ../../../src/kernel/source/nrk_task.o
                                                  ../../../src/kernel/source/nrk_scheduler.o
nrk_battery_save                                  ../../../src/kernel/hal/atmega128rfa1/nrk_cpu.o
nrk_close                                         ../../../src/kernel/source/nrk_driver.o
nrk_create_taskset                                main.o
nrk_cur_task_TCB                                  ../../../src/kernel/hal/atmega128rfa1/nrk_cpu.o
                                                  ../../../src/kernel/hal/atmega128rfa1/nrk_timer.o
                                                  ../../../src/kernel/source/nrk_scheduler.o
                                                  ../../../src/kernel/source/nrk_task.o
                                                  ../../../src/kernel/source/nrk_events.o
                                                  ../../../src/kernel/source/nrk_stack_check.o
                                                  ../../../src/kernel/source/nrk_error.o
                                                  ../../../src/kernel/source/nrk_stats.o
                                                  ../../../src/kernel/source/nrk.o
nrk_cur_task_prio                                 ../../../src/kernel/hal/atmega128rfa1/nrk_cpu.o
                                                  ../../../src/kernel/source/nrk_scheduler.o
                                                  ../../../src/kernel/source/nrk_events.o
                                                  ../../../src/kernel/source/nrk_stats.o
                                                  ../../../src/kernel/source/nrk.o
nrk_driver_init                                   ../../../src/kernel/source/nrk_driver.o
nrk_drivers                                       ../../../src/kernel/source/nrk_driver.o
nrk_eeprom_read_byte                              ../../../src/platform/MARS/source/nrk_eeprom.o
nrk_eeprom_write_byte                             ../../../src/platform/MARS/source/nrk_eeprom.o
nrk_errno_get                                     ../../../src/kernel/source/nrk_error.o
nrk_error_add                                     ../../../src/kernel/source/nrk_error.o
                                                  ../../../src/kernel/hal/atmega128rfa1/nrk_cpu.o
                                                  ../../../src/kernel/source/nrk_idle_task.o
                                                  ../../../src/kernel/source/nrk_stack_check.o
nrk_error_get                                     ../../../src/kernel/source/nrk_error.o
nrk_error_print                                   ../../../src/kernel/source/nrk_error.o
nrk_event_signal                                  ../../../src/kernel/source/nrk_events.o
nrk_event_wait                                    ../../../src/kernel/source/nrk_events.o
nrk_ext_int_configure                             ../../../src/kernel/hal/atmega128rfa1/nrk_ext_int.o
nrk_ext_int_disable                               ../../../src/kernel/hal/atmega128rfa1/nrk_ext_int.o
nrk_ext_int_enable                                ../../../src/kernel/hal/atmega128rfa1/nrk_ext_int.o
nrk_get_button                                    ../../../src/platform/MARS/source/ulib.o
nrk_get_high_ready_task_ID                        ../../../src/kernel/source/nrk_task.o
                                                  ../../../src/kernel/source/nrk_scheduler.o
                                                  ../../../src/kernel/source/nrk.o
nrk_get_pid                                       ../../../src/kernel/source/nrk_task.o
                                                  main.o
nrk_get_resource_index                            ../../../src/kernel/source/nrk_events.o
nrk_get_status                                    ../../../src/kernel/source/nrk_driver.o
nrk_gpio_clr                                      ../../../src/platform/MARS/source/ulib.o
nrk_gpio_direction                                ../../../src/platform/MARS/source/ulib.o
nrk_gpio_get                                      ../../../src/platform/MARS/source/ulib.o
nrk_gpio_pullups                                  ../../../src/platform/MARS/source/ulib.o
nrk_gpio_set                                      ../../../src/platform/MARS/source/ulib.o
nrk_gpio_toggle                                   ../../../src/platform/MARS/source/ulib.o
nrk_halt                                          ../../../src/kernel/source/nrk.o
nrk_high_ready_TCB                                ../../../src/kernel/hal/atmega128rfa1/atmel_hw_specific.o
                                                  ../../../src/kernel/hal/atmega128rfa1/nrk_cpu.o
                                                  ../../../src/kernel/source/nrk_scheduler.o
                                                  ../../../src/kernel/source/nrk_events.o
                                                  ../../../src/kernel/source/nrk_stats.o
                                                  ../../../src/kernel/source/nrk.o
nrk_high_ready_prio                               ../../../src/kernel/hal/atmega128rfa1/nrk_cpu.o
                                                  ../../../src/kernel/source/nrk_scheduler.o
                                                  ../../../src/kernel/source/nrk_events.o
                                                  ../../../src/kernel/source/nrk_stats.o
                                                  ../../../src/kernel/source/nrk.o
nrk_high_speed_timer_wait                         ../../../src/kernel/hal/atmega128rfa1/nrk_timer.o
                                                  ../../../src/kernel/source/nrk_scheduler.o
nrk_idle                                          ../../../src/kernel/hal/atmega128rfa1/nrk_cpu.o
                                                  ../../../src/kernel/source/nrk_idle_task.o
                                                  ../../../src/kernel/source/nrk_task.o
nrk_idle_task                                     ../../../src/kernel/source/nrk_idle_task.o
                                                  ../../../src/kernel/source/nrk.o
nrk_idle_task_stk                                 ../../../src/kernel/hal/atmega128rfa1/nrk_cpu.o
                                                  ../../../src/kernel/hal/atmega128rfa1/nrk_watchdog.o
                                                  ../../../src/kernel/hal/atmega128rfa1/nrk_timer.o
                                                  ../../../src/kernel/source/nrk_sw_wdt.o
                                                  ../../../src/kernel/source/nrk_driver.o
                                                  ../../../src/kernel/source/nrk_scheduler.o
                                                  ../../../src/kernel/source/nrk_idle_task.o
                                                  ../../../src/kernel/source/nrk_time.o
                                                  ../../../src/kernel/source/nrk_task.o
                                                  ../../../src/kernel/source/nrk_events.o
                                                  ../../../src/kernel/source/nrk_stack_check.o
                                                  ../../../src/kernel/source/nrk_error.o
                                                  ../../../src/kernel/source/nrk_stats.o
                                                  ../../../src/kernel/source/nrk.o
                                                  ../../../src/radio/rf231_soc/source/basic_rf.o
                                                  ../../../src/drivers/platform/MARS/source/HMC5883L.o
                                                  ../../../src/drivers/platform/MARS/source/ITG3200.o
                                                  ../../../src/drivers/platform/MARS/source/ADXL345.o
                                                  main.o
nrk_init                                          ../../../src/kernel/source/nrk.o
                                                  main.o
nrk_int_disable                                   ../../../src/kernel/source/nrk.o
                                                  ../../../src/kernel/hal/atmega128rfa1/nrk_watchdog.o
                                                  ../../../src/kernel/source/nrk_scheduler.o
                                                  ../../../src/kernel/source/nrk_task.o
                                                  ../../../src/kernel/source/nrk_events.o
                                                  ../../../src/kernel/source/nrk_error.o
nrk_int_enable                                    ../../../src/kernel/source/nrk.o
                                                  ../../../src/kernel/hal/atmega128rfa1/nrk_cpu.o
                                                  ../../../src/kernel/hal/atmega128rfa1/nrk_watchdog.o
                                                  ../../../src/kernel/source/nrk_task.o
                                                  ../../../src/kernel/source/nrk_events.o
nrk_kernel_error_add                              ../../../src/kernel/source/nrk_error.o
                                                  ../../../src/kernel/hal/atmega128rfa1/nrk_ext_int.o
                                                  ../../../src/kernel/hal/atmega128rfa1/nrk_timer.o
                                                  ../../../src/kernel/source/nrk_scheduler.o
                                                  ../../../src/kernel/source/nrk.o
nrk_kernel_stk_ptr                                ../../../src/kernel/hal/atmega128rfa1/nrk_cpu.o
                                                  ../../../src/kernel/hal/atmega128rfa1/nrk_watchdog.o
                                                  ../../../src/kernel/hal/atmega128rfa1/nrk_timer.o
                                                  ../../../src/kernel/source/nrk_sw_wdt.o
                                                  ../../../src/kernel/source/nrk_driver.o
                                                  ../../../src/kernel/source/nrk_scheduler.o
                                                  ../../../src/kernel/source/nrk_idle_task.o
                                                  ../../../src/kernel/source/nrk_time.o
                                                  ../../../src/kernel/source/nrk_task.o
                                                  ../../../src/kernel/source/nrk_events.o
                                                  ../../../src/kernel/source/nrk_stack_check.o
                                                  ../../../src/kernel/source/nrk_error.o
                                                  ../../../src/kernel/source/nrk_stats.o
                                                  ../../../src/kernel/source/nrk.o
                                                  ../../../src/radio/rf231_soc/source/basic_rf.o
                                                  ../../../src/drivers/platform/MARS/source/HMC5883L.o
                                                  ../../../src/drivers/platform/MARS/source/ITG3200.o
                                                  ../../../src/drivers/platform/MARS/source/ADXL345.o
                                                  main.o
nrk_kprintf                                       ../../../src/platform/MARS/source/ulib.o
                                                  ../../../src/kernel/source/nrk_stack_check.o
                                                  ../../../src/kernel/source/nrk_error.o
                                                  ../../../src/drivers/platform/MARS/source/HMC5883L.o
                                                  ../../../src/drivers/platform/MARS/source/ITG3200.o
                                                  ../../../src/drivers/platform/MARS/source/ADXL345.o
                                                  main.o
nrk_led_clr                                       ../../../src/platform/MARS/source/ulib.o
                                                  ../../../src/kernel/source/nrk_error.o
                                                  main.o
nrk_led_set                                       ../../../src/platform/MARS/source/ulib.o
                                                  ../../../src/kernel/source/nrk_error.o
nrk_led_toggle                                    ../../../src/platform/MARS/source/ulib.o
                                                  main.o
nrk_open                                          ../../../src/kernel/source/nrk_driver.o
nrk_print_readyQ                                  ../../../src/kernel/source/nrk_task.o
nrk_read                                          ../../../src/kernel/source/nrk_driver.o
nrk_register_driver                               ../../../src/kernel/source/nrk_driver.o
nrk_rem_from_readyQ                               ../../../src/kernel/source/nrk_task.o
                                                  ../../../src/kernel/source/nrk_scheduler.o
nrk_sem_create                                    ../../../src/kernel/source/nrk_events.o
nrk_sem_delete                                    ../../../src/kernel/source/nrk_events.o
nrk_sem_list                                      ../../../src/kernel/hal/atmega128rfa1/nrk_cpu.o
                                                  ../../../src/kernel/source/nrk_scheduler.o
                                                  ../../../src/kernel/source/nrk_events.o
                                                  ../../../src/kernel/source/nrk_stats.o
                                                  ../../../src/kernel/source/nrk.o
nrk_sem_pend                                      ../../../src/kernel/source/nrk_events.o
nrk_sem_post                                      ../../../src/kernel/source/nrk_events.o
nrk_sem_query                                     ../../../src/kernel/source/nrk_events.o
nrk_set_next_wakeup                               ../../../src/kernel/source/nrk_task.o
nrk_set_status                                    ../../../src/kernel/source/nrk_driver.o
nrk_setup_ports                                   ../../../src/platform/MARS/source/ulib.o
                                                  main.o
nrk_setup_uart                                    ../../../src/platform/MARS/source/ulib.o
                                                  main.o
nrk_signal_create                                 ../../../src/kernel/source/nrk_events.o
                                                  ../../../src/kernel/source/nrk.o
nrk_signal_delete                                 ../../../src/kernel/source/nrk_events.o
nrk_signal_get_registered_mask                    ../../../src/kernel/source/nrk_events.o
nrk_signal_register                               ../../../src/kernel/source/nrk_events.o
nrk_signal_unregister                             ../../../src/kernel/source/nrk_events.o
nrk_sleep                                         ../../../src/kernel/hal/atmega128rfa1/nrk_cpu.o
                                                  ../../../src/kernel/source/nrk_idle_task.o
nrk_spin_wait_us                                  ../../../src/kernel/hal/atmega128rfa1/nrk_timer.o
                                                  ../../../src/kernel/source/nrk_idle_task.o
                                                  ../../../src/kernel/source/nrk_error.o
nrk_stack_check                                   ../../../src/kernel/source/nrk_stack_check.o
                                                  ../../../src/kernel/source/nrk_idle_task.o
                                                  ../../../src/kernel/source/nrk_task.o
nrk_stack_check_pid                               ../../../src/kernel/source/nrk_stack_check.o
nrk_stack_pointer_init                            ../../../src/kernel/hal/atmega128rfa1/nrk_cpu.o
                                                  ../../../src/kernel/source/nrk.o
nrk_stack_pointer_restore                         ../../../src/kernel/hal/atmega128rfa1/nrk_cpu.o
                                                  ../../../src/kernel/source/nrk_scheduler.o
nrk_start                                         ../../../src/kernel/source/nrk.o
                                                  main.o
nrk_start_high_ready_task                         ../../../src/kernel/hal/atmega128rfa1/atmel_hw_specific.o
                                                  ../../../src/kernel/source/nrk_scheduler.o
                                                  ../../../src/kernel/source/nrk.o
nrk_system_time                                   ../../../src/kernel/hal/atmega128rfa1/nrk_cpu.o
                                                  ../../../src/kernel/source/nrk_scheduler.o
                                                  ../../../src/kernel/source/nrk_time.o
                                                  ../../../src/kernel/source/nrk_events.o
                                                  ../../../src/kernel/source/nrk_stats.o
                                                  ../../../src/kernel/source/nrk.o
nrk_target_start                                  ../../../src/kernel/hal/atmega128rfa1/nrk_cpu.o
                                                  ../../../src/kernel/source/nrk.o
nrk_task_TCB                                      ../../../src/kernel/hal/atmega128rfa1/nrk_cpu.o
                                                  ../../../src/kernel/source/nrk_scheduler.o
                                                  ../../../src/kernel/source/nrk_task.o
                                                  ../../../src/kernel/source/nrk_events.o
                                                  ../../../src/kernel/source/nrk_stack_check.o
                                                  ../../../src/kernel/source/nrk_stats.o
                                                  ../../../src/kernel/source/nrk.o
nrk_task_init_cnt                                 ../../../src/kernel/source/nrk.o
nrk_task_set_entry_function                       ../../../src/kernel/hal/atmega128rfa1/nrk_cpu.o
                                                  ../../../src/kernel/source/nrk.o
nrk_task_set_stk                                  ../../../src/kernel/hal/atmega128rfa1/nrk_cpu.o
                                                  ../../../src/kernel/source/nrk.o
                                                  main.o
nrk_task_stk_init                                 ../../../src/kernel/hal/atmega128rfa1/nrk_cpu.o
                                                  ../../../src/kernel/source/nrk_task.o
nrk_terminate_task                                ../../../src/kernel/source/nrk_task.o
nrk_time_add                                      ../../../src/kernel/source/nrk_time.o
nrk_time_compact_nanos                            ../../../src/kernel/source/nrk_time.o
                                                  ../../../src/radio/rf231_soc/source/basic_rf.o
nrk_time_get                                      ../../../src/kernel/source/nrk_time.o
                                                  ../../../src/kernel/source/nrk_task.o
                                                  ../../../src/radio/rf231_soc/source/basic_rf.o
nrk_time_set                                      ../../../src/kernel/source/nrk_time.o
                                                  main.o
nrk_time_sub                                      ../../../src/kernel/source/nrk_time.o
                                                  ../../../src/kernel/source/nrk_task.o
                                                  ../../../src/radio/rf231_soc/source/basic_rf.o
nrk_timer_int_configure                           ../../../src/kernel/hal/atmega128rfa1/nrk_timer.o
nrk_timer_int_read                                ../../../src/kernel/hal/atmega128rfa1/nrk_timer.o
nrk_timer_int_reset                               ../../../src/kernel/hal/atmega128rfa1/nrk_timer.o
nrk_timer_int_start                               ../../../src/kernel/hal/atmega128rfa1/nrk_timer.o
nrk_timer_int_stop                                ../../../src/kernel/hal/atmega128rfa1/nrk_timer.o
nrk_uart_data_ready                               ../../../src/platform/MARS/source/ulib.o
nrk_uart_rx_signal_get                            ../../../src/platform/MARS/source/ulib.o
nrk_version                                       ../../../src/kernel/source/nrk.o
nrk_wait                                          ../../../src/kernel/source/nrk_task.o
                                                  ../../../src/drivers/platform/MARS/source/ITG3200.o
nrk_wait_ticks                                    ../../../src/kernel/source/nrk_task.o
nrk_wait_until                                    ../../../src/kernel/source/nrk_task.o
nrk_wait_until_next_n_periods                     ../../../src/kernel/source/nrk_task.o
nrk_wait_until_next_period                        ../../../src/kernel/source/nrk_task.o
                                                  main.o
nrk_wait_until_nw                                 ../../../src/kernel/source/nrk_task.o
                                                  ../../../src/kernel/source/nrk_events.o
nrk_wait_until_ticks                              ../../../src/kernel/source/nrk_task.o
                                                  ../../../src/kernel/source/nrk_events.o
nrk_wakeup_signal                                 ../../../src/kernel/hal/atmega128rfa1/nrk_cpu.o
                                                  ../../../src/kernel/source/nrk_scheduler.o
                                                  ../../../src/kernel/source/nrk_events.o
                                                  ../../../src/kernel/source/nrk_stats.o
                                                  ../../../src/kernel/source/nrk.o
nrk_watchdog_check                                ../../../src/kernel/hal/atmega128rfa1/nrk_watchdog.o
nrk_watchdog_disable                              ../../../src/kernel/hal/atmega128rfa1/nrk_watchdog.o
nrk_watchdog_enable                               ../../../src/kernel/hal/atmega128rfa1/nrk_watchdog.o
nrk_watchdog_reset                                ../../../src/kernel/hal/atmega128rfa1/nrk_watchdog.o
nrk_write                                         ../../../src/kernel/source/nrk_driver.o
offsets                                           ../../../src/drivers/platform/MARS/source/ITG3200.o
                                                  main.o
onReceive                                         ../../../src/drivers/platform/MARS/source/Wire.o
onRequest                                         ../../../src/drivers/platform/MARS/source/Wire.o
pause                                             ../../../src/kernel/source/nrk_error.o
pc_int0_callback                                  ../../../src/kernel/hal/atmega128rfa1/nrk_ext_int.o
printf                                            /opt/local/lib/gcc/avr/4.6.2/../../../../avr/lib/avr51/libc.a(printf.o)
                                                  ../../../src/kernel/source/nrk_stack_check.o
                                                  ../../../src/kernel/source/nrk_error.o
                                                  main.o
putc0                                             ../../../src/platform/MARS/source/ulib.o
putc1                                             ../../../src/platform/MARS/source/ulib.o
puts                                              /opt/local/lib/gcc/avr/4.6.2/../../../../avr/lib/avr51/libc.a(puts.o)
                                                  ../../../src/drivers/platform/MARS/source/ADXL345.o
                                                  main.o
radio_sem                                         ../../../src/radio/rf231_soc/source/basic_rf.o
readTemp                                          ../../../src/drivers/platform/MARS/source/ITG3200.o
read_eeprom_aes_key                               ../../../src/platform/MARS/source/nrk_eeprom.o
read_eeprom_channel                               ../../../src/platform/MARS/source/nrk_eeprom.o
read_eeprom_current_image_checksum                ../../../src/platform/MARS/source/nrk_eeprom.o
read_eeprom_load_img_pages                        ../../../src/platform/MARS/source/nrk_eeprom.o
read_eeprom_mac_address                           ../../../src/platform/MARS/source/nrk_eeprom.o
read_gyro_raw_cal_xyz_one_ptr                     ../../../src/drivers/platform/MARS/source/ITG3200.o
read_gyro_raw_cal_xyz_three_ptr                   ../../../src/drivers/platform/MARS/source/ITG3200.o
read_gyro_raw_xyz_one_ptr                         ../../../src/drivers/platform/MARS/source/ITG3200.o
read_gyro_raw_xyz_three_ptr                       ../../../src/drivers/platform/MARS/source/ITG3200.o
read_gyro_xyz_one_ptr                             ../../../src/drivers/platform/MARS/source/ITG3200.o
                                                  main.o
read_gyro_xyz_three_ptr                           ../../../src/drivers/platform/MARS/source/ITG3200.o
read_magneto_raw_axis                             ../../../src/drivers/platform/MARS/source/HMC5883L.o
read_magneto_scaled_axis                          ../../../src/drivers/platform/MARS/source/HMC5883L.o
readmem                                           ../../../src/drivers/platform/MARS/source/ITG3200.o
receive                                           ../../../src/drivers/platform/MARS/source/Wire.o
                                                  ../../../src/drivers/platform/MARS/source/HMC5883L.o
                                                  ../../../src/drivers/platform/MARS/source/ITG3200.o
                                                  ../../../src/drivers/platform/MARS/source/ADXL345.o
requestFrom_2int                                  ../../../src/drivers/platform/MARS/source/Wire.o
                                                  ../../../src/drivers/platform/MARS/source/HMC5883L.o
                                                  ../../../src/drivers/platform/MARS/source/ADXL345.o
requestFrom_2uint8                                ../../../src/drivers/platform/MARS/source/Wire.o
                                                  ../../../src/drivers/platform/MARS/source/ITG3200.o
reset                                             ../../../src/drivers/platform/MARS/source/ITG3200.o
rfSettings                                        ../../../src/radio/rf231_soc/source/basic_rf.o
rf_addr_decode_disable                            ../../../src/radio/rf231_soc/source/basic_rf.o
rf_addr_decode_enable                             ../../../src/radio/rf231_soc/source/basic_rf.o
rf_addr_decode_set_my_mac                         ../../../src/radio/rf231_soc/source/basic_rf.o
rf_auto_ack_disable                               ../../../src/radio/rf231_soc/source/basic_rf.o
rf_auto_ack_enable                                ../../../src/radio/rf231_soc/source/basic_rf.o
rf_busy                                           ../../../src/radio/rf231_soc/source/basic_rf.o
rf_carrier_off                                    ../../../src/radio/rf231_soc/source/basic_rf.o
rf_carrier_on                                     ../../../src/radio/rf231_soc/source/basic_rf.o
rf_cca_check                                      ../../../src/radio/rf231_soc/source/basic_rf.o
rf_data_mode                                      ../../../src/radio/rf231_soc/source/basic_rf.o
rf_flush_rx_fifo                                  ../../../src/radio/rf231_soc/source/basic_rf.o
rf_get_sem                                        ../../../src/radio/rf231_soc/source/basic_rf.o
rf_init                                           ../../../src/radio/rf231_soc/source/basic_rf.o
rf_polling_rx_on                                  ../../../src/radio/rf231_soc/source/basic_rf.o
rf_power_down                                     ../../../src/radio/rf231_soc/source/basic_rf.o
rf_power_up                                       ../../../src/radio/rf231_soc/source/basic_rf.o
rf_ready                                          ../../../src/radio/rf231_soc/source/basic_rf.o
rf_rx_check_fifop                                 ../../../src/radio/rf231_soc/source/basic_rf.o
rf_rx_check_sfd                                   ../../../src/radio/rf231_soc/source/basic_rf.o
rf_rx_off                                         ../../../src/radio/rf231_soc/source/basic_rf.o
rf_rx_on                                          ../../../src/radio/rf231_soc/source/basic_rf.o
rf_rx_packet                                      ../../../src/radio/rf231_soc/source/basic_rf.o
rf_rx_packet_nonblock                             ../../../src/radio/rf231_soc/source/basic_rf.o
rf_rx_set_serial                                  ../../../src/radio/rf231_soc/source/basic_rf.o
rf_security_disable                               ../../../src/radio/rf231_soc/source/basic_rf.o
rf_security_last_pkt_status                       ../../../src/radio/rf231_soc/source/basic_rf.o
rf_security_set_ctr_counter                       ../../../src/radio/rf231_soc/source/basic_rf.o
rf_security_set_key                               ../../../src/radio/rf231_soc/source/basic_rf.o
rf_set_cca_mode                                   ../../../src/radio/rf231_soc/source/basic_rf.o
rf_set_cca_thresh                                 ../../../src/radio/rf231_soc/source/basic_rf.o
rf_set_preamble_length                            ../../../src/radio/rf231_soc/source/basic_rf.o
rf_set_rx                                         ../../../src/radio/rf231_soc/source/basic_rf.o
rf_test_mode                                      ../../../src/radio/rf231_soc/source/basic_rf.o
rf_tx_packet                                      ../../../src/radio/rf231_soc/source/basic_rf.o
rf_tx_packet_repeat                               ../../../src/radio/rf231_soc/source/basic_rf.o
rf_tx_power                                       ../../../src/radio/rf231_soc/source/basic_rf.o
rf_tx_set_serial                                  ../../../src/radio/rf231_soc/source/basic_rf.o
rf_tx_tdma_packet                                 ../../../src/radio/rf231_soc/source/basic_rf.o
rxBuffer                                          ../../../src/drivers/platform/MARS/source/Wire.o
rxBufferIndex                                     ../../../src/drivers/platform/MARS/source/Wire.o
rxBufferLength                                    ../../../src/drivers/platform/MARS/source/Wire.o
rx_ctr                                            ../../../src/radio/rf231_soc/source/basic_rf.o
rx_ready                                          ../../../src/radio/rf231_soc/source/basic_rf.o
rx_start_callback                                 ../../../src/radio/rf231_soc/source/basic_rf.o
rx_start_func                                     ../../../src/radio/rf231_soc/source/basic_rf.o
scalefactor                                       ../../../src/drivers/platform/MARS/source/ITG3200.o
                                                  main.o
send_char                                         ../../../src/drivers/platform/MARS/source/Wire.o
send_int                                          ../../../src/drivers/platform/MARS/source/Wire.o
                                                  ../../../src/drivers/platform/MARS/source/HMC5883L.o
                                                  ../../../src/drivers/platform/MARS/source/ADXL345.o
send_uint8                                        ../../../src/drivers/platform/MARS/source/Wire.o
                                                  ../../../src/drivers/platform/MARS/source/ITG3200.o
send_uint8st_uint8                                ../../../src/drivers/platform/MARS/source/Wire.o
setClockSource                                    ../../../src/drivers/platform/MARS/source/ITG3200.o
setDoubleTapLatency                               ../../../src/drivers/platform/MARS/source/ADXL345.o
setDoubleTapWindow                                ../../../src/drivers/platform/MARS/source/ADXL345.o
setINTDriveType                                   ../../../src/drivers/platform/MARS/source/ITG3200.o
setITGReady                                       ../../../src/drivers/platform/MARS/source/ITG3200.o
setInterrupt                                      ../../../src/drivers/platform/MARS/source/ADXL345.o
setInterruptMapping                               ../../../src/drivers/platform/MARS/source/ADXL345.o
setLatchClearMode                                 ../../../src/drivers/platform/MARS/source/ITG3200.o
setLatchMode                                      ../../../src/drivers/platform/MARS/source/ITG3200.o
setOffsets                                        ../../../src/drivers/platform/MARS/source/ITG3200.o
setPowerMode                                      ../../../src/drivers/platform/MARS/source/ITG3200.o
setRawDataReady                                   ../../../src/drivers/platform/MARS/source/ITG3200.o
setRegisterBit                                    ../../../src/drivers/platform/MARS/source/ADXL345.o
setScaleFactor                                    ../../../src/drivers/platform/MARS/source/ITG3200.o
setTapDetectionOnX                                ../../../src/drivers/platform/MARS/source/ADXL345.o
setTapDetectionOnY                                ../../../src/drivers/platform/MARS/source/ADXL345.o
setTapDetectionOnZ                                ../../../src/drivers/platform/MARS/source/ADXL345.o
setTapDuration                                    ../../../src/drivers/platform/MARS/source/ADXL345.o
setTapThreshold                                   ../../../src/drivers/platform/MARS/source/ADXL345.o
setXgyroStandby                                   ../../../src/drivers/platform/MARS/source/ITG3200.o
setYgyroStandby                                   ../../../src/drivers/platform/MARS/source/ITG3200.o
setZgyroStandby                                   ../../../src/drivers/platform/MARS/source/ITG3200.o
set_gyro_FS_range                                 ../../../src/drivers/platform/MARS/source/ITG3200.o
set_gyro_INT_Logic_lvl                            ../../../src/drivers/platform/MARS/source/ITG3200.o
set_gyro_addr                                     ../../../src/drivers/platform/MARS/source/ITG3200.o
set_gyro_filter_BW                                ../../../src/drivers/platform/MARS/source/ITG3200.o
set_gyro_sample_rate_div                          ../../../src/drivers/platform/MARS/source/ITG3200.o
set_mag_data_rate_75_Hz_max                       ../../../src/drivers/platform/MARS/source/HMC5883L.o
set_mag_measurement_mode                          ../../../src/drivers/platform/MARS/source/HMC5883L.o
set_mag_scale                                     ../../../src/drivers/platform/MARS/source/HMC5883L.o
set_up_ADXL345                                    ../../../src/drivers/platform/MARS/source/ADXL345.o
                                                  main.o
set_up_HMC5883L                                   ../../../src/drivers/platform/MARS/source/HMC5883L.o
                                                  main.o
set_up_ITG3200                                    ../../../src/drivers/platform/MARS/source/ITG3200.o
                                                  main.o
setup_uart0                                       ../../../src/platform/MARS/source/ulib.o
setup_uart1                                       ../../../src/platform/MARS/source/ulib.o
sprintf                                           /opt/local/lib/gcc/avr/4.6.2/../../../../avr/lib/avr51/libc.a(sprintf.o)
                                                  ../../../src/kernel/source/nrk_error.o
square                                            /opt/local/lib/gcc/avr/4.6.2/../../../../avr/lib/avr51/libm.a(square.o)
                                                  /opt/local/lib/gcc/avr/4.6.2/../../../../avr/lib/avr51/libm.a(atan.o)
strchr_P                                          /opt/local/lib/gcc/avr/4.6.2/../../../../avr/lib/avr51/libc.a(strchr_P.o)
                                                  /opt/local/lib/gcc/avr/4.6.2/../../../../avr/lib/avr51/libprintf_min.a(vfprintf_min.o)
success                                           main.o
t                                                 ../../../src/kernel/source/nrk_scheduler.o
target_t                                          ../../../src/radio/rf231_soc/source/basic_rf.o
transmitting                                      ../../../src/drivers/platform/MARS/source/Wire.o
triggered                                         ../../../src/drivers/platform/MARS/source/ADXL345.o
twi_attachSlaveRxEvent                            ../../../src/drivers/platform/MARS/source/twi.o
                                                  ../../../src/drivers/platform/MARS/source/Wire.o
twi_attachSlaveTxEvent                            ../../../src/drivers/platform/MARS/source/twi.o
                                                  ../../../src/drivers/platform/MARS/source/Wire.o
twi_init                                          ../../../src/drivers/platform/MARS/source/twi.o
                                                  ../../../src/drivers/platform/MARS/source/Wire.o
twi_readFrom                                      ../../../src/drivers/platform/MARS/source/twi.o
                                                  ../../../src/drivers/platform/MARS/source/Wire.o
twi_releaseBus                                    ../../../src/drivers/platform/MARS/source/twi.o
twi_reply                                         ../../../src/drivers/platform/MARS/source/twi.o
twi_setAddress                                    ../../../src/drivers/platform/MARS/source/twi.o
                                                  ../../../src/drivers/platform/MARS/source/Wire.o
twi_stop                                          ../../../src/drivers/platform/MARS/source/twi.o
twi_transmit                                      ../../../src/drivers/platform/MARS/source/twi.o
                                                  ../../../src/drivers/platform/MARS/source/Wire.o
twi_writeTo                                       ../../../src/drivers/platform/MARS/source/twi.o
                                                  ../../../src/drivers/platform/MARS/source/Wire.o
txAddress                                         ../../../src/drivers/platform/MARS/source/Wire.o
txBuffer                                          ../../../src/drivers/platform/MARS/source/Wire.o
txBufferIndex                                     ../../../src/drivers/platform/MARS/source/Wire.o
txBufferLength                                    ../../../src/drivers/platform/MARS/source/Wire.o
tx_ctr                                            ../../../src/radio/rf231_soc/source/basic_rf.o
tx_done                                           ../../../src/radio/rf231_soc/source/basic_rf.o
user_onReceive                                    ../../../src/drivers/platform/MARS/source/Wire.o
user_onRequest                                    ../../../src/drivers/platform/MARS/source/Wire.o
vfprintf                                          /opt/local/lib/gcc/avr/4.6.2/../../../../avr/lib/avr51/libprintf_min.a(vfprintf_min.o)
                                                  /opt/local/lib/gcc/avr/4.6.2/../../../../avr/lib/avr51/libc.a(sprintf.o)
                                                  /opt/local/lib/gcc/avr/4.6.2/../../../../avr/lib/avr51/libc.a(printf.o)
write_eeprom_aes_key                              ../../../src/platform/MARS/source/nrk_eeprom.o
write_eeprom_current_image_checksum               ../../../src/platform/MARS/source/nrk_eeprom.o
write_eeprom_load_img_pages                       ../../../src/platform/MARS/source/nrk_eeprom.o
writemem                                          ../../../src/drivers/platform/MARS/source/ITG3200.o
