
HelloWorld.elf:     file format elf32-littlearm


Disassembly of section .text:

00000000 <__Vectors>:
       0:	00 80 00 10 39 04 00 00 41 04 00 00 43 04 00 00     ....9...A...C...
      10:	45 04 00 00 47 04 00 00 49 04 00 00 00 00 00 00     E...G...I.......
	...
      2c:	4b 04 00 00 4d 04 00 00 00 00 00 00 4f 04 00 00     K...M.......O...
      3c:	51 04 00 00 53 04 00 00 53 04 00 00 53 04 00 00     Q...S...S...S...
      4c:	53 04 00 00 53 04 00 00 53 04 00 00 53 04 00 00     S...S...S...S...
      5c:	53 04 00 00 53 04 00 00 53 04 00 00 53 04 00 00     S...S...S...S...
      6c:	53 04 00 00 53 04 00 00 53 04 00 00 53 04 00 00     S...S...S...S...
      7c:	53 04 00 00 53 04 00 00 53 04 00 00 53 04 00 00     S...S...S...S...
      8c:	53 04 00 00 53 04 00 00 53 04 00 00 53 04 00 00     S...S...S...S...
      9c:	53 04 00 00 53 04 00 00 53 04 00 00 53 04 00 00     S...S...S...S...
      ac:	53 04 00 00 53 04 00 00 53 04 00 00 53 04 00 00     S...S...S...S...
      bc:	53 04 00 00 53 04 00 00                             S...S...

000000c4 <__main>:
      c4:	4839      	ldr	r0, [pc, #228]	; (1ac <__main+0xe8>)
      c6:	493a      	ldr	r1, [pc, #232]	; (1b0 <__main+0xec>)
      c8:	b570      	push	{r4, r5, r6, lr}
      ca:	4288      	cmp	r0, r1
      cc:	d023      	beq.n	116 <__main+0x52>
      ce:	4c39      	ldr	r4, [pc, #228]	; (1b4 <__main+0xf0>)
      d0:	42a1      	cmp	r1, r4
      d2:	d220      	bcs.n	116 <__main+0x52>
      d4:	4602      	mov	r2, r0
      d6:	f852 6b04 	ldr.w	r6, [r2], #4
      da:	460b      	mov	r3, r1
      dc:	43cd      	mvns	r5, r1
      de:	f843 6b04 	str.w	r6, [r3], #4
      e2:	1965      	adds	r5, r4, r5
      e4:	42a3      	cmp	r3, r4
      e6:	f3c5 0580 	ubfx	r5, r5, #2, #1
      ea:	d214      	bcs.n	116 <__main+0x52>
      ec:	b13d      	cbz	r5, fe <__main+0x3a>
      ee:	6816      	ldr	r6, [r2, #0]
      f0:	f100 0208 	add.w	r2, r0, #8
      f4:	601e      	str	r6, [r3, #0]
      f6:	f101 0308 	add.w	r3, r1, #8
      fa:	42a3      	cmp	r3, r4
      fc:	d20b      	bcs.n	116 <__main+0x52>
      fe:	4610      	mov	r0, r2
     100:	f850 5b04 	ldr.w	r5, [r0], #4
     104:	4619      	mov	r1, r3
     106:	f841 5b04 	str.w	r5, [r1], #4
     10a:	6856      	ldr	r6, [r2, #4]
     10c:	1d02      	adds	r2, r0, #4
     10e:	605e      	str	r6, [r3, #4]
     110:	1d0b      	adds	r3, r1, #4
     112:	42a3      	cmp	r3, r4
     114:	d3f3      	bcc.n	fe <__main+0x3a>
     116:	4828      	ldr	r0, [pc, #160]	; (1b8 <__main+0xf4>)
     118:	4928      	ldr	r1, [pc, #160]	; (1bc <__main+0xf8>)
     11a:	4288      	cmp	r0, r1
     11c:	d024      	beq.n	168 <__main+0xa4>
     11e:	4c28      	ldr	r4, [pc, #160]	; (1c0 <__main+0xfc>)
     120:	42a1      	cmp	r1, r4
     122:	d221      	bcs.n	168 <__main+0xa4>
     124:	4602      	mov	r2, r0
     126:	f852 6b04 	ldr.w	r6, [r2], #4
     12a:	460b      	mov	r3, r1
     12c:	43cd      	mvns	r5, r1
     12e:	f843 6b04 	str.w	r6, [r3], #4
     132:	eb04 0c05 	add.w	ip, r4, r5
     136:	42a3      	cmp	r3, r4
     138:	f3cc 0580 	ubfx	r5, ip, #2, #1
     13c:	d214      	bcs.n	168 <__main+0xa4>
     13e:	b13d      	cbz	r5, 150 <__main+0x8c>
     140:	6815      	ldr	r5, [r2, #0]
     142:	f100 0208 	add.w	r2, r0, #8
     146:	601d      	str	r5, [r3, #0]
     148:	f101 0308 	add.w	r3, r1, #8
     14c:	42a3      	cmp	r3, r4
     14e:	d20b      	bcs.n	168 <__main+0xa4>
     150:	4610      	mov	r0, r2
     152:	f850 5b04 	ldr.w	r5, [r0], #4
     156:	4619      	mov	r1, r3
     158:	f841 5b04 	str.w	r5, [r1], #4
     15c:	6856      	ldr	r6, [r2, #4]
     15e:	1d02      	adds	r2, r0, #4
     160:	605e      	str	r6, [r3, #4]
     162:	1d0b      	adds	r3, r1, #4
     164:	42a3      	cmp	r3, r4
     166:	d3f3      	bcc.n	150 <__main+0x8c>
     168:	4a16      	ldr	r2, [pc, #88]	; (1c4 <__main+0x100>)
     16a:	4817      	ldr	r0, [pc, #92]	; (1c8 <__main+0x104>)
     16c:	4282      	cmp	r2, r0
     16e:	d216      	bcs.n	19e <__main+0xda>
     170:	2100      	movs	r1, #0
     172:	4613      	mov	r3, r2
     174:	43d6      	mvns	r6, r2
     176:	f843 1b04 	str.w	r1, [r3], #4
     17a:	1984      	adds	r4, r0, r6
     17c:	4283      	cmp	r3, r0
     17e:	f3c4 0480 	ubfx	r4, r4, #2, #1
     182:	d20c      	bcs.n	19e <__main+0xda>
     184:	b124      	cbz	r4, 190 <__main+0xcc>
     186:	6019      	str	r1, [r3, #0]
     188:	f102 0308 	add.w	r3, r2, #8
     18c:	4283      	cmp	r3, r0
     18e:	d206      	bcs.n	19e <__main+0xda>
     190:	461a      	mov	r2, r3
     192:	f842 1b04 	str.w	r1, [r2], #4
     196:	6059      	str	r1, [r3, #4]
     198:	1d13      	adds	r3, r2, #4
     19a:	4283      	cmp	r3, r0
     19c:	d3f8      	bcc.n	190 <__main+0xcc>
     19e:	f000 febf 	bl	f20 <__libc_init_array>
     1a2:	f000 f8f1 	bl	388 <main>
     1a6:	f005 faa7 	bl	56f8 <exit>
     1aa:	bf00      	nop
     1ac:	00005a90 	.word	0x00005a90
     1b0:	10000000 	.word	0x10000000
     1b4:	10000564 	.word	0x10000564
     1b8:	00005ff4 	.word	0x00005ff4
     1bc:	100005e8 	.word	0x100005e8
     1c0:	100005e8 	.word	0x100005e8
     1c4:	10000564 	.word	0x10000564
     1c8:	100005e8 	.word	0x100005e8

000001cc <SystemInit>:
     1cc:	481b      	ldr	r0, [pc, #108]	; (23c <SystemInit+0x70>)
     1ce:	2120      	movs	r1, #32
     1d0:	f8c0 11a0 	str.w	r1, [r0, #416]	; 0x1a0
     1d4:	f8d0 11a0 	ldr.w	r1, [r0, #416]	; 0x1a0
     1d8:	f011 0f40 	tst.w	r1, #64	; 0x40
     1dc:	d0fa      	beq.n	1d4 <SystemInit+0x8>
     1de:	2102      	movs	r1, #2
     1e0:	f8c0 1104 	str.w	r1, [r0, #260]	; 0x104
     1e4:	2101      	movs	r1, #1
     1e6:	f8c0 110c 	str.w	r1, [r0, #268]	; 0x10c
     1ea:	220b      	movs	r2, #11
     1ec:	f8c0 2084 	str.w	r2, [r0, #132]	; 0x84
     1f0:	f8c0 1080 	str.w	r1, [r0, #128]	; 0x80
     1f4:	22aa      	movs	r2, #170	; 0xaa
     1f6:	f8c0 208c 	str.w	r2, [r0, #140]	; 0x8c
     1fa:	2355      	movs	r3, #85	; 0x55
     1fc:	f8c0 308c 	str.w	r3, [r0, #140]	; 0x8c
     200:	f8d0 1088 	ldr.w	r1, [r0, #136]	; 0x88
     204:	f011 6f80 	tst.w	r1, #67108864	; 0x4000000
     208:	d0fa      	beq.n	200 <SystemInit+0x34>
     20a:	2103      	movs	r1, #3
     20c:	f8c0 1080 	str.w	r1, [r0, #128]	; 0x80
     210:	f8c0 208c 	str.w	r2, [r0, #140]	; 0x8c
     214:	f8c0 308c 	str.w	r3, [r0, #140]	; 0x8c
     218:	2105      	movs	r1, #5
     21a:	f8c0 1108 	str.w	r1, [r0, #264]	; 0x108
     21e:	2100      	movs	r1, #0
     220:	f8c0 11a8 	str.w	r1, [r0, #424]	; 0x1a8
     224:	f8c0 11ac 	str.w	r1, [r0, #428]	; 0x1ac
     228:	4a05      	ldr	r2, [pc, #20]	; (240 <SystemInit+0x74>)
     22a:	f8c0 20c4 	str.w	r2, [r0, #196]	; 0xc4
     22e:	f8c0 11c8 	str.w	r1, [r0, #456]	; 0x1c8
     232:	f243 013a 	movw	r1, #12346	; 0x303a
     236:	6001      	str	r1, [r0, #0]
     238:	4770      	bx	lr
     23a:	0000      	.short	0x0000
     23c:	400fc000 	.word	0x400fc000
     240:	042887de 	.word	0x042887de
	...

00000300 <__do_global_dtors_aux>:
     300:	f240 5364 	movw	r3, #1380	; 0x564
     304:	f2c1 0300 	movt	r3, #4096	; 0x1000
     308:	781a      	ldrb	r2, [r3, #0]
     30a:	b90a      	cbnz	r2, 310 <__do_global_dtors_aux+0x10>
     30c:	2001      	movs	r0, #1
     30e:	7018      	strb	r0, [r3, #0]
     310:	4770      	bx	lr
     312:	bf00      	nop

00000314 <frame_dummy>:
     314:	f240 5064 	movw	r0, #1380	; 0x564
     318:	f2c1 0000 	movt	r0, #4096	; 0x1000
     31c:	b508      	push	{r3, lr}
     31e:	6803      	ldr	r3, [r0, #0]
     320:	b12b      	cbz	r3, 32e <frame_dummy+0x1a>
     322:	f240 0300 	movw	r3, #0
     326:	f2c0 0300 	movt	r3, #0
     32a:	b103      	cbz	r3, 32e <frame_dummy+0x1a>
     32c:	4798      	blx	r3
     32e:	bd08      	pop	{r3, pc}

00000330 <_Z6togglePi>:
     330:	6801      	ldr	r1, [r0, #0]
     332:	f081 0301 	eor.w	r3, r1, #1
     336:	6003      	str	r3, [r0, #0]
     338:	4770      	bx	lr
     33a:	bf00      	nop

0000033c <_kill>:
     33c:	4b02      	ldr	r3, [pc, #8]	; (348 <_kill+0xc>)
     33e:	2216      	movs	r2, #22
     340:	601a      	str	r2, [r3, #0]
     342:	f04f 30ff 	mov.w	r0, #4294967295	; 0xffffffff
     346:	4770      	bx	lr
     348:	100005e4 	.word	0x100005e4

0000034c <_exit>:
     34c:	b508      	push	{r3, lr}
     34e:	f005 f9d3 	bl	56f8 <exit>
     352:	bf00      	nop

00000354 <_getpid>:
     354:	2001      	movs	r0, #1
     356:	4770      	bx	lr

00000358 <_sbrk>:
     358:	b570      	push	{r4, r5, r6, lr}
     35a:	4d09      	ldr	r5, [pc, #36]	; (380 <_sbrk+0x28>)
     35c:	4606      	mov	r6, r0
     35e:	682c      	ldr	r4, [r5, #0]
     360:	b14c      	cbz	r4, 376 <_sbrk+0x1e>
     362:	f005 f9bf 	bl	56e4 <__get_MSP>
     366:	19a3      	adds	r3, r4, r6
     368:	4283      	cmp	r3, r0
     36a:	d807      	bhi.n	37c <_sbrk+0x24>
     36c:	6829      	ldr	r1, [r5, #0]
     36e:	4620      	mov	r0, r4
     370:	198e      	adds	r6, r1, r6
     372:	602e      	str	r6, [r5, #0]
     374:	bd70      	pop	{r4, r5, r6, pc}
     376:	4c03      	ldr	r4, [pc, #12]	; (384 <_sbrk+0x2c>)
     378:	602c      	str	r4, [r5, #0]
     37a:	e7f2      	b.n	362 <_sbrk+0xa>
     37c:	f000 fda8 	bl	ed0 <abort>
     380:	10000568 	.word	0x10000568
     384:	100005e8 	.word	0x100005e8

00000388 <main>:
     388:	b538      	push	{r3, r4, r5, lr}
     38a:	4d14      	ldr	r5, [pc, #80]	; (3dc <main+0x54>)
     38c:	4c14      	ldr	r4, [pc, #80]	; (3e0 <main+0x58>)
     38e:	e00e      	b.n	3ae <main+0x26>
     390:	619a      	str	r2, [r3, #24]
     392:	4814      	ldr	r0, [pc, #80]	; (3e4 <main+0x5c>)
     394:	f005 fa0c 	bl	57b0 <wait>
     398:	4810      	ldr	r0, [pc, #64]	; (3dc <main+0x54>)
     39a:	f7ff ffc9 	bl	330 <_Z6togglePi>
     39e:	6828      	ldr	r0, [r5, #0]
     3a0:	6963      	ldr	r3, [r4, #20]
     3a2:	69a2      	ldr	r2, [r4, #24]
     3a4:	b1b8      	cbz	r0, 3d6 <main+0x4e>
     3a6:	619a      	str	r2, [r3, #24]
     3a8:	480e      	ldr	r0, [pc, #56]	; (3e4 <main+0x5c>)
     3aa:	f005 fa01 	bl	57b0 <wait>
     3ae:	480b      	ldr	r0, [pc, #44]	; (3dc <main+0x54>)
     3b0:	f7ff ffbe 	bl	330 <_Z6togglePi>
     3b4:	6829      	ldr	r1, [r5, #0]
     3b6:	6963      	ldr	r3, [r4, #20]
     3b8:	69a2      	ldr	r2, [r4, #24]
     3ba:	2900      	cmp	r1, #0
     3bc:	d1e8      	bne.n	390 <main+0x8>
     3be:	61da      	str	r2, [r3, #28]
     3c0:	4808      	ldr	r0, [pc, #32]	; (3e4 <main+0x5c>)
     3c2:	f005 f9f5 	bl	57b0 <wait>
     3c6:	4805      	ldr	r0, [pc, #20]	; (3dc <main+0x54>)
     3c8:	f7ff ffb2 	bl	330 <_Z6togglePi>
     3cc:	6828      	ldr	r0, [r5, #0]
     3ce:	6963      	ldr	r3, [r4, #20]
     3d0:	69a2      	ldr	r2, [r4, #24]
     3d2:	2800      	cmp	r0, #0
     3d4:	d1e7      	bne.n	3a6 <main+0x1e>
     3d6:	61da      	str	r2, [r3, #28]
     3d8:	e7e6      	b.n	3a8 <main+0x20>
     3da:	bf00      	nop
     3dc:	10000004 	.word	0x10000004
     3e0:	1000056c 	.word	0x1000056c
     3e4:	3e4ccccd 	.word	0x3e4ccccd

000003e8 <_GLOBAL__I_myled>:
     3e8:	e92d 41f0 	stmdb	sp!, {r4, r5, r6, r7, r8, lr}
     3ec:	4f0c      	ldr	r7, [pc, #48]	; (420 <_GLOBAL__I_myled+0x38>)
     3ee:	4d0d      	ldr	r5, [pc, #52]	; (424 <_GLOBAL__I_myled+0x3c>)
     3f0:	4c0d      	ldr	r4, [pc, #52]	; (428 <_GLOBAL__I_myled+0x40>)
     3f2:	2200      	movs	r2, #0
     3f4:	4e0d      	ldr	r6, [pc, #52]	; (42c <_GLOBAL__I_myled+0x44>)
     3f6:	490e      	ldr	r1, [pc, #56]	; (430 <_GLOBAL__I_myled+0x48>)
     3f8:	4638      	mov	r0, r7
     3fa:	f004 ff99 	bl	5330 <_ZN4mbed10DigitalOutC1E7PinNamePKc>
     3fe:	4629      	mov	r1, r5
     400:	4622      	mov	r2, r4
     402:	4638      	mov	r0, r7
     404:	f000 f82a 	bl	45c <__aeabi_atexit>
     408:	2200      	movs	r2, #0
     40a:	4630      	mov	r0, r6
     40c:	4909      	ldr	r1, [pc, #36]	; (434 <_GLOBAL__I_myled+0x4c>)
     40e:	f004 ff8f 	bl	5330 <_ZN4mbed10DigitalOutC1E7PinNamePKc>
     412:	4630      	mov	r0, r6
     414:	4629      	mov	r1, r5
     416:	4622      	mov	r2, r4
     418:	e8bd 41f0 	ldmia.w	sp!, {r4, r5, r6, r7, r8, lr}
     41c:	f000 b81e 	b.w	45c <__aeabi_atexit>
     420:	1000056c 	.word	0x1000056c
     424:	0000536d 	.word	0x0000536d
     428:	10000000 	.word	0x10000000
     42c:	10000588 	.word	0x10000588
     430:	2009c032 	.word	0x2009c032
     434:	2009c034 	.word	0x2009c034

00000438 <Reset_Handler>:
     438:	4806      	ldr	r0, [pc, #24]	; (454 <ADC_IRQHandler+0x2>)
     43a:	4780      	blx	r0
     43c:	4806      	ldr	r0, [pc, #24]	; (458 <ADC_IRQHandler+0x6>)
     43e:	4700      	bx	r0

00000440 <NMI_Handler>:
     440:	e7fe      	b.n	440 <NMI_Handler>

00000442 <HardFault_Handler>:
     442:	e7fe      	b.n	442 <HardFault_Handler>

00000444 <MemManage_Handler>:
     444:	e7fe      	b.n	444 <MemManage_Handler>

00000446 <BusFault_Handler>:
     446:	e7fe      	b.n	446 <BusFault_Handler>

00000448 <UsageFault_Handler>:
     448:	e7fe      	b.n	448 <UsageFault_Handler>

0000044a <SVC_Handler>:
     44a:	e7fe      	b.n	44a <SVC_Handler>

0000044c <DebugMon_Handler>:
     44c:	e7fe      	b.n	44c <DebugMon_Handler>

0000044e <PendSV_Handler>:
     44e:	e7fe      	b.n	44e <PendSV_Handler>

00000450 <SysTick_Handler>:
     450:	e7fe      	b.n	450 <SysTick_Handler>

00000452 <ADC_IRQHandler>:
     452:	e7fe      	b.n	452 <ADC_IRQHandler>
     454:	000001cd 	.word	0x000001cd
     458:	000000c5 	.word	0x000000c5

0000045c <__aeabi_atexit>:
     45c:	4603      	mov	r3, r0
     45e:	4608      	mov	r0, r1
     460:	4619      	mov	r1, r3
     462:	f000 bd51 	b.w	f08 <__cxa_atexit>

00000466 <_ZNK10__cxxabiv117__class_type_info20__do_find_public_srcEiPKvPKS0_S2_>:
     466:	9800      	ldr	r0, [sp, #0]
     468:	4290      	cmp	r0, r2
     46a:	bf14      	ite	ne
     46c:	2001      	movne	r0, #1
     46e:	2006      	moveq	r0, #6
     470:	4770      	bx	lr

00000472 <_ZNK10__cxxabiv117__class_type_info11__do_upcastEPKS0_PKvRNS0_15__upcast_resultE>:
     472:	b538      	push	{r3, r4, r5, lr}
     474:	4614      	mov	r4, r2
     476:	461d      	mov	r5, r3
     478:	f000 f91b 	bl	6b2 <_ZNKSt9type_infoeqERKS_>
     47c:	b128      	cbz	r0, 48a <_ZNK10__cxxabiv117__class_type_info11__do_upcastEPKS0_PKvRNS0_15__upcast_resultE+0x18>
     47e:	2001      	movs	r0, #1
     480:	2308      	movs	r3, #8
     482:	602c      	str	r4, [r5, #0]
     484:	60eb      	str	r3, [r5, #12]
     486:	3b02      	subs	r3, #2
     488:	712b      	strb	r3, [r5, #4]
     48a:	bd38      	pop	{r3, r4, r5, pc}

0000048c <_ZNK10__cxxabiv117__class_type_info12__do_dyncastEiNS0_10__sub_kindEPKS0_PKvS3_S5_RNS0_16__dyncast_resultE>:
     48c:	e92d 41f0 	stmdb	sp!, {r4, r5, r6, r7, r8, lr}
     490:	4698      	mov	r8, r3
     492:	9f06      	ldr	r7, [sp, #24]
     494:	4604      	mov	r4, r0
     496:	9b08      	ldr	r3, [sp, #32]
     498:	4615      	mov	r5, r2
     49a:	9e09      	ldr	r6, [sp, #36]	; 0x24
     49c:	429f      	cmp	r7, r3
     49e:	d10c      	bne.n	4ba <_ZNK10__cxxabiv117__class_type_info12__do_dyncastEiNS0_10__sub_kindEPKS0_PKvS3_S5_RNS0_16__dyncast_resultE+0x2e>
     4a0:	9907      	ldr	r1, [sp, #28]
     4a2:	f000 f906 	bl	6b2 <_ZNKSt9type_infoeqERKS_>
     4a6:	b140      	cbz	r0, 4ba <_ZNK10__cxxabiv117__class_type_info12__do_dyncastEiNS0_10__sub_kindEPKS0_PKvS3_S5_RNS0_16__dyncast_resultE+0x2e>
     4a8:	7175      	strb	r5, [r6, #5]
     4aa:	e003      	b.n	4b4 <_ZNK10__cxxabiv117__class_type_info12__do_dyncastEiNS0_10__sub_kindEPKS0_PKvS3_S5_RNS0_16__dyncast_resultE+0x28>
     4ac:	2301      	movs	r3, #1
     4ae:	6037      	str	r7, [r6, #0]
     4b0:	7135      	strb	r5, [r6, #4]
     4b2:	71b3      	strb	r3, [r6, #6]
     4b4:	2000      	movs	r0, #0
     4b6:	e8bd 81f0 	ldmia.w	sp!, {r4, r5, r6, r7, r8, pc}
     4ba:	4620      	mov	r0, r4
     4bc:	4641      	mov	r1, r8
     4be:	f000 f8f8 	bl	6b2 <_ZNKSt9type_infoeqERKS_>
     4c2:	2800      	cmp	r0, #0
     4c4:	d1f2      	bne.n	4ac <_ZNK10__cxxabiv117__class_type_info12__do_dyncastEiNS0_10__sub_kindEPKS0_PKvS3_S5_RNS0_16__dyncast_resultE+0x20>
     4c6:	e7f5      	b.n	4b4 <_ZNK10__cxxabiv117__class_type_info12__do_dyncastEiNS0_10__sub_kindEPKS0_PKvS3_S5_RNS0_16__dyncast_resultE+0x28>

000004c8 <_ZNK10__cxxabiv117__class_type_info10__do_catchEPKSt9type_infoPPvj>:
     4c8:	b5f8      	push	{r3, r4, r5, r6, r7, lr}
     4ca:	4605      	mov	r5, r0
     4cc:	460c      	mov	r4, r1
     4ce:	4616      	mov	r6, r2
     4d0:	461f      	mov	r7, r3
     4d2:	f000 f8ee 	bl	6b2 <_ZNKSt9type_infoeqERKS_>
     4d6:	b940      	cbnz	r0, 4ea <_ZNK10__cxxabiv117__class_type_info10__do_catchEPKSt9type_infoPPvj+0x22>
     4d8:	2f03      	cmp	r7, #3
     4da:	d807      	bhi.n	4ec <_ZNK10__cxxabiv117__class_type_info10__do_catchEPKSt9type_infoPPvj+0x24>
     4dc:	6823      	ldr	r3, [r4, #0]
     4de:	4620      	mov	r0, r4
     4e0:	4629      	mov	r1, r5
     4e2:	4632      	mov	r2, r6
     4e4:	695b      	ldr	r3, [r3, #20]
     4e6:	4798      	blx	r3
     4e8:	bdf8      	pop	{r3, r4, r5, r6, r7, pc}
     4ea:	2001      	movs	r0, #1
     4ec:	bdf8      	pop	{r3, r4, r5, r6, r7, pc}
	...

000004f0 <_ZN10__cxxabiv117__class_type_infoD1Ev>:
     4f0:	4b03      	ldr	r3, [pc, #12]	; (500 <_ZN10__cxxabiv117__class_type_infoD1Ev+0x10>)
     4f2:	b510      	push	{r4, lr}
     4f4:	4604      	mov	r4, r0
     4f6:	6003      	str	r3, [r0, #0]
     4f8:	f000 f8c0 	bl	67c <_ZNSt9type_infoD1Ev>
     4fc:	4620      	mov	r0, r4
     4fe:	bd10      	pop	{r4, pc}
     500:	00004f38 	.word	0x00004f38

00000504 <_ZN10__cxxabiv117__class_type_infoD0Ev>:
     504:	b510      	push	{r4, lr}
     506:	4604      	mov	r4, r0
     508:	f7ff fff2 	bl	4f0 <_ZN10__cxxabiv117__class_type_infoD1Ev>
     50c:	4620      	mov	r0, r4
     50e:	f000 f825 	bl	55c <_ZdlPv>
     512:	4620      	mov	r0, r4
     514:	bd10      	pop	{r4, pc}

00000516 <_ZN10__cxxabiv117__class_type_info15__upcast_resultC1Ei>:
     516:	2200      	movs	r2, #0
     518:	6081      	str	r1, [r0, #8]
     51a:	6002      	str	r2, [r0, #0]
     51c:	7102      	strb	r2, [r0, #4]
     51e:	60c2      	str	r2, [r0, #12]
     520:	4770      	bx	lr

00000522 <_ZNK10__cxxabiv117__class_type_info11__do_upcastEPKS0_PPv>:
     522:	b5f0      	push	{r4, r5, r6, r7, lr}
     524:	4606      	mov	r6, r0
     526:	b085      	sub	sp, #20
     528:	460f      	mov	r7, r1
     52a:	4668      	mov	r0, sp
     52c:	2110      	movs	r1, #16
     52e:	4614      	mov	r4, r2
     530:	f7ff fff1 	bl	516 <_ZN10__cxxabiv117__class_type_info15__upcast_resultC1Ei>
     534:	6833      	ldr	r3, [r6, #0]
     536:	4630      	mov	r0, r6
     538:	4639      	mov	r1, r7
     53a:	6822      	ldr	r2, [r4, #0]
     53c:	699d      	ldr	r5, [r3, #24]
     53e:	466b      	mov	r3, sp
     540:	47a8      	blx	r5
     542:	f89d 3004 	ldrb.w	r3, [sp, #4]
     546:	f003 0306 	and.w	r3, r3, #6
     54a:	2b06      	cmp	r3, #6
     54c:	d103      	bne.n	556 <_ZNK10__cxxabiv117__class_type_info11__do_upcastEPKS0_PPv+0x34>
     54e:	9b00      	ldr	r3, [sp, #0]
     550:	2001      	movs	r0, #1
     552:	6023      	str	r3, [r4, #0]
     554:	e000      	b.n	558 <_ZNK10__cxxabiv117__class_type_info11__do_upcastEPKS0_PPv+0x36>
     556:	2000      	movs	r0, #0
     558:	b005      	add	sp, #20
     55a:	bdf0      	pop	{r4, r5, r6, r7, pc}

0000055c <_ZdlPv>:
     55c:	b108      	cbz	r0, 562 <_ZdlPv+0x6>
     55e:	f000 bd0b 	b.w	f78 <free>
     562:	4770      	bx	lr

00000564 <_ZdaPv>:
     564:	f7ff bffa 	b.w	55c <_ZdlPv>

00000568 <_ZNK10__cxxabiv120__si_class_type_info11__do_upcastEPKNS_17__class_type_infoEPKvRNS1_15__upcast_resultE>:
     568:	b5f8      	push	{r3, r4, r5, r6, r7, lr}
     56a:	4604      	mov	r4, r0
     56c:	460f      	mov	r7, r1
     56e:	4616      	mov	r6, r2
     570:	461d      	mov	r5, r3
     572:	f7ff ff7e 	bl	472 <_ZNK10__cxxabiv117__class_type_info11__do_upcastEPKS0_PKvRNS0_15__upcast_resultE>
     576:	b938      	cbnz	r0, 588 <_ZNK10__cxxabiv120__si_class_type_info11__do_upcastEPKNS_17__class_type_infoEPKvRNS1_15__upcast_resultE+0x20>
     578:	68a0      	ldr	r0, [r4, #8]
     57a:	4639      	mov	r1, r7
     57c:	4632      	mov	r2, r6
     57e:	6803      	ldr	r3, [r0, #0]
     580:	699c      	ldr	r4, [r3, #24]
     582:	462b      	mov	r3, r5
     584:	47a0      	blx	r4
     586:	bdf8      	pop	{r3, r4, r5, r6, r7, pc}
     588:	2001      	movs	r0, #1
     58a:	bdf8      	pop	{r3, r4, r5, r6, r7, pc}

0000058c <_ZNK10__cxxabiv120__si_class_type_info12__do_dyncastEiNS_17__class_type_info10__sub_kindEPKS1_PKvS4_S6_RNS1_16__dyncast_resultE>:
     58c:	e92d 4ff0 	stmdb	sp!, {r4, r5, r6, r7, r8, r9, sl, fp, lr}
     590:	b085      	sub	sp, #20
     592:	460c      	mov	r4, r1
     594:	4619      	mov	r1, r3
     596:	4605      	mov	r5, r0
     598:	4616      	mov	r6, r2
     59a:	461f      	mov	r7, r3
     59c:	f8dd 9038 	ldr.w	r9, [sp, #56]	; 0x38
     5a0:	f8dd a040 	ldr.w	sl, [sp, #64]	; 0x40
     5a4:	f8dd 8044 	ldr.w	r8, [sp, #68]	; 0x44
     5a8:	f000 f883 	bl	6b2 <_ZNKSt9type_infoeqERKS_>
     5ac:	4683      	mov	fp, r0
     5ae:	b1b0      	cbz	r0, 5de <_ZNK10__cxxabiv120__si_class_type_info12__do_dyncastEiNS_17__class_type_info10__sub_kindEPKS1_PKvS4_S6_RNS1_16__dyncast_resultE+0x52>
     5b0:	2c00      	cmp	r4, #0
     5b2:	f8c8 9000 	str.w	r9, [r8]
     5b6:	f888 6004 	strb.w	r6, [r8, #4]
     5ba:	db09      	blt.n	5d0 <_ZNK10__cxxabiv120__si_class_type_info12__do_dyncastEiNS_17__class_type_info10__sub_kindEPKS1_PKvS4_S6_RNS1_16__dyncast_resultE+0x44>
     5bc:	444c      	add	r4, r9
     5be:	45a2      	cmp	sl, r4
     5c0:	bf14      	ite	ne
     5c2:	f04f 0a01 	movne.w	sl, #1
     5c6:	f04f 0a06 	moveq.w	sl, #6
     5ca:	f888 a006 	strb.w	sl, [r8, #6]
     5ce:	e011      	b.n	5f4 <_ZNK10__cxxabiv120__si_class_type_info12__do_dyncastEiNS_17__class_type_info10__sub_kindEPKS1_PKvS4_S6_RNS1_16__dyncast_resultE+0x68>
     5d0:	f114 0f02 	cmn.w	r4, #2
     5d4:	d10e      	bne.n	5f4 <_ZNK10__cxxabiv120__si_class_type_info12__do_dyncastEiNS_17__class_type_info10__sub_kindEPKS1_PKvS4_S6_RNS1_16__dyncast_resultE+0x68>
     5d6:	2301      	movs	r3, #1
     5d8:	f888 3006 	strb.w	r3, [r8, #6]
     5dc:	e00a      	b.n	5f4 <_ZNK10__cxxabiv120__si_class_type_info12__do_dyncastEiNS_17__class_type_info10__sub_kindEPKS1_PKvS4_S6_RNS1_16__dyncast_resultE+0x68>
     5de:	45d1      	cmp	r9, sl
     5e0:	d10c      	bne.n	5fc <_ZNK10__cxxabiv120__si_class_type_info12__do_dyncastEiNS_17__class_type_info10__sub_kindEPKS1_PKvS4_S6_RNS1_16__dyncast_resultE+0x70>
     5e2:	4628      	mov	r0, r5
     5e4:	990f      	ldr	r1, [sp, #60]	; 0x3c
     5e6:	f000 f864 	bl	6b2 <_ZNKSt9type_infoeqERKS_>
     5ea:	b138      	cbz	r0, 5fc <_ZNK10__cxxabiv120__si_class_type_info12__do_dyncastEiNS_17__class_type_info10__sub_kindEPKS1_PKvS4_S6_RNS1_16__dyncast_resultE+0x70>
     5ec:	f888 6005 	strb.w	r6, [r8, #5]
     5f0:	4658      	mov	r0, fp
     5f2:	e000      	b.n	5f6 <_ZNK10__cxxabiv120__si_class_type_info12__do_dyncastEiNS_17__class_type_info10__sub_kindEPKS1_PKvS4_S6_RNS1_16__dyncast_resultE+0x6a>
     5f4:	2000      	movs	r0, #0
     5f6:	b005      	add	sp, #20
     5f8:	e8bd 8ff0 	ldmia.w	sp!, {r4, r5, r6, r7, r8, r9, sl, fp, pc}
     5fc:	68a8      	ldr	r0, [r5, #8]
     5fe:	4621      	mov	r1, r4
     600:	9a0f      	ldr	r2, [sp, #60]	; 0x3c
     602:	6803      	ldr	r3, [r0, #0]
     604:	9201      	str	r2, [sp, #4]
     606:	4632      	mov	r2, r6
     608:	f8cd 9000 	str.w	r9, [sp]
     60c:	f8cd a008 	str.w	sl, [sp, #8]
     610:	f8cd 800c 	str.w	r8, [sp, #12]
     614:	69dd      	ldr	r5, [r3, #28]
     616:	463b      	mov	r3, r7
     618:	47a8      	blx	r5
     61a:	e7ec      	b.n	5f6 <_ZNK10__cxxabiv120__si_class_type_info12__do_dyncastEiNS_17__class_type_info10__sub_kindEPKS1_PKvS4_S6_RNS1_16__dyncast_resultE+0x6a>

0000061c <_ZNK10__cxxabiv120__si_class_type_info20__do_find_public_srcEiPKvPKNS_17__class_type_infoES2_>:
     61c:	e92d 41f3 	stmdb	sp!, {r0, r1, r4, r5, r6, r7, r8, lr}
     620:	4604      	mov	r4, r0
     622:	f8dd 8020 	ldr.w	r8, [sp, #32]
     626:	460d      	mov	r5, r1
     628:	4617      	mov	r7, r2
     62a:	461e      	mov	r6, r3
     62c:	4590      	cmp	r8, r2
     62e:	d106      	bne.n	63e <_ZNK10__cxxabiv120__si_class_type_info20__do_find_public_srcEiPKvPKNS_17__class_type_infoES2_+0x22>
     630:	4619      	mov	r1, r3
     632:	f000 f83e 	bl	6b2 <_ZNKSt9type_infoeqERKS_>
     636:	b110      	cbz	r0, 63e <_ZNK10__cxxabiv120__si_class_type_info20__do_find_public_srcEiPKvPKNS_17__class_type_infoES2_+0x22>
     638:	2006      	movs	r0, #6
     63a:	e8bd 81fc 	ldmia.w	sp!, {r2, r3, r4, r5, r6, r7, r8, pc}
     63e:	68a0      	ldr	r0, [r4, #8]
     640:	4629      	mov	r1, r5
     642:	463a      	mov	r2, r7
     644:	6803      	ldr	r3, [r0, #0]
     646:	f8cd 8000 	str.w	r8, [sp]
     64a:	6a1c      	ldr	r4, [r3, #32]
     64c:	4633      	mov	r3, r6
     64e:	47a0      	blx	r4
     650:	e7f3      	b.n	63a <_ZNK10__cxxabiv120__si_class_type_info20__do_find_public_srcEiPKvPKNS_17__class_type_infoES2_+0x1e>
	...

00000654 <_ZN10__cxxabiv120__si_class_type_infoD1Ev>:
     654:	4b03      	ldr	r3, [pc, #12]	; (664 <_ZN10__cxxabiv120__si_class_type_infoD1Ev+0x10>)
     656:	b510      	push	{r4, lr}
     658:	4604      	mov	r4, r0
     65a:	6003      	str	r3, [r0, #0]
     65c:	f7ff ff48 	bl	4f0 <_ZN10__cxxabiv117__class_type_infoD1Ev>
     660:	4620      	mov	r0, r4
     662:	bd10      	pop	{r4, pc}
     664:	00004f98 	.word	0x00004f98

00000668 <_ZN10__cxxabiv120__si_class_type_infoD0Ev>:
     668:	b510      	push	{r4, lr}
     66a:	4604      	mov	r4, r0
     66c:	f7ff fff2 	bl	654 <_ZN10__cxxabiv120__si_class_type_infoD1Ev>
     670:	4620      	mov	r0, r4
     672:	f7ff ff73 	bl	55c <_ZdlPv>
     676:	4620      	mov	r0, r4
     678:	bd10      	pop	{r4, pc}
	...

0000067c <_ZNSt9type_infoD1Ev>:
     67c:	4b01      	ldr	r3, [pc, #4]	; (684 <_ZNSt9type_infoD1Ev+0x8>)
     67e:	6003      	str	r3, [r0, #0]
     680:	4770      	bx	lr
     682:	bf00      	nop
     684:	00005018 	.word	0x00005018

00000688 <_ZNKSt9type_info14__is_pointer_pEv>:
     688:	2000      	movs	r0, #0
     68a:	4770      	bx	lr

0000068c <_ZNKSt9type_info15__is_function_pEv>:
     68c:	2000      	movs	r0, #0
     68e:	4770      	bx	lr

00000690 <_ZNKSt9type_info11__do_upcastEPKN10__cxxabiv117__class_type_infoEPPv>:
     690:	2000      	movs	r0, #0
     692:	4770      	bx	lr

00000694 <_ZNSt9type_infoD0Ev>:
     694:	b510      	push	{r4, lr}
     696:	4604      	mov	r4, r0
     698:	f7ff fff0 	bl	67c <_ZNSt9type_infoD1Ev>
     69c:	4620      	mov	r0, r4
     69e:	f7ff ff5d 	bl	55c <_ZdlPv>
     6a2:	4620      	mov	r0, r4
     6a4:	bd10      	pop	{r4, pc}

000006a6 <_ZNKSt9type_info4nameEv>:
     6a6:	6840      	ldr	r0, [r0, #4]
     6a8:	7803      	ldrb	r3, [r0, #0]
     6aa:	2b2a      	cmp	r3, #42	; 0x2a
     6ac:	bf08      	it	eq
     6ae:	3001      	addeq	r0, #1
     6b0:	4770      	bx	lr

000006b2 <_ZNKSt9type_infoeqERKS_>:
     6b2:	4281      	cmp	r1, r0
     6b4:	b538      	push	{r3, r4, r5, lr}
     6b6:	460d      	mov	r5, r1
     6b8:	d011      	beq.n	6de <_ZNKSt9type_infoeqERKS_+0x2c>
     6ba:	f7ff fff4 	bl	6a6 <_ZNKSt9type_info4nameEv>
     6be:	7803      	ldrb	r3, [r0, #0]
     6c0:	4604      	mov	r4, r0
     6c2:	2b2a      	cmp	r3, #42	; 0x2a
     6c4:	d00d      	beq.n	6e2 <_ZNKSt9type_infoeqERKS_+0x30>
     6c6:	4628      	mov	r0, r5
     6c8:	f7ff ffed 	bl	6a6 <_ZNKSt9type_info4nameEv>
     6cc:	4601      	mov	r1, r0
     6ce:	4620      	mov	r0, r4
     6d0:	f001 f88c 	bl	17ec <strcmp>
     6d4:	f1d0 0001 	rsbs	r0, r0, #1
     6d8:	bf38      	it	cc
     6da:	2000      	movcc	r0, #0
     6dc:	bd38      	pop	{r3, r4, r5, pc}
     6de:	2001      	movs	r0, #1
     6e0:	bd38      	pop	{r3, r4, r5, pc}
     6e2:	2000      	movs	r0, #0
     6e4:	bd38      	pop	{r3, r4, r5, pc}

000006e6 <_ZNKSt9type_info10__do_catchEPKS_PPvj>:
     6e6:	f7ff bfe4 	b.w	6b2 <_ZNKSt9type_infoeqERKS_>
	...

000006ec <__aeabi_drsub>:
     6ec:	f081 4100 	eor.w	r1, r1, #2147483648	; 0x80000000
     6f0:	e002      	b.n	6f8 <__adddf3>
     6f2:	bf00      	nop

000006f4 <__aeabi_dsub>:
     6f4:	f083 4300 	eor.w	r3, r3, #2147483648	; 0x80000000

000006f8 <__adddf3>:
     6f8:	b530      	push	{r4, r5, lr}
     6fa:	ea4f 0441 	mov.w	r4, r1, lsl #1
     6fe:	ea4f 0543 	mov.w	r5, r3, lsl #1
     702:	ea94 0f05 	teq	r4, r5
     706:	bf08      	it	eq
     708:	ea90 0f02 	teqeq	r0, r2
     70c:	bf1f      	itttt	ne
     70e:	ea54 0c00 	orrsne.w	ip, r4, r0
     712:	ea55 0c02 	orrsne.w	ip, r5, r2
     716:	ea7f 5c64 	mvnsne.w	ip, r4, asr #21
     71a:	ea7f 5c65 	mvnsne.w	ip, r5, asr #21
     71e:	f000 80e2 	beq.w	8e6 <__adddf3+0x1ee>
     722:	ea4f 5454 	mov.w	r4, r4, lsr #21
     726:	ebd4 5555 	rsbs	r5, r4, r5, lsr #21
     72a:	bfb8      	it	lt
     72c:	426d      	neglt	r5, r5
     72e:	dd0c      	ble.n	74a <__adddf3+0x52>
     730:	442c      	add	r4, r5
     732:	ea80 0202 	eor.w	r2, r0, r2
     736:	ea81 0303 	eor.w	r3, r1, r3
     73a:	ea82 0000 	eor.w	r0, r2, r0
     73e:	ea83 0101 	eor.w	r1, r3, r1
     742:	ea80 0202 	eor.w	r2, r0, r2
     746:	ea81 0303 	eor.w	r3, r1, r3
     74a:	2d36      	cmp	r5, #54	; 0x36
     74c:	bf88      	it	hi
     74e:	bd30      	pophi	{r4, r5, pc}
     750:	f011 4f00 	tst.w	r1, #2147483648	; 0x80000000
     754:	ea4f 3101 	mov.w	r1, r1, lsl #12
     758:	f44f 1c80 	mov.w	ip, #1048576	; 0x100000
     75c:	ea4c 3111 	orr.w	r1, ip, r1, lsr #12
     760:	d002      	beq.n	768 <__adddf3+0x70>
     762:	4240      	negs	r0, r0
     764:	eb61 0141 	sbc.w	r1, r1, r1, lsl #1
     768:	f013 4f00 	tst.w	r3, #2147483648	; 0x80000000
     76c:	ea4f 3303 	mov.w	r3, r3, lsl #12
     770:	ea4c 3313 	orr.w	r3, ip, r3, lsr #12
     774:	d002      	beq.n	77c <__adddf3+0x84>
     776:	4252      	negs	r2, r2
     778:	eb63 0343 	sbc.w	r3, r3, r3, lsl #1
     77c:	ea94 0f05 	teq	r4, r5
     780:	f000 80a7 	beq.w	8d2 <__adddf3+0x1da>
     784:	f1a4 0401 	sub.w	r4, r4, #1
     788:	f1d5 0e20 	rsbs	lr, r5, #32
     78c:	db0d      	blt.n	7aa <__adddf3+0xb2>
     78e:	fa02 fc0e 	lsl.w	ip, r2, lr
     792:	fa22 f205 	lsr.w	r2, r2, r5
     796:	1880      	adds	r0, r0, r2
     798:	f141 0100 	adc.w	r1, r1, #0
     79c:	fa03 f20e 	lsl.w	r2, r3, lr
     7a0:	1880      	adds	r0, r0, r2
     7a2:	fa43 f305 	asr.w	r3, r3, r5
     7a6:	4159      	adcs	r1, r3
     7a8:	e00e      	b.n	7c8 <__adddf3+0xd0>
     7aa:	f1a5 0520 	sub.w	r5, r5, #32
     7ae:	f10e 0e20 	add.w	lr, lr, #32
     7b2:	2a01      	cmp	r2, #1
     7b4:	fa03 fc0e 	lsl.w	ip, r3, lr
     7b8:	bf28      	it	cs
     7ba:	f04c 0c02 	orrcs.w	ip, ip, #2
     7be:	fa43 f305 	asr.w	r3, r3, r5
     7c2:	18c0      	adds	r0, r0, r3
     7c4:	eb51 71e3 	adcs.w	r1, r1, r3, asr #31
     7c8:	f001 4500 	and.w	r5, r1, #2147483648	; 0x80000000
     7cc:	d507      	bpl.n	7de <__adddf3+0xe6>
     7ce:	f04f 0e00 	mov.w	lr, #0
     7d2:	f1dc 0c00 	rsbs	ip, ip, #0
     7d6:	eb7e 0000 	sbcs.w	r0, lr, r0
     7da:	eb6e 0101 	sbc.w	r1, lr, r1
     7de:	f5b1 1f80 	cmp.w	r1, #1048576	; 0x100000
     7e2:	d31b      	bcc.n	81c <__adddf3+0x124>
     7e4:	f5b1 1f00 	cmp.w	r1, #2097152	; 0x200000
     7e8:	d30c      	bcc.n	804 <__adddf3+0x10c>
     7ea:	0849      	lsrs	r1, r1, #1
     7ec:	ea5f 0030 	movs.w	r0, r0, rrx
     7f0:	ea4f 0c3c 	mov.w	ip, ip, rrx
     7f4:	f104 0401 	add.w	r4, r4, #1
     7f8:	ea4f 5244 	mov.w	r2, r4, lsl #21
     7fc:	f512 0f80 	cmn.w	r2, #4194304	; 0x400000
     800:	f080 809a 	bcs.w	938 <__adddf3+0x240>
     804:	f1bc 4f00 	cmp.w	ip, #2147483648	; 0x80000000
     808:	bf08      	it	eq
     80a:	ea5f 0c50 	movseq.w	ip, r0, lsr #1
     80e:	f150 0000 	adcs.w	r0, r0, #0
     812:	eb41 5104 	adc.w	r1, r1, r4, lsl #20
     816:	ea41 0105 	orr.w	r1, r1, r5
     81a:	bd30      	pop	{r4, r5, pc}
     81c:	ea5f 0c4c 	movs.w	ip, ip, lsl #1
     820:	4140      	adcs	r0, r0
     822:	eb41 0101 	adc.w	r1, r1, r1
     826:	f411 1f80 	tst.w	r1, #1048576	; 0x100000
     82a:	f1a4 0401 	sub.w	r4, r4, #1
     82e:	d1e9      	bne.n	804 <__adddf3+0x10c>
     830:	f091 0f00 	teq	r1, #0
     834:	bf04      	itt	eq
     836:	4601      	moveq	r1, r0
     838:	2000      	moveq	r0, #0
     83a:	fab1 f381 	clz	r3, r1
     83e:	bf08      	it	eq
     840:	3320      	addeq	r3, #32
     842:	f1a3 030b 	sub.w	r3, r3, #11
     846:	f1b3 0220 	subs.w	r2, r3, #32
     84a:	da0c      	bge.n	866 <__adddf3+0x16e>
     84c:	320c      	adds	r2, #12
     84e:	dd08      	ble.n	862 <__adddf3+0x16a>
     850:	f102 0c14 	add.w	ip, r2, #20
     854:	f1c2 020c 	rsb	r2, r2, #12
     858:	fa01 f00c 	lsl.w	r0, r1, ip
     85c:	fa21 f102 	lsr.w	r1, r1, r2
     860:	e00c      	b.n	87c <__adddf3+0x184>
     862:	f102 0214 	add.w	r2, r2, #20
     866:	bfd8      	it	le
     868:	f1c2 0c20 	rsble	ip, r2, #32
     86c:	fa01 f102 	lsl.w	r1, r1, r2
     870:	fa20 fc0c 	lsr.w	ip, r0, ip
     874:	bfdc      	itt	le
     876:	ea41 010c 	orrle.w	r1, r1, ip
     87a:	4090      	lslle	r0, r2
     87c:	1ae4      	subs	r4, r4, r3
     87e:	bfa2      	ittt	ge
     880:	eb01 5104 	addge.w	r1, r1, r4, lsl #20
     884:	4329      	orrge	r1, r5
     886:	bd30      	popge	{r4, r5, pc}
     888:	ea6f 0404 	mvn.w	r4, r4
     88c:	3c1f      	subs	r4, #31
     88e:	da1c      	bge.n	8ca <__adddf3+0x1d2>
     890:	340c      	adds	r4, #12
     892:	dc0e      	bgt.n	8b2 <__adddf3+0x1ba>
     894:	f104 0414 	add.w	r4, r4, #20
     898:	f1c4 0220 	rsb	r2, r4, #32
     89c:	fa20 f004 	lsr.w	r0, r0, r4
     8a0:	fa01 f302 	lsl.w	r3, r1, r2
     8a4:	ea40 0003 	orr.w	r0, r0, r3
     8a8:	fa21 f304 	lsr.w	r3, r1, r4
     8ac:	ea45 0103 	orr.w	r1, r5, r3
     8b0:	bd30      	pop	{r4, r5, pc}
     8b2:	f1c4 040c 	rsb	r4, r4, #12
     8b6:	f1c4 0220 	rsb	r2, r4, #32
     8ba:	fa20 f002 	lsr.w	r0, r0, r2
     8be:	fa01 f304 	lsl.w	r3, r1, r4
     8c2:	ea40 0003 	orr.w	r0, r0, r3
     8c6:	4629      	mov	r1, r5
     8c8:	bd30      	pop	{r4, r5, pc}
     8ca:	fa21 f004 	lsr.w	r0, r1, r4
     8ce:	4629      	mov	r1, r5
     8d0:	bd30      	pop	{r4, r5, pc}
     8d2:	f094 0f00 	teq	r4, #0
     8d6:	f483 1380 	eor.w	r3, r3, #1048576	; 0x100000
     8da:	bf06      	itte	eq
     8dc:	f481 1180 	eoreq.w	r1, r1, #1048576	; 0x100000
     8e0:	3401      	addeq	r4, #1
     8e2:	3d01      	subne	r5, #1
     8e4:	e74e      	b.n	784 <__adddf3+0x8c>
     8e6:	ea7f 5c64 	mvns.w	ip, r4, asr #21
     8ea:	bf18      	it	ne
     8ec:	ea7f 5c65 	mvnsne.w	ip, r5, asr #21
     8f0:	d029      	beq.n	946 <__adddf3+0x24e>
     8f2:	ea94 0f05 	teq	r4, r5
     8f6:	bf08      	it	eq
     8f8:	ea90 0f02 	teqeq	r0, r2
     8fc:	d005      	beq.n	90a <__adddf3+0x212>
     8fe:	ea54 0c00 	orrs.w	ip, r4, r0
     902:	bf04      	itt	eq
     904:	4619      	moveq	r1, r3
     906:	4610      	moveq	r0, r2
     908:	bd30      	pop	{r4, r5, pc}
     90a:	ea91 0f03 	teq	r1, r3
     90e:	bf1e      	ittt	ne
     910:	2100      	movne	r1, #0
     912:	2000      	movne	r0, #0
     914:	bd30      	popne	{r4, r5, pc}
     916:	ea5f 5c54 	movs.w	ip, r4, lsr #21
     91a:	d105      	bne.n	928 <__adddf3+0x230>
     91c:	0040      	lsls	r0, r0, #1
     91e:	4149      	adcs	r1, r1
     920:	bf28      	it	cs
     922:	f041 4100 	orrcs.w	r1, r1, #2147483648	; 0x80000000
     926:	bd30      	pop	{r4, r5, pc}
     928:	f514 0480 	adds.w	r4, r4, #4194304	; 0x400000
     92c:	bf3c      	itt	cc
     92e:	f501 1180 	addcc.w	r1, r1, #1048576	; 0x100000
     932:	bd30      	popcc	{r4, r5, pc}
     934:	f001 4500 	and.w	r5, r1, #2147483648	; 0x80000000
     938:	f045 41fe 	orr.w	r1, r5, #2130706432	; 0x7f000000
     93c:	f441 0170 	orr.w	r1, r1, #15728640	; 0xf00000
     940:	f04f 0000 	mov.w	r0, #0
     944:	bd30      	pop	{r4, r5, pc}
     946:	ea7f 5c64 	mvns.w	ip, r4, asr #21
     94a:	bf1a      	itte	ne
     94c:	4619      	movne	r1, r3
     94e:	4610      	movne	r0, r2
     950:	ea7f 5c65 	mvnseq.w	ip, r5, asr #21
     954:	bf1c      	itt	ne
     956:	460b      	movne	r3, r1
     958:	4602      	movne	r2, r0
     95a:	ea50 3401 	orrs.w	r4, r0, r1, lsl #12
     95e:	bf06      	itte	eq
     960:	ea52 3503 	orrseq.w	r5, r2, r3, lsl #12
     964:	ea91 0f03 	teqeq	r1, r3
     968:	f441 2100 	orrne.w	r1, r1, #524288	; 0x80000
     96c:	bd30      	pop	{r4, r5, pc}
     96e:	bf00      	nop

00000970 <__aeabi_ui2d>:
     970:	f090 0f00 	teq	r0, #0
     974:	bf04      	itt	eq
     976:	2100      	moveq	r1, #0
     978:	4770      	bxeq	lr
     97a:	b530      	push	{r4, r5, lr}
     97c:	f44f 6480 	mov.w	r4, #1024	; 0x400
     980:	f104 0432 	add.w	r4, r4, #50	; 0x32
     984:	f04f 0500 	mov.w	r5, #0
     988:	f04f 0100 	mov.w	r1, #0
     98c:	e750      	b.n	830 <__adddf3+0x138>
     98e:	bf00      	nop

00000990 <__aeabi_i2d>:
     990:	f090 0f00 	teq	r0, #0
     994:	bf04      	itt	eq
     996:	2100      	moveq	r1, #0
     998:	4770      	bxeq	lr
     99a:	b530      	push	{r4, r5, lr}
     99c:	f44f 6480 	mov.w	r4, #1024	; 0x400
     9a0:	f104 0432 	add.w	r4, r4, #50	; 0x32
     9a4:	f010 4500 	ands.w	r5, r0, #2147483648	; 0x80000000
     9a8:	bf48      	it	mi
     9aa:	4240      	negmi	r0, r0
     9ac:	f04f 0100 	mov.w	r1, #0
     9b0:	e73e      	b.n	830 <__adddf3+0x138>
     9b2:	bf00      	nop

000009b4 <__aeabi_f2d>:
     9b4:	0042      	lsls	r2, r0, #1
     9b6:	ea4f 01e2 	mov.w	r1, r2, asr #3
     9ba:	ea4f 0131 	mov.w	r1, r1, rrx
     9be:	ea4f 7002 	mov.w	r0, r2, lsl #28
     9c2:	bf1f      	itttt	ne
     9c4:	f012 437f 	andsne.w	r3, r2, #4278190080	; 0xff000000
     9c8:	f093 4f7f 	teqne	r3, #4278190080	; 0xff000000
     9cc:	f081 5160 	eorne.w	r1, r1, #939524096	; 0x38000000
     9d0:	4770      	bxne	lr
     9d2:	f092 0f00 	teq	r2, #0
     9d6:	bf14      	ite	ne
     9d8:	f093 4f7f 	teqne	r3, #4278190080	; 0xff000000
     9dc:	4770      	bxeq	lr
     9de:	b530      	push	{r4, r5, lr}
     9e0:	f44f 7460 	mov.w	r4, #896	; 0x380
     9e4:	f001 4500 	and.w	r5, r1, #2147483648	; 0x80000000
     9e8:	f021 4100 	bic.w	r1, r1, #2147483648	; 0x80000000
     9ec:	e720      	b.n	830 <__adddf3+0x138>
     9ee:	bf00      	nop

000009f0 <__aeabi_ul2d>:
     9f0:	ea50 0201 	orrs.w	r2, r0, r1
     9f4:	bf08      	it	eq
     9f6:	4770      	bxeq	lr
     9f8:	b530      	push	{r4, r5, lr}
     9fa:	f04f 0500 	mov.w	r5, #0
     9fe:	e00a      	b.n	a16 <__aeabi_l2d+0x16>

00000a00 <__aeabi_l2d>:
     a00:	ea50 0201 	orrs.w	r2, r0, r1
     a04:	bf08      	it	eq
     a06:	4770      	bxeq	lr
     a08:	b530      	push	{r4, r5, lr}
     a0a:	f011 4500 	ands.w	r5, r1, #2147483648	; 0x80000000
     a0e:	d502      	bpl.n	a16 <__aeabi_l2d+0x16>
     a10:	4240      	negs	r0, r0
     a12:	eb61 0141 	sbc.w	r1, r1, r1, lsl #1
     a16:	f44f 6480 	mov.w	r4, #1024	; 0x400
     a1a:	f104 0432 	add.w	r4, r4, #50	; 0x32
     a1e:	ea5f 5c91 	movs.w	ip, r1, lsr #22
     a22:	f43f aedc 	beq.w	7de <__adddf3+0xe6>
     a26:	f04f 0203 	mov.w	r2, #3
     a2a:	ea5f 0cdc 	movs.w	ip, ip, lsr #3
     a2e:	bf18      	it	ne
     a30:	3203      	addne	r2, #3
     a32:	ea5f 0cdc 	movs.w	ip, ip, lsr #3
     a36:	bf18      	it	ne
     a38:	3203      	addne	r2, #3
     a3a:	eb02 02dc 	add.w	r2, r2, ip, lsr #3
     a3e:	f1c2 0320 	rsb	r3, r2, #32
     a42:	fa00 fc03 	lsl.w	ip, r0, r3
     a46:	fa20 f002 	lsr.w	r0, r0, r2
     a4a:	fa01 fe03 	lsl.w	lr, r1, r3
     a4e:	ea40 000e 	orr.w	r0, r0, lr
     a52:	fa21 f102 	lsr.w	r1, r1, r2
     a56:	4414      	add	r4, r2
     a58:	e6c1      	b.n	7de <__adddf3+0xe6>
     a5a:	bf00      	nop

00000a5c <__aeabi_dmul>:
     a5c:	b570      	push	{r4, r5, r6, lr}
     a5e:	f04f 0cff 	mov.w	ip, #255	; 0xff
     a62:	f44c 6ce0 	orr.w	ip, ip, #1792	; 0x700
     a66:	ea1c 5411 	ands.w	r4, ip, r1, lsr #20
     a6a:	bf1d      	ittte	ne
     a6c:	ea1c 5513 	andsne.w	r5, ip, r3, lsr #20
     a70:	ea94 0f0c 	teqne	r4, ip
     a74:	ea95 0f0c 	teqne	r5, ip
     a78:	f000 f8de 	bleq	c38 <__aeabi_dmul+0x1dc>
     a7c:	442c      	add	r4, r5
     a7e:	ea81 0603 	eor.w	r6, r1, r3
     a82:	ea21 514c 	bic.w	r1, r1, ip, lsl #21
     a86:	ea23 534c 	bic.w	r3, r3, ip, lsl #21
     a8a:	ea50 3501 	orrs.w	r5, r0, r1, lsl #12
     a8e:	bf18      	it	ne
     a90:	ea52 3503 	orrsne.w	r5, r2, r3, lsl #12
     a94:	f441 1180 	orr.w	r1, r1, #1048576	; 0x100000
     a98:	f443 1380 	orr.w	r3, r3, #1048576	; 0x100000
     a9c:	d038      	beq.n	b10 <__aeabi_dmul+0xb4>
     a9e:	fba0 ce02 	umull	ip, lr, r0, r2
     aa2:	f04f 0500 	mov.w	r5, #0
     aa6:	fbe1 e502 	umlal	lr, r5, r1, r2
     aaa:	f006 4200 	and.w	r2, r6, #2147483648	; 0x80000000
     aae:	fbe0 e503 	umlal	lr, r5, r0, r3
     ab2:	f04f 0600 	mov.w	r6, #0
     ab6:	fbe1 5603 	umlal	r5, r6, r1, r3
     aba:	f09c 0f00 	teq	ip, #0
     abe:	bf18      	it	ne
     ac0:	f04e 0e01 	orrne.w	lr, lr, #1
     ac4:	f1a4 04ff 	sub.w	r4, r4, #255	; 0xff
     ac8:	f5b6 7f00 	cmp.w	r6, #512	; 0x200
     acc:	f564 7440 	sbc.w	r4, r4, #768	; 0x300
     ad0:	d204      	bcs.n	adc <__aeabi_dmul+0x80>
     ad2:	ea5f 0e4e 	movs.w	lr, lr, lsl #1
     ad6:	416d      	adcs	r5, r5
     ad8:	eb46 0606 	adc.w	r6, r6, r6
     adc:	ea42 21c6 	orr.w	r1, r2, r6, lsl #11
     ae0:	ea41 5155 	orr.w	r1, r1, r5, lsr #21
     ae4:	ea4f 20c5 	mov.w	r0, r5, lsl #11
     ae8:	ea40 505e 	orr.w	r0, r0, lr, lsr #21
     aec:	ea4f 2ece 	mov.w	lr, lr, lsl #11
     af0:	f1b4 0cfd 	subs.w	ip, r4, #253	; 0xfd
     af4:	bf88      	it	hi
     af6:	f5bc 6fe0 	cmphi.w	ip, #1792	; 0x700
     afa:	d81e      	bhi.n	b3a <__aeabi_dmul+0xde>
     afc:	f1be 4f00 	cmp.w	lr, #2147483648	; 0x80000000
     b00:	bf08      	it	eq
     b02:	ea5f 0e50 	movseq.w	lr, r0, lsr #1
     b06:	f150 0000 	adcs.w	r0, r0, #0
     b0a:	eb41 5104 	adc.w	r1, r1, r4, lsl #20
     b0e:	bd70      	pop	{r4, r5, r6, pc}
     b10:	f006 4600 	and.w	r6, r6, #2147483648	; 0x80000000
     b14:	ea46 0101 	orr.w	r1, r6, r1
     b18:	ea40 0002 	orr.w	r0, r0, r2
     b1c:	ea81 0103 	eor.w	r1, r1, r3
     b20:	ebb4 045c 	subs.w	r4, r4, ip, lsr #1
     b24:	bfc2      	ittt	gt
     b26:	ebd4 050c 	rsbsgt	r5, r4, ip
     b2a:	ea41 5104 	orrgt.w	r1, r1, r4, lsl #20
     b2e:	bd70      	popgt	{r4, r5, r6, pc}
     b30:	f441 1180 	orr.w	r1, r1, #1048576	; 0x100000
     b34:	f04f 0e00 	mov.w	lr, #0
     b38:	3c01      	subs	r4, #1
     b3a:	f300 80ab 	bgt.w	c94 <__aeabi_dmul+0x238>
     b3e:	f114 0f36 	cmn.w	r4, #54	; 0x36
     b42:	bfde      	ittt	le
     b44:	2000      	movle	r0, #0
     b46:	f001 4100 	andle.w	r1, r1, #2147483648	; 0x80000000
     b4a:	bd70      	pople	{r4, r5, r6, pc}
     b4c:	f1c4 0400 	rsb	r4, r4, #0
     b50:	3c20      	subs	r4, #32
     b52:	da35      	bge.n	bc0 <__aeabi_dmul+0x164>
     b54:	340c      	adds	r4, #12
     b56:	dc1b      	bgt.n	b90 <__aeabi_dmul+0x134>
     b58:	f104 0414 	add.w	r4, r4, #20
     b5c:	f1c4 0520 	rsb	r5, r4, #32
     b60:	fa00 f305 	lsl.w	r3, r0, r5
     b64:	fa20 f004 	lsr.w	r0, r0, r4
     b68:	fa01 f205 	lsl.w	r2, r1, r5
     b6c:	ea40 0002 	orr.w	r0, r0, r2
     b70:	f001 4200 	and.w	r2, r1, #2147483648	; 0x80000000
     b74:	f021 4100 	bic.w	r1, r1, #2147483648	; 0x80000000
     b78:	eb10 70d3 	adds.w	r0, r0, r3, lsr #31
     b7c:	fa21 f604 	lsr.w	r6, r1, r4
     b80:	eb42 0106 	adc.w	r1, r2, r6
     b84:	ea5e 0e43 	orrs.w	lr, lr, r3, lsl #1
     b88:	bf08      	it	eq
     b8a:	ea20 70d3 	biceq.w	r0, r0, r3, lsr #31
     b8e:	bd70      	pop	{r4, r5, r6, pc}
     b90:	f1c4 040c 	rsb	r4, r4, #12
     b94:	f1c4 0520 	rsb	r5, r4, #32
     b98:	fa00 f304 	lsl.w	r3, r0, r4
     b9c:	fa20 f005 	lsr.w	r0, r0, r5
     ba0:	fa01 f204 	lsl.w	r2, r1, r4
     ba4:	ea40 0002 	orr.w	r0, r0, r2
     ba8:	f001 4100 	and.w	r1, r1, #2147483648	; 0x80000000
     bac:	eb10 70d3 	adds.w	r0, r0, r3, lsr #31
     bb0:	f141 0100 	adc.w	r1, r1, #0
     bb4:	ea5e 0e43 	orrs.w	lr, lr, r3, lsl #1
     bb8:	bf08      	it	eq
     bba:	ea20 70d3 	biceq.w	r0, r0, r3, lsr #31
     bbe:	bd70      	pop	{r4, r5, r6, pc}
     bc0:	f1c4 0520 	rsb	r5, r4, #32
     bc4:	fa00 f205 	lsl.w	r2, r0, r5
     bc8:	ea4e 0e02 	orr.w	lr, lr, r2
     bcc:	fa20 f304 	lsr.w	r3, r0, r4
     bd0:	fa01 f205 	lsl.w	r2, r1, r5
     bd4:	ea43 0302 	orr.w	r3, r3, r2
     bd8:	fa21 f004 	lsr.w	r0, r1, r4
     bdc:	f001 4100 	and.w	r1, r1, #2147483648	; 0x80000000
     be0:	fa21 f204 	lsr.w	r2, r1, r4
     be4:	ea20 0002 	bic.w	r0, r0, r2
     be8:	eb00 70d3 	add.w	r0, r0, r3, lsr #31
     bec:	ea5e 0e43 	orrs.w	lr, lr, r3, lsl #1
     bf0:	bf08      	it	eq
     bf2:	ea20 70d3 	biceq.w	r0, r0, r3, lsr #31
     bf6:	bd70      	pop	{r4, r5, r6, pc}
     bf8:	f094 0f00 	teq	r4, #0
     bfc:	d10f      	bne.n	c1e <__aeabi_dmul+0x1c2>
     bfe:	f001 4600 	and.w	r6, r1, #2147483648	; 0x80000000
     c02:	0040      	lsls	r0, r0, #1
     c04:	eb41 0101 	adc.w	r1, r1, r1
     c08:	f411 1f80 	tst.w	r1, #1048576	; 0x100000
     c0c:	bf08      	it	eq
     c0e:	3c01      	subeq	r4, #1
     c10:	d0f7      	beq.n	c02 <__aeabi_dmul+0x1a6>
     c12:	ea41 0106 	orr.w	r1, r1, r6
     c16:	f095 0f00 	teq	r5, #0
     c1a:	bf18      	it	ne
     c1c:	4770      	bxne	lr
     c1e:	f003 4600 	and.w	r6, r3, #2147483648	; 0x80000000
     c22:	0052      	lsls	r2, r2, #1
     c24:	eb43 0303 	adc.w	r3, r3, r3
     c28:	f413 1f80 	tst.w	r3, #1048576	; 0x100000
     c2c:	bf08      	it	eq
     c2e:	3d01      	subeq	r5, #1
     c30:	d0f7      	beq.n	c22 <__aeabi_dmul+0x1c6>
     c32:	ea43 0306 	orr.w	r3, r3, r6
     c36:	4770      	bx	lr
     c38:	ea94 0f0c 	teq	r4, ip
     c3c:	ea0c 5513 	and.w	r5, ip, r3, lsr #20
     c40:	bf18      	it	ne
     c42:	ea95 0f0c 	teqne	r5, ip
     c46:	d00c      	beq.n	c62 <__aeabi_dmul+0x206>
     c48:	ea50 0641 	orrs.w	r6, r0, r1, lsl #1
     c4c:	bf18      	it	ne
     c4e:	ea52 0643 	orrsne.w	r6, r2, r3, lsl #1
     c52:	d1d1      	bne.n	bf8 <__aeabi_dmul+0x19c>
     c54:	ea81 0103 	eor.w	r1, r1, r3
     c58:	f001 4100 	and.w	r1, r1, #2147483648	; 0x80000000
     c5c:	f04f 0000 	mov.w	r0, #0
     c60:	bd70      	pop	{r4, r5, r6, pc}
     c62:	ea50 0641 	orrs.w	r6, r0, r1, lsl #1
     c66:	bf06      	itte	eq
     c68:	4610      	moveq	r0, r2
     c6a:	4619      	moveq	r1, r3
     c6c:	ea52 0643 	orrsne.w	r6, r2, r3, lsl #1
     c70:	d019      	beq.n	ca6 <__aeabi_dmul+0x24a>
     c72:	ea94 0f0c 	teq	r4, ip
     c76:	d102      	bne.n	c7e <__aeabi_dmul+0x222>
     c78:	ea50 3601 	orrs.w	r6, r0, r1, lsl #12
     c7c:	d113      	bne.n	ca6 <__aeabi_dmul+0x24a>
     c7e:	ea95 0f0c 	teq	r5, ip
     c82:	d105      	bne.n	c90 <__aeabi_dmul+0x234>
     c84:	ea52 3603 	orrs.w	r6, r2, r3, lsl #12
     c88:	bf1c      	itt	ne
     c8a:	4610      	movne	r0, r2
     c8c:	4619      	movne	r1, r3
     c8e:	d10a      	bne.n	ca6 <__aeabi_dmul+0x24a>
     c90:	ea81 0103 	eor.w	r1, r1, r3
     c94:	f001 4100 	and.w	r1, r1, #2147483648	; 0x80000000
     c98:	f041 41fe 	orr.w	r1, r1, #2130706432	; 0x7f000000
     c9c:	f441 0170 	orr.w	r1, r1, #15728640	; 0xf00000
     ca0:	f04f 0000 	mov.w	r0, #0
     ca4:	bd70      	pop	{r4, r5, r6, pc}
     ca6:	f041 41fe 	orr.w	r1, r1, #2130706432	; 0x7f000000
     caa:	f441 0178 	orr.w	r1, r1, #16252928	; 0xf80000
     cae:	bd70      	pop	{r4, r5, r6, pc}

00000cb0 <__aeabi_ddiv>:
     cb0:	b570      	push	{r4, r5, r6, lr}
     cb2:	f04f 0cff 	mov.w	ip, #255	; 0xff
     cb6:	f44c 6ce0 	orr.w	ip, ip, #1792	; 0x700
     cba:	ea1c 5411 	ands.w	r4, ip, r1, lsr #20
     cbe:	bf1d      	ittte	ne
     cc0:	ea1c 5513 	andsne.w	r5, ip, r3, lsr #20
     cc4:	ea94 0f0c 	teqne	r4, ip
     cc8:	ea95 0f0c 	teqne	r5, ip
     ccc:	f000 f8a7 	bleq	e1e <__aeabi_ddiv+0x16e>
     cd0:	eba4 0405 	sub.w	r4, r4, r5
     cd4:	ea81 0e03 	eor.w	lr, r1, r3
     cd8:	ea52 3503 	orrs.w	r5, r2, r3, lsl #12
     cdc:	ea4f 3101 	mov.w	r1, r1, lsl #12
     ce0:	f000 8088 	beq.w	df4 <__aeabi_ddiv+0x144>
     ce4:	ea4f 3303 	mov.w	r3, r3, lsl #12
     ce8:	f04f 5580 	mov.w	r5, #268435456	; 0x10000000
     cec:	ea45 1313 	orr.w	r3, r5, r3, lsr #4
     cf0:	ea43 6312 	orr.w	r3, r3, r2, lsr #24
     cf4:	ea4f 2202 	mov.w	r2, r2, lsl #8
     cf8:	ea45 1511 	orr.w	r5, r5, r1, lsr #4
     cfc:	ea45 6510 	orr.w	r5, r5, r0, lsr #24
     d00:	ea4f 2600 	mov.w	r6, r0, lsl #8
     d04:	f00e 4100 	and.w	r1, lr, #2147483648	; 0x80000000
     d08:	429d      	cmp	r5, r3
     d0a:	bf08      	it	eq
     d0c:	4296      	cmpeq	r6, r2
     d0e:	f144 04fd 	adc.w	r4, r4, #253	; 0xfd
     d12:	f504 7440 	add.w	r4, r4, #768	; 0x300
     d16:	d202      	bcs.n	d1e <__aeabi_ddiv+0x6e>
     d18:	085b      	lsrs	r3, r3, #1
     d1a:	ea4f 0232 	mov.w	r2, r2, rrx
     d1e:	1ab6      	subs	r6, r6, r2
     d20:	eb65 0503 	sbc.w	r5, r5, r3
     d24:	085b      	lsrs	r3, r3, #1
     d26:	ea4f 0232 	mov.w	r2, r2, rrx
     d2a:	f44f 1080 	mov.w	r0, #1048576	; 0x100000
     d2e:	f44f 2c00 	mov.w	ip, #524288	; 0x80000
     d32:	ebb6 0e02 	subs.w	lr, r6, r2
     d36:	eb75 0e03 	sbcs.w	lr, r5, r3
     d3a:	bf22      	ittt	cs
     d3c:	1ab6      	subcs	r6, r6, r2
     d3e:	4675      	movcs	r5, lr
     d40:	ea40 000c 	orrcs.w	r0, r0, ip
     d44:	085b      	lsrs	r3, r3, #1
     d46:	ea4f 0232 	mov.w	r2, r2, rrx
     d4a:	ebb6 0e02 	subs.w	lr, r6, r2
     d4e:	eb75 0e03 	sbcs.w	lr, r5, r3
     d52:	bf22      	ittt	cs
     d54:	1ab6      	subcs	r6, r6, r2
     d56:	4675      	movcs	r5, lr
     d58:	ea40 005c 	orrcs.w	r0, r0, ip, lsr #1
     d5c:	085b      	lsrs	r3, r3, #1
     d5e:	ea4f 0232 	mov.w	r2, r2, rrx
     d62:	ebb6 0e02 	subs.w	lr, r6, r2
     d66:	eb75 0e03 	sbcs.w	lr, r5, r3
     d6a:	bf22      	ittt	cs
     d6c:	1ab6      	subcs	r6, r6, r2
     d6e:	4675      	movcs	r5, lr
     d70:	ea40 009c 	orrcs.w	r0, r0, ip, lsr #2
     d74:	085b      	lsrs	r3, r3, #1
     d76:	ea4f 0232 	mov.w	r2, r2, rrx
     d7a:	ebb6 0e02 	subs.w	lr, r6, r2
     d7e:	eb75 0e03 	sbcs.w	lr, r5, r3
     d82:	bf22      	ittt	cs
     d84:	1ab6      	subcs	r6, r6, r2
     d86:	4675      	movcs	r5, lr
     d88:	ea40 00dc 	orrcs.w	r0, r0, ip, lsr #3
     d8c:	ea55 0e06 	orrs.w	lr, r5, r6
     d90:	d018      	beq.n	dc4 <__aeabi_ddiv+0x114>
     d92:	ea4f 1505 	mov.w	r5, r5, lsl #4
     d96:	ea45 7516 	orr.w	r5, r5, r6, lsr #28
     d9a:	ea4f 1606 	mov.w	r6, r6, lsl #4
     d9e:	ea4f 03c3 	mov.w	r3, r3, lsl #3
     da2:	ea43 7352 	orr.w	r3, r3, r2, lsr #29
     da6:	ea4f 02c2 	mov.w	r2, r2, lsl #3
     daa:	ea5f 1c1c 	movs.w	ip, ip, lsr #4
     dae:	d1c0      	bne.n	d32 <__aeabi_ddiv+0x82>
     db0:	f411 1f80 	tst.w	r1, #1048576	; 0x100000
     db4:	d10b      	bne.n	dce <__aeabi_ddiv+0x11e>
     db6:	ea41 0100 	orr.w	r1, r1, r0
     dba:	f04f 0000 	mov.w	r0, #0
     dbe:	f04f 4c00 	mov.w	ip, #2147483648	; 0x80000000
     dc2:	e7b6      	b.n	d32 <__aeabi_ddiv+0x82>
     dc4:	f411 1f80 	tst.w	r1, #1048576	; 0x100000
     dc8:	bf04      	itt	eq
     dca:	4301      	orreq	r1, r0
     dcc:	2000      	moveq	r0, #0
     dce:	f1b4 0cfd 	subs.w	ip, r4, #253	; 0xfd
     dd2:	bf88      	it	hi
     dd4:	f5bc 6fe0 	cmphi.w	ip, #1792	; 0x700
     dd8:	f63f aeaf 	bhi.w	b3a <__aeabi_dmul+0xde>
     ddc:	ebb5 0c03 	subs.w	ip, r5, r3
     de0:	bf04      	itt	eq
     de2:	ebb6 0c02 	subseq.w	ip, r6, r2
     de6:	ea5f 0c50 	movseq.w	ip, r0, lsr #1
     dea:	f150 0000 	adcs.w	r0, r0, #0
     dee:	eb41 5104 	adc.w	r1, r1, r4, lsl #20
     df2:	bd70      	pop	{r4, r5, r6, pc}
     df4:	f00e 4e00 	and.w	lr, lr, #2147483648	; 0x80000000
     df8:	ea4e 3111 	orr.w	r1, lr, r1, lsr #12
     dfc:	eb14 045c 	adds.w	r4, r4, ip, lsr #1
     e00:	bfc2      	ittt	gt
     e02:	ebd4 050c 	rsbsgt	r5, r4, ip
     e06:	ea41 5104 	orrgt.w	r1, r1, r4, lsl #20
     e0a:	bd70      	popgt	{r4, r5, r6, pc}
     e0c:	f441 1180 	orr.w	r1, r1, #1048576	; 0x100000
     e10:	f04f 0e00 	mov.w	lr, #0
     e14:	3c01      	subs	r4, #1
     e16:	e690      	b.n	b3a <__aeabi_dmul+0xde>
     e18:	ea45 0e06 	orr.w	lr, r5, r6
     e1c:	e68d      	b.n	b3a <__aeabi_dmul+0xde>
     e1e:	ea0c 5513 	and.w	r5, ip, r3, lsr #20
     e22:	ea94 0f0c 	teq	r4, ip
     e26:	bf08      	it	eq
     e28:	ea95 0f0c 	teqeq	r5, ip
     e2c:	f43f af3b 	beq.w	ca6 <__aeabi_dmul+0x24a>
     e30:	ea94 0f0c 	teq	r4, ip
     e34:	d10a      	bne.n	e4c <__aeabi_ddiv+0x19c>
     e36:	ea50 3401 	orrs.w	r4, r0, r1, lsl #12
     e3a:	f47f af34 	bne.w	ca6 <__aeabi_dmul+0x24a>
     e3e:	ea95 0f0c 	teq	r5, ip
     e42:	f47f af25 	bne.w	c90 <__aeabi_dmul+0x234>
     e46:	4610      	mov	r0, r2
     e48:	4619      	mov	r1, r3
     e4a:	e72c      	b.n	ca6 <__aeabi_dmul+0x24a>
     e4c:	ea95 0f0c 	teq	r5, ip
     e50:	d106      	bne.n	e60 <__aeabi_ddiv+0x1b0>
     e52:	ea52 3503 	orrs.w	r5, r2, r3, lsl #12
     e56:	f43f aefd 	beq.w	c54 <__aeabi_dmul+0x1f8>
     e5a:	4610      	mov	r0, r2
     e5c:	4619      	mov	r1, r3
     e5e:	e722      	b.n	ca6 <__aeabi_dmul+0x24a>
     e60:	ea50 0641 	orrs.w	r6, r0, r1, lsl #1
     e64:	bf18      	it	ne
     e66:	ea52 0643 	orrsne.w	r6, r2, r3, lsl #1
     e6a:	f47f aec5 	bne.w	bf8 <__aeabi_dmul+0x19c>
     e6e:	ea50 0441 	orrs.w	r4, r0, r1, lsl #1
     e72:	f47f af0d 	bne.w	c90 <__aeabi_dmul+0x234>
     e76:	ea52 0543 	orrs.w	r5, r2, r3, lsl #1
     e7a:	f47f aeeb 	bne.w	c54 <__aeabi_dmul+0x1f8>
     e7e:	e712      	b.n	ca6 <__aeabi_dmul+0x24a>

00000e80 <__aeabi_d2iz>:
     e80:	ea4f 0241 	mov.w	r2, r1, lsl #1
     e84:	f512 1200 	adds.w	r2, r2, #2097152	; 0x200000
     e88:	d215      	bcs.n	eb6 <__aeabi_d2iz+0x36>
     e8a:	d511      	bpl.n	eb0 <__aeabi_d2iz+0x30>
     e8c:	f46f 7378 	mvn.w	r3, #992	; 0x3e0
     e90:	ebb3 5262 	subs.w	r2, r3, r2, asr #21
     e94:	d912      	bls.n	ebc <__aeabi_d2iz+0x3c>
     e96:	ea4f 23c1 	mov.w	r3, r1, lsl #11
     e9a:	f043 4300 	orr.w	r3, r3, #2147483648	; 0x80000000
     e9e:	ea43 5350 	orr.w	r3, r3, r0, lsr #21
     ea2:	f011 4f00 	tst.w	r1, #2147483648	; 0x80000000
     ea6:	fa23 f002 	lsr.w	r0, r3, r2
     eaa:	bf18      	it	ne
     eac:	4240      	negne	r0, r0
     eae:	4770      	bx	lr
     eb0:	f04f 0000 	mov.w	r0, #0
     eb4:	4770      	bx	lr
     eb6:	ea50 3001 	orrs.w	r0, r0, r1, lsl #12
     eba:	d105      	bne.n	ec8 <__aeabi_d2iz+0x48>
     ebc:	f011 4000 	ands.w	r0, r1, #2147483648	; 0x80000000
     ec0:	bf08      	it	eq
     ec2:	f06f 4000 	mvneq.w	r0, #2147483648	; 0x80000000
     ec6:	4770      	bx	lr
     ec8:	f04f 0000 	mov.w	r0, #0
     ecc:	4770      	bx	lr
     ece:	bf00      	nop

00000ed0 <abort>:
     ed0:	b508      	push	{r3, lr}
     ed2:	2006      	movs	r0, #6
     ed4:	f000 fc4a 	bl	176c <raise>
     ed8:	2001      	movs	r0, #1
     eda:	f7ff fa37 	bl	34c <_exit>
	...

00000ee0 <setup_aeabi_stdio>:
     ee0:	4b05      	ldr	r3, [pc, #20]	; (ef8 <setup_aeabi_stdio+0x18>)
     ee2:	4a06      	ldr	r2, [pc, #24]	; (efc <setup_aeabi_stdio+0x1c>)
     ee4:	681b      	ldr	r3, [r3, #0]
     ee6:	6859      	ldr	r1, [r3, #4]
     ee8:	6011      	str	r1, [r2, #0]
     eea:	6899      	ldr	r1, [r3, #8]
     eec:	4a04      	ldr	r2, [pc, #16]	; (f00 <setup_aeabi_stdio+0x20>)
     eee:	6011      	str	r1, [r2, #0]
     ef0:	68da      	ldr	r2, [r3, #12]
     ef2:	4b04      	ldr	r3, [pc, #16]	; (f04 <setup_aeabi_stdio+0x24>)
     ef4:	601a      	str	r2, [r3, #0]
     ef6:	4770      	bx	lr
     ef8:	10000114 	.word	0x10000114
     efc:	100005d8 	.word	0x100005d8
     f00:	100005dc 	.word	0x100005dc
     f04:	100005e0 	.word	0x100005e0

00000f08 <__cxa_atexit>:
     f08:	b530      	push	{r4, r5, lr}
     f0a:	4605      	mov	r5, r0
     f0c:	460c      	mov	r4, r1
     f0e:	4613      	mov	r3, r2
     f10:	2002      	movs	r0, #2
     f12:	4629      	mov	r1, r5
     f14:	4622      	mov	r2, r4
     f16:	e8bd 4030 	ldmia.w	sp!, {r4, r5, lr}
     f1a:	f001 bd9b 	b.w	2a54 <__register_exitproc>
	...

00000f20 <__libc_init_array>:
     f20:	b570      	push	{r4, r5, r6, lr}
     f22:	2400      	movs	r4, #0
     f24:	4d0c      	ldr	r5, [pc, #48]	; (f58 <__libc_init_array+0x38>)
     f26:	4e0d      	ldr	r6, [pc, #52]	; (f5c <__libc_init_array+0x3c>)
     f28:	1b76      	subs	r6, r6, r5
     f2a:	10b6      	asrs	r6, r6, #2
     f2c:	e003      	b.n	f36 <__libc_init_array+0x16>
     f2e:	f855 3b04 	ldr.w	r3, [r5], #4
     f32:	3401      	adds	r4, #1
     f34:	4798      	blx	r3
     f36:	42b4      	cmp	r4, r6
     f38:	d1f9      	bne.n	f2e <__libc_init_array+0xe>
     f3a:	4d09      	ldr	r5, [pc, #36]	; (f60 <__libc_init_array+0x40>)
     f3c:	f004 f9e0 	bl	5300 <_init>
     f40:	4e08      	ldr	r6, [pc, #32]	; (f64 <__libc_init_array+0x44>)
     f42:	2400      	movs	r4, #0
     f44:	1b76      	subs	r6, r6, r5
     f46:	10b6      	asrs	r6, r6, #2
     f48:	e003      	b.n	f52 <__libc_init_array+0x32>
     f4a:	f855 3b04 	ldr.w	r3, [r5], #4
     f4e:	3401      	adds	r4, #1
     f50:	4798      	blx	r3
     f52:	42b4      	cmp	r4, r6
     f54:	d1f9      	bne.n	f4a <__libc_init_array+0x2a>
     f56:	bd70      	pop	{r4, r5, r6, pc}
     f58:	0000530c 	.word	0x0000530c
     f5c:	00005310 	.word	0x00005310
     f60:	00005310 	.word	0x00005310
     f64:	00005318 	.word	0x00005318

00000f68 <malloc>:
     f68:	4b02      	ldr	r3, [pc, #8]	; (f74 <malloc+0xc>)
     f6a:	4601      	mov	r1, r0
     f6c:	6818      	ldr	r0, [r3, #0]
     f6e:	f000 b80b 	b.w	f88 <_malloc_r>
     f72:	bf00      	nop
     f74:	10000114 	.word	0x10000114

00000f78 <free>:
     f78:	4b02      	ldr	r3, [pc, #8]	; (f84 <free+0xc>)
     f7a:	4601      	mov	r1, r0
     f7c:	6818      	ldr	r0, [r3, #0]
     f7e:	f002 bca9 	b.w	38d4 <_free_r>
     f82:	bf00      	nop
     f84:	10000114 	.word	0x10000114

00000f88 <_malloc_r>:
     f88:	e92d 4ff7 	stmdb	sp!, {r0, r1, r2, r4, r5, r6, r7, r8, r9, sl, fp, lr}
     f8c:	f101 040b 	add.w	r4, r1, #11
     f90:	2c16      	cmp	r4, #22
     f92:	4607      	mov	r7, r0
     f94:	d903      	bls.n	f9e <_malloc_r+0x16>
     f96:	f034 0407 	bics.w	r4, r4, #7
     f9a:	d501      	bpl.n	fa0 <_malloc_r+0x18>
     f9c:	e002      	b.n	fa4 <_malloc_r+0x1c>
     f9e:	2410      	movs	r4, #16
     fa0:	428c      	cmp	r4, r1
     fa2:	d202      	bcs.n	faa <_malloc_r+0x22>
     fa4:	230c      	movs	r3, #12
     fa6:	603b      	str	r3, [r7, #0]
     fa8:	e1d6      	b.n	1358 <_malloc_r+0x3d0>
     faa:	4638      	mov	r0, r7
     fac:	f000 fa21 	bl	13f2 <__malloc_lock>
     fb0:	f5b4 7ffc 	cmp.w	r4, #504	; 0x1f8
     fb4:	4a97      	ldr	r2, [pc, #604]	; (1214 <_malloc_r+0x28c>)
     fb6:	d210      	bcs.n	fda <_malloc_r+0x52>
     fb8:	08e1      	lsrs	r1, r4, #3
     fba:	eb02 02c1 	add.w	r2, r2, r1, lsl #3
     fbe:	68d6      	ldr	r6, [r2, #12]
     fc0:	4296      	cmp	r6, r2
     fc2:	d104      	bne.n	fce <_malloc_r+0x46>
     fc4:	f106 0308 	add.w	r3, r6, #8
     fc8:	6976      	ldr	r6, [r6, #20]
     fca:	429e      	cmp	r6, r3
     fcc:	d003      	beq.n	fd6 <_malloc_r+0x4e>
     fce:	6873      	ldr	r3, [r6, #4]
     fd0:	f023 0303 	bic.w	r3, r3, #3
     fd4:	e02f      	b.n	1036 <_malloc_r+0xae>
     fd6:	3102      	adds	r1, #2
     fd8:	e036      	b.n	1048 <_malloc_r+0xc0>
     fda:	0a61      	lsrs	r1, r4, #9
     fdc:	d101      	bne.n	fe2 <_malloc_r+0x5a>
     fde:	08e1      	lsrs	r1, r4, #3
     fe0:	e01b      	b.n	101a <_malloc_r+0x92>
     fe2:	2904      	cmp	r1, #4
     fe4:	d802      	bhi.n	fec <_malloc_r+0x64>
     fe6:	09a1      	lsrs	r1, r4, #6
     fe8:	3138      	adds	r1, #56	; 0x38
     fea:	e016      	b.n	101a <_malloc_r+0x92>
     fec:	2914      	cmp	r1, #20
     fee:	d801      	bhi.n	ff4 <_malloc_r+0x6c>
     ff0:	315b      	adds	r1, #91	; 0x5b
     ff2:	e012      	b.n	101a <_malloc_r+0x92>
     ff4:	2954      	cmp	r1, #84	; 0x54
     ff6:	d802      	bhi.n	ffe <_malloc_r+0x76>
     ff8:	0b21      	lsrs	r1, r4, #12
     ffa:	316e      	adds	r1, #110	; 0x6e
     ffc:	e00d      	b.n	101a <_malloc_r+0x92>
     ffe:	f5b1 7faa 	cmp.w	r1, #340	; 0x154
    1002:	d802      	bhi.n	100a <_malloc_r+0x82>
    1004:	0be1      	lsrs	r1, r4, #15
    1006:	3177      	adds	r1, #119	; 0x77
    1008:	e007      	b.n	101a <_malloc_r+0x92>
    100a:	f240 5354 	movw	r3, #1364	; 0x554
    100e:	4299      	cmp	r1, r3
    1010:	d802      	bhi.n	1018 <_malloc_r+0x90>
    1012:	0ca1      	lsrs	r1, r4, #18
    1014:	317c      	adds	r1, #124	; 0x7c
    1016:	e000      	b.n	101a <_malloc_r+0x92>
    1018:	217e      	movs	r1, #126	; 0x7e
    101a:	eb02 02c1 	add.w	r2, r2, r1, lsl #3
    101e:	68d6      	ldr	r6, [r2, #12]
    1020:	e00f      	b.n	1042 <_malloc_r+0xba>
    1022:	6873      	ldr	r3, [r6, #4]
    1024:	f023 0303 	bic.w	r3, r3, #3
    1028:	1b18      	subs	r0, r3, r4
    102a:	280f      	cmp	r0, #15
    102c:	dd01      	ble.n	1032 <_malloc_r+0xaa>
    102e:	3901      	subs	r1, #1
    1030:	e009      	b.n	1046 <_malloc_r+0xbe>
    1032:	2800      	cmp	r0, #0
    1034:	db04      	blt.n	1040 <_malloc_r+0xb8>
    1036:	68f2      	ldr	r2, [r6, #12]
    1038:	68b1      	ldr	r1, [r6, #8]
    103a:	60ca      	str	r2, [r1, #12]
    103c:	6091      	str	r1, [r2, #8]
    103e:	e020      	b.n	1082 <_malloc_r+0xfa>
    1040:	68f6      	ldr	r6, [r6, #12]
    1042:	4296      	cmp	r6, r2
    1044:	d1ed      	bne.n	1022 <_malloc_r+0x9a>
    1046:	3101      	adds	r1, #1
    1048:	4d72      	ldr	r5, [pc, #456]	; (1214 <_malloc_r+0x28c>)
    104a:	f105 0208 	add.w	r2, r5, #8
    104e:	6896      	ldr	r6, [r2, #8]
    1050:	4296      	cmp	r6, r2
    1052:	d077      	beq.n	1144 <_malloc_r+0x1bc>
    1054:	6873      	ldr	r3, [r6, #4]
    1056:	f023 0303 	bic.w	r3, r3, #3
    105a:	1b18      	subs	r0, r3, r4
    105c:	280f      	cmp	r0, #15
    105e:	dd0c      	ble.n	107a <_malloc_r+0xf2>
    1060:	1933      	adds	r3, r6, r4
    1062:	f044 0401 	orr.w	r4, r4, #1
    1066:	60d3      	str	r3, [r2, #12]
    1068:	6093      	str	r3, [r2, #8]
    106a:	6074      	str	r4, [r6, #4]
    106c:	60da      	str	r2, [r3, #12]
    106e:	609a      	str	r2, [r3, #8]
    1070:	f040 0201 	orr.w	r2, r0, #1
    1074:	5018      	str	r0, [r3, r0]
    1076:	605a      	str	r2, [r3, #4]
    1078:	e179      	b.n	136e <_malloc_r+0x3e6>
    107a:	2800      	cmp	r0, #0
    107c:	60d2      	str	r2, [r2, #12]
    107e:	6092      	str	r2, [r2, #8]
    1080:	db05      	blt.n	108e <_malloc_r+0x106>
    1082:	18f3      	adds	r3, r6, r3
    1084:	685a      	ldr	r2, [r3, #4]
    1086:	f042 0201 	orr.w	r2, r2, #1
    108a:	605a      	str	r2, [r3, #4]
    108c:	e16f      	b.n	136e <_malloc_r+0x3e6>
    108e:	f5b3 7f00 	cmp.w	r3, #512	; 0x200
    1092:	d20e      	bcs.n	10b2 <_malloc_r+0x12a>
    1094:	08db      	lsrs	r3, r3, #3
    1096:	f04f 0e01 	mov.w	lr, #1
    109a:	1098      	asrs	r0, r3, #2
    109c:	eb05 03c3 	add.w	r3, r5, r3, lsl #3
    10a0:	fa0e f000 	lsl.w	r0, lr, r0
    10a4:	f8d5 e004 	ldr.w	lr, [r5, #4]
    10a8:	ea4e 0000 	orr.w	r0, lr, r0
    10ac:	6068      	str	r0, [r5, #4]
    10ae:	6898      	ldr	r0, [r3, #8]
    10b0:	e044      	b.n	113c <_malloc_r+0x1b4>
    10b2:	ea4f 2e53 	mov.w	lr, r3, lsr #9
    10b6:	f1be 0f04 	cmp.w	lr, #4
    10ba:	d804      	bhi.n	10c6 <_malloc_r+0x13e>
    10bc:	ea4f 1e93 	mov.w	lr, r3, lsr #6
    10c0:	f10e 0e38 	add.w	lr, lr, #56	; 0x38
    10c4:	e01f      	b.n	1106 <_malloc_r+0x17e>
    10c6:	f1be 0f14 	cmp.w	lr, #20
    10ca:	d802      	bhi.n	10d2 <_malloc_r+0x14a>
    10cc:	f10e 0e5b 	add.w	lr, lr, #91	; 0x5b
    10d0:	e019      	b.n	1106 <_malloc_r+0x17e>
    10d2:	f1be 0f54 	cmp.w	lr, #84	; 0x54
    10d6:	d804      	bhi.n	10e2 <_malloc_r+0x15a>
    10d8:	ea4f 3e13 	mov.w	lr, r3, lsr #12
    10dc:	f10e 0e6e 	add.w	lr, lr, #110	; 0x6e
    10e0:	e011      	b.n	1106 <_malloc_r+0x17e>
    10e2:	f5be 7faa 	cmp.w	lr, #340	; 0x154
    10e6:	d804      	bhi.n	10f2 <_malloc_r+0x16a>
    10e8:	ea4f 3ed3 	mov.w	lr, r3, lsr #15
    10ec:	f10e 0e77 	add.w	lr, lr, #119	; 0x77
    10f0:	e009      	b.n	1106 <_malloc_r+0x17e>
    10f2:	f240 5054 	movw	r0, #1364	; 0x554
    10f6:	4586      	cmp	lr, r0
    10f8:	bf96      	itet	ls
    10fa:	ea4f 4e93 	movls.w	lr, r3, lsr #18
    10fe:	f04f 0e7e 	movhi.w	lr, #126	; 0x7e
    1102:	f10e 0e7c 	addls.w	lr, lr, #124	; 0x7c
    1106:	eb05 0cce 	add.w	ip, r5, lr, lsl #3
    110a:	f8dc 0008 	ldr.w	r0, [ip, #8]
    110e:	4560      	cmp	r0, ip
    1110:	d10d      	bne.n	112e <_malloc_r+0x1a6>
    1112:	2301      	movs	r3, #1
    1114:	ea4f 0eae 	mov.w	lr, lr, asr #2
    1118:	fa03 fe0e 	lsl.w	lr, r3, lr
    111c:	686b      	ldr	r3, [r5, #4]
    111e:	ea43 030e 	orr.w	r3, r3, lr
    1122:	606b      	str	r3, [r5, #4]
    1124:	4603      	mov	r3, r0
    1126:	e009      	b.n	113c <_malloc_r+0x1b4>
    1128:	6880      	ldr	r0, [r0, #8]
    112a:	4560      	cmp	r0, ip
    112c:	d005      	beq.n	113a <_malloc_r+0x1b2>
    112e:	f8d0 e004 	ldr.w	lr, [r0, #4]
    1132:	f02e 0e03 	bic.w	lr, lr, #3
    1136:	4573      	cmp	r3, lr
    1138:	d3f6      	bcc.n	1128 <_malloc_r+0x1a0>
    113a:	68c3      	ldr	r3, [r0, #12]
    113c:	60f3      	str	r3, [r6, #12]
    113e:	60b0      	str	r0, [r6, #8]
    1140:	609e      	str	r6, [r3, #8]
    1142:	60c6      	str	r6, [r0, #12]
    1144:	2001      	movs	r0, #1
    1146:	108b      	asrs	r3, r1, #2
    1148:	fa10 f303 	lsls.w	r3, r0, r3
    114c:	6868      	ldr	r0, [r5, #4]
    114e:	4283      	cmp	r3, r0
    1150:	d862      	bhi.n	1218 <_malloc_r+0x290>
    1152:	4203      	tst	r3, r0
    1154:	d105      	bne.n	1162 <_malloc_r+0x1da>
    1156:	f021 0103 	bic.w	r1, r1, #3
    115a:	005b      	lsls	r3, r3, #1
    115c:	3104      	adds	r1, #4
    115e:	4203      	tst	r3, r0
    1160:	d0fb      	beq.n	115a <_malloc_r+0x1d2>
    1162:	eb05 09c1 	add.w	r9, r5, r1, lsl #3
    1166:	468e      	mov	lr, r1
    1168:	46cc      	mov	ip, r9
    116a:	f8dc 600c 	ldr.w	r6, [ip, #12]
    116e:	e02a      	b.n	11c6 <_malloc_r+0x23e>
    1170:	6870      	ldr	r0, [r6, #4]
    1172:	f020 0803 	bic.w	r8, r0, #3
    1176:	ebc4 0008 	rsb	r0, r4, r8
    117a:	280f      	cmp	r0, #15
    117c:	dd11      	ble.n	11a2 <_malloc_r+0x21a>
    117e:	1933      	adds	r3, r6, r4
    1180:	68f1      	ldr	r1, [r6, #12]
    1182:	f044 0401 	orr.w	r4, r4, #1
    1186:	6074      	str	r4, [r6, #4]
    1188:	f856 4f08 	ldr.w	r4, [r6, #8]!
    118c:	5018      	str	r0, [r3, r0]
    118e:	60e1      	str	r1, [r4, #12]
    1190:	608c      	str	r4, [r1, #8]
    1192:	60d3      	str	r3, [r2, #12]
    1194:	6093      	str	r3, [r2, #8]
    1196:	60da      	str	r2, [r3, #12]
    1198:	609a      	str	r2, [r3, #8]
    119a:	f040 0201 	orr.w	r2, r0, #1
    119e:	605a      	str	r2, [r3, #4]
    11a0:	e00c      	b.n	11bc <_malloc_r+0x234>
    11a2:	2800      	cmp	r0, #0
    11a4:	db0e      	blt.n	11c4 <_malloc_r+0x23c>
    11a6:	eb06 0308 	add.w	r3, r6, r8
    11aa:	685a      	ldr	r2, [r3, #4]
    11ac:	f042 0201 	orr.w	r2, r2, #1
    11b0:	605a      	str	r2, [r3, #4]
    11b2:	68f3      	ldr	r3, [r6, #12]
    11b4:	f856 2f08 	ldr.w	r2, [r6, #8]!
    11b8:	60d3      	str	r3, [r2, #12]
    11ba:	609a      	str	r2, [r3, #8]
    11bc:	4638      	mov	r0, r7
    11be:	f000 f919 	bl	13f4 <__malloc_unlock>
    11c2:	e0d8      	b.n	1376 <_malloc_r+0x3ee>
    11c4:	68f6      	ldr	r6, [r6, #12]
    11c6:	4566      	cmp	r6, ip
    11c8:	d1d2      	bne.n	1170 <_malloc_r+0x1e8>
    11ca:	f10e 0e01 	add.w	lr, lr, #1
    11ce:	f01e 0f03 	tst.w	lr, #3
    11d2:	d101      	bne.n	11d8 <_malloc_r+0x250>
    11d4:	4648      	mov	r0, r9
    11d6:	e002      	b.n	11de <_malloc_r+0x256>
    11d8:	f10c 0c08 	add.w	ip, ip, #8
    11dc:	e7c5      	b.n	116a <_malloc_r+0x1e2>
    11de:	f011 0f03 	tst.w	r1, #3
    11e2:	d104      	bne.n	11ee <_malloc_r+0x266>
    11e4:	6869      	ldr	r1, [r5, #4]
    11e6:	ea21 0103 	bic.w	r1, r1, r3
    11ea:	6069      	str	r1, [r5, #4]
    11ec:	e006      	b.n	11fc <_malloc_r+0x274>
    11ee:	4606      	mov	r6, r0
    11f0:	f856 0908 	ldr.w	r0, [r6], #-8
    11f4:	42b0      	cmp	r0, r6
    11f6:	d101      	bne.n	11fc <_malloc_r+0x274>
    11f8:	3901      	subs	r1, #1
    11fa:	e7f0      	b.n	11de <_malloc_r+0x256>
    11fc:	6868      	ldr	r0, [r5, #4]
    11fe:	005b      	lsls	r3, r3, #1
    1200:	4283      	cmp	r3, r0
    1202:	d809      	bhi.n	1218 <_malloc_r+0x290>
    1204:	b143      	cbz	r3, 1218 <_malloc_r+0x290>
    1206:	4671      	mov	r1, lr
    1208:	e001      	b.n	120e <_malloc_r+0x286>
    120a:	3104      	adds	r1, #4
    120c:	005b      	lsls	r3, r3, #1
    120e:	4203      	tst	r3, r0
    1210:	d1a7      	bne.n	1162 <_malloc_r+0x1da>
    1212:	e7fa      	b.n	120a <_malloc_r+0x282>
    1214:	10000118 	.word	0x10000118
    1218:	f8d5 8008 	ldr.w	r8, [r5, #8]
    121c:	f8d8 3004 	ldr.w	r3, [r8, #4]
    1220:	f023 0903 	bic.w	r9, r3, #3
    1224:	45a1      	cmp	r9, r4
    1226:	d304      	bcc.n	1232 <_malloc_r+0x2aa>
    1228:	ebc4 0309 	rsb	r3, r4, r9
    122c:	2b0f      	cmp	r3, #15
    122e:	f300 8095 	bgt.w	135c <_malloc_r+0x3d4>
    1232:	4b52      	ldr	r3, [pc, #328]	; (137c <_malloc_r+0x3f4>)
    1234:	4638      	mov	r0, r7
    1236:	681b      	ldr	r3, [r3, #0]
    1238:	f103 0a10 	add.w	sl, r3, #16
    123c:	4b50      	ldr	r3, [pc, #320]	; (1380 <_malloc_r+0x3f8>)
    123e:	44a2      	add	sl, r4
    1240:	681a      	ldr	r2, [r3, #0]
    1242:	9301      	str	r3, [sp, #4]
    1244:	f1b2 3fff 	cmp.w	r2, #4294967295	; 0xffffffff
    1248:	bf1c      	itt	ne
    124a:	f10a 0a7f 	addne.w	sl, sl, #127	; 0x7f
    124e:	f02a 0a7f 	bicne.w	sl, sl, #127	; 0x7f
    1252:	4651      	mov	r1, sl
    1254:	f000 fa4c 	bl	16f0 <_sbrk_r>
    1258:	9b01      	ldr	r3, [sp, #4]
    125a:	f1b0 3fff 	cmp.w	r0, #4294967295	; 0xffffffff
    125e:	4606      	mov	r6, r0
    1260:	d06e      	beq.n	1340 <_malloc_r+0x3b8>
    1262:	eb08 0209 	add.w	r2, r8, r9
    1266:	4290      	cmp	r0, r2
    1268:	d201      	bcs.n	126e <_malloc_r+0x2e6>
    126a:	45a8      	cmp	r8, r5
    126c:	d168      	bne.n	1340 <_malloc_r+0x3b8>
    126e:	4945      	ldr	r1, [pc, #276]	; (1384 <_malloc_r+0x3fc>)
    1270:	4296      	cmp	r6, r2
    1272:	468b      	mov	fp, r1
    1274:	6808      	ldr	r0, [r1, #0]
    1276:	4450      	add	r0, sl
    1278:	6008      	str	r0, [r1, #0]
    127a:	d108      	bne.n	128e <_malloc_r+0x306>
    127c:	f016 0f7f 	tst.w	r6, #127	; 0x7f
    1280:	d105      	bne.n	128e <_malloc_r+0x306>
    1282:	68ab      	ldr	r3, [r5, #8]
    1284:	44d1      	add	r9, sl
    1286:	f049 0201 	orr.w	r2, r9, #1
    128a:	605a      	str	r2, [r3, #4]
    128c:	e04c      	b.n	1328 <_malloc_r+0x3a0>
    128e:	681b      	ldr	r3, [r3, #0]
    1290:	f1b3 3fff 	cmp.w	r3, #4294967295	; 0xffffffff
    1294:	d102      	bne.n	129c <_malloc_r+0x314>
    1296:	4b3a      	ldr	r3, [pc, #232]	; (1380 <_malloc_r+0x3f8>)
    1298:	601e      	str	r6, [r3, #0]
    129a:	e003      	b.n	12a4 <_malloc_r+0x31c>
    129c:	1830      	adds	r0, r6, r0
    129e:	1a82      	subs	r2, r0, r2
    12a0:	f8cb 2000 	str.w	r2, [fp]
    12a4:	f016 0307 	ands.w	r3, r6, #7
    12a8:	4638      	mov	r0, r7
    12aa:	bf1c      	itt	ne
    12ac:	f1c3 0308 	rsbne	r3, r3, #8
    12b0:	18f6      	addne	r6, r6, r3
    12b2:	3380      	adds	r3, #128	; 0x80
    12b4:	44b2      	add	sl, r6
    12b6:	f00a 0a7f 	and.w	sl, sl, #127	; 0x7f
    12ba:	ebca 0a03 	rsb	sl, sl, r3
    12be:	4651      	mov	r1, sl
    12c0:	f000 fa16 	bl	16f0 <_sbrk_r>
    12c4:	f8db 3000 	ldr.w	r3, [fp]
    12c8:	60ae      	str	r6, [r5, #8]
    12ca:	f1b0 3fff 	cmp.w	r0, #4294967295	; 0xffffffff
    12ce:	bf04      	itt	eq
    12d0:	4630      	moveq	r0, r6
    12d2:	f04f 0a00 	moveq.w	sl, #0
    12d6:	1b80      	subs	r0, r0, r6
    12d8:	45a8      	cmp	r8, r5
    12da:	4450      	add	r0, sl
    12dc:	4453      	add	r3, sl
    12de:	f040 0001 	orr.w	r0, r0, #1
    12e2:	f8cb 3000 	str.w	r3, [fp]
    12e6:	6070      	str	r0, [r6, #4]
    12e8:	d01e      	beq.n	1328 <_malloc_r+0x3a0>
    12ea:	f1b9 0f0f 	cmp.w	r9, #15
    12ee:	d802      	bhi.n	12f6 <_malloc_r+0x36e>
    12f0:	2301      	movs	r3, #1
    12f2:	6073      	str	r3, [r6, #4]
    12f4:	e024      	b.n	1340 <_malloc_r+0x3b8>
    12f6:	f8d8 3004 	ldr.w	r3, [r8, #4]
    12fa:	f1a9 090c 	sub.w	r9, r9, #12
    12fe:	f029 0907 	bic.w	r9, r9, #7
    1302:	2205      	movs	r2, #5
    1304:	f003 0301 	and.w	r3, r3, #1
    1308:	f1b9 0f0f 	cmp.w	r9, #15
    130c:	ea49 0303 	orr.w	r3, r9, r3
    1310:	f8c8 3004 	str.w	r3, [r8, #4]
    1314:	eb08 0309 	add.w	r3, r8, r9
    1318:	605a      	str	r2, [r3, #4]
    131a:	609a      	str	r2, [r3, #8]
    131c:	d904      	bls.n	1328 <_malloc_r+0x3a0>
    131e:	4638      	mov	r0, r7
    1320:	f108 0108 	add.w	r1, r8, #8
    1324:	f002 fad6 	bl	38d4 <_free_r>
    1328:	4a17      	ldr	r2, [pc, #92]	; (1388 <_malloc_r+0x400>)
    132a:	f8db 3000 	ldr.w	r3, [fp]
    132e:	6811      	ldr	r1, [r2, #0]
    1330:	428b      	cmp	r3, r1
    1332:	bf88      	it	hi
    1334:	6013      	strhi	r3, [r2, #0]
    1336:	4a15      	ldr	r2, [pc, #84]	; (138c <_malloc_r+0x404>)
    1338:	6811      	ldr	r1, [r2, #0]
    133a:	428b      	cmp	r3, r1
    133c:	bf88      	it	hi
    133e:	6013      	strhi	r3, [r2, #0]
    1340:	68ab      	ldr	r3, [r5, #8]
    1342:	685b      	ldr	r3, [r3, #4]
    1344:	f023 0303 	bic.w	r3, r3, #3
    1348:	42a3      	cmp	r3, r4
    134a:	d302      	bcc.n	1352 <_malloc_r+0x3ca>
    134c:	1b1b      	subs	r3, r3, r4
    134e:	2b0f      	cmp	r3, #15
    1350:	dc04      	bgt.n	135c <_malloc_r+0x3d4>
    1352:	4638      	mov	r0, r7
    1354:	f000 f84e 	bl	13f4 <__malloc_unlock>
    1358:	2600      	movs	r6, #0
    135a:	e00c      	b.n	1376 <_malloc_r+0x3ee>
    135c:	68ae      	ldr	r6, [r5, #8]
    135e:	f044 0201 	orr.w	r2, r4, #1
    1362:	f043 0301 	orr.w	r3, r3, #1
    1366:	1934      	adds	r4, r6, r4
    1368:	60ac      	str	r4, [r5, #8]
    136a:	6072      	str	r2, [r6, #4]
    136c:	6063      	str	r3, [r4, #4]
    136e:	4638      	mov	r0, r7
    1370:	3608      	adds	r6, #8
    1372:	f000 f83f 	bl	13f4 <__malloc_unlock>
    1376:	4630      	mov	r0, r6
    1378:	e8bd 8ffe 	ldmia.w	sp!, {r1, r2, r3, r4, r5, r6, r7, r8, r9, sl, fp, pc}
    137c:	100005ac 	.word	0x100005ac
    1380:	10000524 	.word	0x10000524
    1384:	100005b0 	.word	0x100005b0
    1388:	100005a8 	.word	0x100005a8
    138c:	100005a4 	.word	0x100005a4

00001390 <memchr>:
    1390:	b510      	push	{r4, lr}
    1392:	b2c9      	uxtb	r1, r1
    1394:	e003      	b.n	139e <memchr+0xe>
    1396:	f810 4b01 	ldrb.w	r4, [r0], #1
    139a:	428c      	cmp	r4, r1
    139c:	d004      	beq.n	13a8 <memchr+0x18>
    139e:	3a01      	subs	r2, #1
    13a0:	4603      	mov	r3, r0
    13a2:	d2f8      	bcs.n	1396 <memchr+0x6>
    13a4:	2000      	movs	r0, #0
    13a6:	bd10      	pop	{r4, pc}
    13a8:	4618      	mov	r0, r3
    13aa:	bd10      	pop	{r4, pc}

000013ac <memcpy>:
    13ac:	b510      	push	{r4, lr}
    13ae:	1882      	adds	r2, r0, r2
    13b0:	4603      	mov	r3, r0
    13b2:	e003      	b.n	13bc <memcpy+0x10>
    13b4:	f811 4b01 	ldrb.w	r4, [r1], #1
    13b8:	f803 4b01 	strb.w	r4, [r3], #1
    13bc:	4293      	cmp	r3, r2
    13be:	d3f9      	bcc.n	13b4 <memcpy+0x8>
    13c0:	bd10      	pop	{r4, pc}

000013c2 <memmove>:
    13c2:	4281      	cmp	r1, r0
    13c4:	b510      	push	{r4, lr}
    13c6:	4604      	mov	r4, r0
    13c8:	d210      	bcs.n	13ec <memmove+0x2a>
    13ca:	188b      	adds	r3, r1, r2
    13cc:	4298      	cmp	r0, r3
    13ce:	d20d      	bcs.n	13ec <memmove+0x2a>
    13d0:	4619      	mov	r1, r3
    13d2:	1883      	adds	r3, r0, r2
    13d4:	e003      	b.n	13de <memmove+0x1c>
    13d6:	f811 4d01 	ldrb.w	r4, [r1, #-1]!
    13da:	f803 4d01 	strb.w	r4, [r3, #-1]!
    13de:	3a01      	subs	r2, #1
    13e0:	d2f9      	bcs.n	13d6 <memmove+0x14>
    13e2:	bd10      	pop	{r4, pc}
    13e4:	f811 3b01 	ldrb.w	r3, [r1], #1
    13e8:	f804 3b01 	strb.w	r3, [r4], #1
    13ec:	3a01      	subs	r2, #1
    13ee:	d2f9      	bcs.n	13e4 <memmove+0x22>
    13f0:	bd10      	pop	{r4, pc}

000013f2 <__malloc_lock>:
    13f2:	4770      	bx	lr

000013f4 <__malloc_unlock>:
    13f4:	4770      	bx	lr
	...

000013f8 <_realloc_r>:
    13f8:	e92d 4ff7 	stmdb	sp!, {r0, r1, r2, r4, r5, r6, r7, r8, r9, sl, fp, lr}
    13fc:	4681      	mov	r9, r0
    13fe:	4617      	mov	r7, r2
    1400:	460e      	mov	r6, r1
    1402:	b929      	cbnz	r1, 1410 <_realloc_r+0x18>
    1404:	4611      	mov	r1, r2
    1406:	b003      	add	sp, #12
    1408:	e8bd 4ff0 	ldmia.w	sp!, {r4, r5, r6, r7, r8, r9, sl, fp, lr}
    140c:	f7ff bdbc 	b.w	f88 <_malloc_r>
    1410:	f107 050b 	add.w	r5, r7, #11
    1414:	f7ff ffed 	bl	13f2 <__malloc_lock>
    1418:	f1a6 0a08 	sub.w	sl, r6, #8
    141c:	2d16      	cmp	r5, #22
    141e:	f8da 2004 	ldr.w	r2, [sl, #4]
    1422:	d903      	bls.n	142c <_realloc_r+0x34>
    1424:	f035 0507 	bics.w	r5, r5, #7
    1428:	d501      	bpl.n	142e <_realloc_r+0x36>
    142a:	e002      	b.n	1432 <_realloc_r+0x3a>
    142c:	2510      	movs	r5, #16
    142e:	42bd      	cmp	r5, r7
    1430:	d204      	bcs.n	143c <_realloc_r+0x44>
    1432:	230c      	movs	r3, #12
    1434:	2700      	movs	r7, #0
    1436:	f8c9 3000 	str.w	r3, [r9]
    143a:	e155      	b.n	16e8 <_realloc_r+0x2f0>
    143c:	f022 0b03 	bic.w	fp, r2, #3
    1440:	45ab      	cmp	fp, r5
    1442:	f280 8126 	bge.w	1692 <_realloc_r+0x29a>
    1446:	4b9f      	ldr	r3, [pc, #636]	; (16c4 <_realloc_r+0x2cc>)
    1448:	eb0a 010b 	add.w	r1, sl, fp
    144c:	f8d3 e008 	ldr.w	lr, [r3, #8]
    1450:	4571      	cmp	r1, lr
    1452:	d007      	beq.n	1464 <_realloc_r+0x6c>
    1454:	6848      	ldr	r0, [r1, #4]
    1456:	f020 0001 	bic.w	r0, r0, #1
    145a:	1808      	adds	r0, r1, r0
    145c:	6840      	ldr	r0, [r0, #4]
    145e:	f010 0f01 	tst.w	r0, #1
    1462:	d125      	bne.n	14b0 <_realloc_r+0xb8>
    1464:	6848      	ldr	r0, [r1, #4]
    1466:	4571      	cmp	r1, lr
    1468:	f020 0003 	bic.w	r0, r0, #3
    146c:	eb00 080b 	add.w	r8, r0, fp
    1470:	d117      	bne.n	14a2 <_realloc_r+0xaa>
    1472:	f105 0410 	add.w	r4, r5, #16
    1476:	45a0      	cmp	r8, r4
    1478:	db1c      	blt.n	14b4 <_realloc_r+0xbc>
    147a:	eb0a 0205 	add.w	r2, sl, r5
    147e:	ebc5 0808 	rsb	r8, r5, r8
    1482:	609a      	str	r2, [r3, #8]
    1484:	f048 0301 	orr.w	r3, r8, #1
    1488:	6053      	str	r3, [r2, #4]
    148a:	4648      	mov	r0, r9
    148c:	f8da 3004 	ldr.w	r3, [sl, #4]
    1490:	4637      	mov	r7, r6
    1492:	f003 0301 	and.w	r3, r3, #1
    1496:	431d      	orrs	r5, r3
    1498:	f8ca 5004 	str.w	r5, [sl, #4]
    149c:	f7ff ffaa 	bl	13f4 <__malloc_unlock>
    14a0:	e122      	b.n	16e8 <_realloc_r+0x2f0>
    14a2:	45a8      	cmp	r8, r5
    14a4:	db06      	blt.n	14b4 <_realloc_r+0xbc>
    14a6:	68cb      	ldr	r3, [r1, #12]
    14a8:	688a      	ldr	r2, [r1, #8]
    14aa:	60d3      	str	r3, [r2, #12]
    14ac:	609a      	str	r2, [r3, #8]
    14ae:	e0f1      	b.n	1694 <_realloc_r+0x29c>
    14b0:	2000      	movs	r0, #0
    14b2:	4601      	mov	r1, r0
    14b4:	f012 0f01 	tst.w	r2, #1
    14b8:	f040 809c 	bne.w	15f4 <_realloc_r+0x1fc>
    14bc:	f856 4c08 	ldr.w	r4, [r6, #-8]
    14c0:	ebc4 040a 	rsb	r4, r4, sl
    14c4:	6862      	ldr	r2, [r4, #4]
    14c6:	f022 0203 	bic.w	r2, r2, #3
    14ca:	2900      	cmp	r1, #0
    14cc:	d057      	beq.n	157e <_realloc_r+0x186>
    14ce:	4571      	cmp	r1, lr
    14d0:	eb02 080b 	add.w	r8, r2, fp
    14d4:	d14b      	bne.n	156e <_realloc_r+0x176>
    14d6:	4480      	add	r8, r0
    14d8:	f105 0110 	add.w	r1, r5, #16
    14dc:	4588      	cmp	r8, r1
    14de:	db4e      	blt.n	157e <_realloc_r+0x186>
    14e0:	4627      	mov	r7, r4
    14e2:	68e2      	ldr	r2, [r4, #12]
    14e4:	f857 1f08 	ldr.w	r1, [r7, #8]!
    14e8:	60ca      	str	r2, [r1, #12]
    14ea:	6091      	str	r1, [r2, #8]
    14ec:	f1ab 0204 	sub.w	r2, fp, #4
    14f0:	2a24      	cmp	r2, #36	; 0x24
    14f2:	d829      	bhi.n	1548 <_realloc_r+0x150>
    14f4:	2a13      	cmp	r2, #19
    14f6:	4639      	mov	r1, r7
    14f8:	d91b      	bls.n	1532 <_realloc_r+0x13a>
    14fa:	4630      	mov	r0, r6
    14fc:	f850 1b04 	ldr.w	r1, [r0], #4
    1500:	60a1      	str	r1, [r4, #8]
    1502:	6871      	ldr	r1, [r6, #4]
    1504:	1d06      	adds	r6, r0, #4
    1506:	2a1b      	cmp	r2, #27
    1508:	60e1      	str	r1, [r4, #12]
    150a:	f104 0110 	add.w	r1, r4, #16
    150e:	d910      	bls.n	1532 <_realloc_r+0x13a>
    1510:	6841      	ldr	r1, [r0, #4]
    1512:	1d30      	adds	r0, r6, #4
    1514:	6121      	str	r1, [r4, #16]
    1516:	6871      	ldr	r1, [r6, #4]
    1518:	3608      	adds	r6, #8
    151a:	2a24      	cmp	r2, #36	; 0x24
    151c:	6161      	str	r1, [r4, #20]
    151e:	f104 0118 	add.w	r1, r4, #24
    1522:	d106      	bne.n	1532 <_realloc_r+0x13a>
    1524:	6842      	ldr	r2, [r0, #4]
    1526:	f104 0120 	add.w	r1, r4, #32
    152a:	61a2      	str	r2, [r4, #24]
    152c:	6872      	ldr	r2, [r6, #4]
    152e:	3608      	adds	r6, #8
    1530:	61e2      	str	r2, [r4, #28]
    1532:	4630      	mov	r0, r6
    1534:	460a      	mov	r2, r1
    1536:	f850 eb04 	ldr.w	lr, [r0], #4
    153a:	f842 eb04 	str.w	lr, [r2], #4
    153e:	6876      	ldr	r6, [r6, #4]
    1540:	604e      	str	r6, [r1, #4]
    1542:	6841      	ldr	r1, [r0, #4]
    1544:	6051      	str	r1, [r2, #4]
    1546:	e005      	b.n	1554 <_realloc_r+0x15c>
    1548:	4638      	mov	r0, r7
    154a:	4631      	mov	r1, r6
    154c:	9301      	str	r3, [sp, #4]
    154e:	f7ff ff38 	bl	13c2 <memmove>
    1552:	9b01      	ldr	r3, [sp, #4]
    1554:	1962      	adds	r2, r4, r5
    1556:	ebc5 0808 	rsb	r8, r5, r8
    155a:	609a      	str	r2, [r3, #8]
    155c:	f048 0301 	orr.w	r3, r8, #1
    1560:	6053      	str	r3, [r2, #4]
    1562:	6863      	ldr	r3, [r4, #4]
    1564:	f003 0301 	and.w	r3, r3, #1
    1568:	431d      	orrs	r5, r3
    156a:	6065      	str	r5, [r4, #4]
    156c:	e08d      	b.n	168a <_realloc_r+0x292>
    156e:	4480      	add	r8, r0
    1570:	45a8      	cmp	r8, r5
    1572:	db04      	blt.n	157e <_realloc_r+0x186>
    1574:	68cb      	ldr	r3, [r1, #12]
    1576:	688a      	ldr	r2, [r1, #8]
    1578:	60d3      	str	r3, [r2, #12]
    157a:	609a      	str	r2, [r3, #8]
    157c:	e003      	b.n	1586 <_realloc_r+0x18e>
    157e:	eb02 080b 	add.w	r8, r2, fp
    1582:	45a8      	cmp	r8, r5
    1584:	db36      	blt.n	15f4 <_realloc_r+0x1fc>
    1586:	4620      	mov	r0, r4
    1588:	68e3      	ldr	r3, [r4, #12]
    158a:	f850 2f08 	ldr.w	r2, [r0, #8]!
    158e:	60d3      	str	r3, [r2, #12]
    1590:	609a      	str	r2, [r3, #8]
    1592:	f1ab 0204 	sub.w	r2, fp, #4
    1596:	2a24      	cmp	r2, #36	; 0x24
    1598:	d828      	bhi.n	15ec <_realloc_r+0x1f4>
    159a:	2a13      	cmp	r2, #19
    159c:	d91b      	bls.n	15d6 <_realloc_r+0x1de>
    159e:	4633      	mov	r3, r6
    15a0:	f104 0010 	add.w	r0, r4, #16
    15a4:	f853 1b04 	ldr.w	r1, [r3], #4
    15a8:	60a1      	str	r1, [r4, #8]
    15aa:	6871      	ldr	r1, [r6, #4]
    15ac:	1d1e      	adds	r6, r3, #4
    15ae:	2a1b      	cmp	r2, #27
    15b0:	60e1      	str	r1, [r4, #12]
    15b2:	d910      	bls.n	15d6 <_realloc_r+0x1de>
    15b4:	685b      	ldr	r3, [r3, #4]
    15b6:	f104 0018 	add.w	r0, r4, #24
    15ba:	6123      	str	r3, [r4, #16]
    15bc:	1d33      	adds	r3, r6, #4
    15be:	6871      	ldr	r1, [r6, #4]
    15c0:	3608      	adds	r6, #8
    15c2:	2a24      	cmp	r2, #36	; 0x24
    15c4:	6161      	str	r1, [r4, #20]
    15c6:	d106      	bne.n	15d6 <_realloc_r+0x1de>
    15c8:	685b      	ldr	r3, [r3, #4]
    15ca:	f104 0020 	add.w	r0, r4, #32
    15ce:	61a3      	str	r3, [r4, #24]
    15d0:	6873      	ldr	r3, [r6, #4]
    15d2:	3608      	adds	r6, #8
    15d4:	61e3      	str	r3, [r4, #28]
    15d6:	4632      	mov	r2, r6
    15d8:	4603      	mov	r3, r0
    15da:	f852 1b04 	ldr.w	r1, [r2], #4
    15de:	f843 1b04 	str.w	r1, [r3], #4
    15e2:	6871      	ldr	r1, [r6, #4]
    15e4:	6041      	str	r1, [r0, #4]
    15e6:	6852      	ldr	r2, [r2, #4]
    15e8:	605a      	str	r2, [r3, #4]
    15ea:	e054      	b.n	1696 <_realloc_r+0x29e>
    15ec:	4631      	mov	r1, r6
    15ee:	f7ff fee8 	bl	13c2 <memmove>
    15f2:	e050      	b.n	1696 <_realloc_r+0x29e>
    15f4:	4639      	mov	r1, r7
    15f6:	4648      	mov	r0, r9
    15f8:	f7ff fcc6 	bl	f88 <_malloc_r>
    15fc:	4607      	mov	r7, r0
    15fe:	2800      	cmp	r0, #0
    1600:	d043      	beq.n	168a <_realloc_r+0x292>
    1602:	f8da 2004 	ldr.w	r2, [sl, #4]
    1606:	f1a0 0308 	sub.w	r3, r0, #8
    160a:	f022 0201 	bic.w	r2, r2, #1
    160e:	4452      	add	r2, sl
    1610:	4293      	cmp	r3, r2
    1612:	d105      	bne.n	1620 <_realloc_r+0x228>
    1614:	f850 3c04 	ldr.w	r3, [r0, #-4]
    1618:	f023 0803 	bic.w	r8, r3, #3
    161c:	44d8      	add	r8, fp
    161e:	e039      	b.n	1694 <_realloc_r+0x29c>
    1620:	f1ab 0204 	sub.w	r2, fp, #4
    1624:	2a24      	cmp	r2, #36	; 0x24
    1626:	d829      	bhi.n	167c <_realloc_r+0x284>
    1628:	2a13      	cmp	r2, #19
    162a:	4631      	mov	r1, r6
    162c:	4603      	mov	r3, r0
    162e:	d91a      	bls.n	1666 <_realloc_r+0x26e>
    1630:	4634      	mov	r4, r6
    1632:	f854 3b04 	ldr.w	r3, [r4], #4
    1636:	1d21      	adds	r1, r4, #4
    1638:	f840 3b04 	str.w	r3, [r0], #4
    163c:	6873      	ldr	r3, [r6, #4]
    163e:	607b      	str	r3, [r7, #4]
    1640:	1d03      	adds	r3, r0, #4
    1642:	2a1b      	cmp	r2, #27
    1644:	d90f      	bls.n	1666 <_realloc_r+0x26e>
    1646:	6864      	ldr	r4, [r4, #4]
    1648:	6044      	str	r4, [r0, #4]
    164a:	1d0c      	adds	r4, r1, #4
    164c:	6849      	ldr	r1, [r1, #4]
    164e:	1d18      	adds	r0, r3, #4
    1650:	6059      	str	r1, [r3, #4]
    1652:	3308      	adds	r3, #8
    1654:	1d21      	adds	r1, r4, #4
    1656:	2a24      	cmp	r2, #36	; 0x24
    1658:	d105      	bne.n	1666 <_realloc_r+0x26e>
    165a:	6862      	ldr	r2, [r4, #4]
    165c:	6042      	str	r2, [r0, #4]
    165e:	684a      	ldr	r2, [r1, #4]
    1660:	3108      	adds	r1, #8
    1662:	605a      	str	r2, [r3, #4]
    1664:	3308      	adds	r3, #8
    1666:	4608      	mov	r0, r1
    1668:	461a      	mov	r2, r3
    166a:	f850 4b04 	ldr.w	r4, [r0], #4
    166e:	f842 4b04 	str.w	r4, [r2], #4
    1672:	6849      	ldr	r1, [r1, #4]
    1674:	6059      	str	r1, [r3, #4]
    1676:	6843      	ldr	r3, [r0, #4]
    1678:	6053      	str	r3, [r2, #4]
    167a:	e002      	b.n	1682 <_realloc_r+0x28a>
    167c:	4631      	mov	r1, r6
    167e:	f7ff fea0 	bl	13c2 <memmove>
    1682:	4648      	mov	r0, r9
    1684:	4631      	mov	r1, r6
    1686:	f002 f925 	bl	38d4 <_free_r>
    168a:	4648      	mov	r0, r9
    168c:	f7ff feb2 	bl	13f4 <__malloc_unlock>
    1690:	e02a      	b.n	16e8 <_realloc_r+0x2f0>
    1692:	46d8      	mov	r8, fp
    1694:	4654      	mov	r4, sl
    1696:	ebc5 0308 	rsb	r3, r5, r8
    169a:	6862      	ldr	r2, [r4, #4]
    169c:	2b0f      	cmp	r3, #15
    169e:	d913      	bls.n	16c8 <_realloc_r+0x2d0>
    16a0:	1961      	adds	r1, r4, r5
    16a2:	f002 0201 	and.w	r2, r2, #1
    16a6:	4315      	orrs	r5, r2
    16a8:	f043 0201 	orr.w	r2, r3, #1
    16ac:	18cb      	adds	r3, r1, r3
    16ae:	6065      	str	r5, [r4, #4]
    16b0:	604a      	str	r2, [r1, #4]
    16b2:	4648      	mov	r0, r9
    16b4:	685a      	ldr	r2, [r3, #4]
    16b6:	3108      	adds	r1, #8
    16b8:	f042 0201 	orr.w	r2, r2, #1
    16bc:	605a      	str	r2, [r3, #4]
    16be:	f002 f909 	bl	38d4 <_free_r>
    16c2:	e00c      	b.n	16de <_realloc_r+0x2e6>
    16c4:	10000118 	.word	0x10000118
    16c8:	eb04 0308 	add.w	r3, r4, r8
    16cc:	f002 0201 	and.w	r2, r2, #1
    16d0:	ea48 0202 	orr.w	r2, r8, r2
    16d4:	6062      	str	r2, [r4, #4]
    16d6:	685a      	ldr	r2, [r3, #4]
    16d8:	f042 0201 	orr.w	r2, r2, #1
    16dc:	605a      	str	r2, [r3, #4]
    16de:	4648      	mov	r0, r9
    16e0:	f104 0708 	add.w	r7, r4, #8
    16e4:	f7ff fe86 	bl	13f4 <__malloc_unlock>
    16e8:	4638      	mov	r0, r7
    16ea:	b003      	add	sp, #12
    16ec:	e8bd 8ff0 	ldmia.w	sp!, {r4, r5, r6, r7, r8, r9, sl, fp, pc}

000016f0 <_sbrk_r>:
    16f0:	b538      	push	{r3, r4, r5, lr}
    16f2:	4605      	mov	r5, r0
    16f4:	4c06      	ldr	r4, [pc, #24]	; (1710 <_sbrk_r+0x20>)
    16f6:	4608      	mov	r0, r1
    16f8:	2300      	movs	r3, #0
    16fa:	6023      	str	r3, [r4, #0]
    16fc:	f7fe fe2c 	bl	358 <_sbrk>
    1700:	f1b0 3fff 	cmp.w	r0, #4294967295	; 0xffffffff
    1704:	d102      	bne.n	170c <_sbrk_r+0x1c>
    1706:	6823      	ldr	r3, [r4, #0]
    1708:	b103      	cbz	r3, 170c <_sbrk_r+0x1c>
    170a:	602b      	str	r3, [r5, #0]
    170c:	bd38      	pop	{r3, r4, r5, pc}
    170e:	bf00      	nop
    1710:	100005e4 	.word	0x100005e4

00001714 <_raise_r>:
    1714:	291f      	cmp	r1, #31
    1716:	b570      	push	{r4, r5, r6, lr}
    1718:	4605      	mov	r5, r0
    171a:	460c      	mov	r4, r1
    171c:	d904      	bls.n	1728 <_raise_r+0x14>
    171e:	2316      	movs	r3, #22
    1720:	6003      	str	r3, [r0, #0]
    1722:	f04f 30ff 	mov.w	r0, #4294967295	; 0xffffffff
    1726:	bd70      	pop	{r4, r5, r6, pc}
    1728:	6c42      	ldr	r2, [r0, #68]	; 0x44
    172a:	b112      	cbz	r2, 1732 <_raise_r+0x1e>
    172c:	f852 3021 	ldr.w	r3, [r2, r1, lsl #2]
    1730:	b94b      	cbnz	r3, 1746 <_raise_r+0x32>
    1732:	4628      	mov	r0, r5
    1734:	f000 f834 	bl	17a0 <_getpid_r>
    1738:	4622      	mov	r2, r4
    173a:	4601      	mov	r1, r0
    173c:	4628      	mov	r0, r5
    173e:	e8bd 4070 	ldmia.w	sp!, {r4, r5, r6, lr}
    1742:	f000 b81b 	b.w	177c <_kill_r>
    1746:	2b01      	cmp	r3, #1
    1748:	d00d      	beq.n	1766 <_raise_r+0x52>
    174a:	f1b3 3fff 	cmp.w	r3, #4294967295	; 0xffffffff
    174e:	d103      	bne.n	1758 <_raise_r+0x44>
    1750:	3317      	adds	r3, #23
    1752:	6003      	str	r3, [r0, #0]
    1754:	2001      	movs	r0, #1
    1756:	bd70      	pop	{r4, r5, r6, pc}
    1758:	2500      	movs	r5, #0
    175a:	4608      	mov	r0, r1
    175c:	f842 5021 	str.w	r5, [r2, r1, lsl #2]
    1760:	4798      	blx	r3
    1762:	4628      	mov	r0, r5
    1764:	bd70      	pop	{r4, r5, r6, pc}
    1766:	2000      	movs	r0, #0
    1768:	bd70      	pop	{r4, r5, r6, pc}
	...

0000176c <raise>:
    176c:	4b02      	ldr	r3, [pc, #8]	; (1778 <raise+0xc>)
    176e:	4601      	mov	r1, r0
    1770:	6818      	ldr	r0, [r3, #0]
    1772:	f7ff bfcf 	b.w	1714 <_raise_r>
    1776:	bf00      	nop
    1778:	10000114 	.word	0x10000114

0000177c <_kill_r>:
    177c:	b538      	push	{r3, r4, r5, lr}
    177e:	4605      	mov	r5, r0
    1780:	4c06      	ldr	r4, [pc, #24]	; (179c <_kill_r+0x20>)
    1782:	4608      	mov	r0, r1
    1784:	4611      	mov	r1, r2
    1786:	2300      	movs	r3, #0
    1788:	6023      	str	r3, [r4, #0]
    178a:	f7fe fdd7 	bl	33c <_kill>
    178e:	f1b0 3fff 	cmp.w	r0, #4294967295	; 0xffffffff
    1792:	d102      	bne.n	179a <_kill_r+0x1e>
    1794:	6823      	ldr	r3, [r4, #0]
    1796:	b103      	cbz	r3, 179a <_kill_r+0x1e>
    1798:	602b      	str	r3, [r5, #0]
    179a:	bd38      	pop	{r3, r4, r5, pc}
    179c:	100005e4 	.word	0x100005e4

000017a0 <_getpid_r>:
    17a0:	f7fe bdd8 	b.w	354 <_getpid>

000017a4 <sprintf>:
    17a4:	b40e      	push	{r1, r2, r3}
    17a6:	f44f 7102 	mov.w	r1, #520	; 0x208
    17aa:	b500      	push	{lr}
    17ac:	b09c      	sub	sp, #112	; 0x70
    17ae:	ab1d      	add	r3, sp, #116	; 0x74
    17b0:	f8ad 1010 	strh.w	r1, [sp, #16]
    17b4:	f06f 4100 	mvn.w	r1, #2147483648	; 0x80000000
    17b8:	9103      	str	r1, [sp, #12]
    17ba:	9106      	str	r1, [sp, #24]
    17bc:	f04f 31ff 	mov.w	r1, #4294967295	; 0xffffffff
    17c0:	f8ad 1012 	strh.w	r1, [sp, #18]
    17c4:	4908      	ldr	r1, [pc, #32]	; (17e8 <sprintf+0x44>)
    17c6:	f853 2b04 	ldr.w	r2, [r3], #4
    17ca:	9001      	str	r0, [sp, #4]
    17cc:	9005      	str	r0, [sp, #20]
    17ce:	6808      	ldr	r0, [r1, #0]
    17d0:	a901      	add	r1, sp, #4
    17d2:	931b      	str	r3, [sp, #108]	; 0x6c
    17d4:	f000 f8be 	bl	1954 <_svfprintf_r>
    17d8:	9b01      	ldr	r3, [sp, #4]
    17da:	2200      	movs	r2, #0
    17dc:	701a      	strb	r2, [r3, #0]
    17de:	b01c      	add	sp, #112	; 0x70
    17e0:	f85d eb04 	ldr.w	lr, [sp], #4
    17e4:	b003      	add	sp, #12
    17e6:	4770      	bx	lr
    17e8:	10000114 	.word	0x10000114

000017ec <strcmp>:
    17ec:	f810 2b01 	ldrb.w	r2, [r0], #1
    17f0:	f811 3b01 	ldrb.w	r3, [r1], #1
    17f4:	2a01      	cmp	r2, #1
    17f6:	bf28      	it	cs
    17f8:	429a      	cmpcs	r2, r3
    17fa:	d0f7      	beq.n	17ec <strcmp>
    17fc:	eba2 0003 	sub.w	r0, r2, r3
    1800:	4770      	bx	lr

00001802 <strlen>:
    1802:	4603      	mov	r3, r0
    1804:	43c0      	mvns	r0, r0
    1806:	f813 2b01 	ldrb.w	r2, [r3], #1
    180a:	2a00      	cmp	r2, #0
    180c:	d1fb      	bne.n	1806 <strlen+0x4>
    180e:	1818      	adds	r0, r3, r0
    1810:	4770      	bx	lr
	...

00001814 <_strtol_r>:
    1814:	e92d 4ff7 	stmdb	sp!, {r0, r1, r2, r4, r5, r6, r7, r8, r9, sl, fp, lr}
    1818:	4698      	mov	r8, r3
    181a:	4b46      	ldr	r3, [pc, #280]	; (1934 <_strtol_r+0x120>)
    181c:	460c      	mov	r4, r1
    181e:	4615      	mov	r5, r2
    1820:	9001      	str	r0, [sp, #4]
    1822:	f8d3 b000 	ldr.w	fp, [r3]
    1826:	460b      	mov	r3, r1
    1828:	f813 6b01 	ldrb.w	r6, [r3], #1
    182c:	eb0b 0206 	add.w	r2, fp, r6
    1830:	461f      	mov	r7, r3
    1832:	f892 9001 	ldrb.w	r9, [r2, #1]
    1836:	f019 0908 	ands.w	r9, r9, #8
    183a:	d1f5      	bne.n	1828 <_strtol_r+0x14>
    183c:	2e2d      	cmp	r6, #45	; 0x2d
    183e:	d104      	bne.n	184a <_strtol_r+0x36>
    1840:	f817 6b01 	ldrb.w	r6, [r7], #1
    1844:	f04f 0901 	mov.w	r9, #1
    1848:	e003      	b.n	1852 <_strtol_r+0x3e>
    184a:	2e2b      	cmp	r6, #43	; 0x2b
    184c:	bf08      	it	eq
    184e:	f817 6b01 	ldrbeq.w	r6, [r7], #1
    1852:	f1b8 0f00 	cmp.w	r8, #0
    1856:	d002      	beq.n	185e <_strtol_r+0x4a>
    1858:	f1b8 0f10 	cmp.w	r8, #16
    185c:	d114      	bne.n	1888 <_strtol_r+0x74>
    185e:	2e30      	cmp	r6, #48	; 0x30
    1860:	d109      	bne.n	1876 <_strtol_r+0x62>
    1862:	783b      	ldrb	r3, [r7, #0]
    1864:	2b78      	cmp	r3, #120	; 0x78
    1866:	d001      	beq.n	186c <_strtol_r+0x58>
    1868:	2b58      	cmp	r3, #88	; 0x58
    186a:	d104      	bne.n	1876 <_strtol_r+0x62>
    186c:	787e      	ldrb	r6, [r7, #1]
    186e:	f04f 0810 	mov.w	r8, #16
    1872:	3702      	adds	r7, #2
    1874:	e008      	b.n	1888 <_strtol_r+0x74>
    1876:	f1b8 0f00 	cmp.w	r8, #0
    187a:	d105      	bne.n	1888 <_strtol_r+0x74>
    187c:	2e30      	cmp	r6, #48	; 0x30
    187e:	bf14      	ite	ne
    1880:	f04f 080a 	movne.w	r8, #10
    1884:	f04f 0808 	moveq.w	r8, #8
    1888:	f1b9 0f00 	cmp.w	r9, #0
    188c:	4641      	mov	r1, r8
    188e:	bf0c      	ite	eq
    1890:	f06f 4a00 	mvneq.w	sl, #2147483648	; 0x80000000
    1894:	f04f 4a00 	movne.w	sl, #2147483648	; 0x80000000
    1898:	4650      	mov	r0, sl
    189a:	f002 fddf 	bl	445c <__aeabi_uidivmod>
    189e:	4650      	mov	r0, sl
    18a0:	460b      	mov	r3, r1
    18a2:	4641      	mov	r1, r8
    18a4:	9300      	str	r3, [sp, #0]
    18a6:	f002 fcab 	bl	4200 <__aeabi_uidiv>
    18aa:	2100      	movs	r1, #0
    18ac:	9b00      	ldr	r3, [sp, #0]
    18ae:	460a      	mov	r2, r1
    18b0:	eb0b 0c06 	add.w	ip, fp, r6
    18b4:	f89c c001 	ldrb.w	ip, [ip, #1]
    18b8:	f01c 0f04 	tst.w	ip, #4
    18bc:	d001      	beq.n	18c2 <_strtol_r+0xae>
    18be:	3e30      	subs	r6, #48	; 0x30
    18c0:	e00b      	b.n	18da <_strtol_r+0xc6>
    18c2:	f01c 0c03 	ands.w	ip, ip, #3
    18c6:	d01b      	beq.n	1900 <_strtol_r+0xec>
    18c8:	f1bc 0f01 	cmp.w	ip, #1
    18cc:	bf14      	ite	ne
    18ce:	f04f 0c57 	movne.w	ip, #87	; 0x57
    18d2:	f04f 0c37 	moveq.w	ip, #55	; 0x37
    18d6:	ebcc 0606 	rsb	r6, ip, r6
    18da:	4546      	cmp	r6, r8
    18dc:	da10      	bge.n	1900 <_strtol_r+0xec>
    18de:	f1b1 3fff 	cmp.w	r1, #4294967295	; 0xffffffff
    18e2:	d00a      	beq.n	18fa <_strtol_r+0xe6>
    18e4:	4282      	cmp	r2, r0
    18e6:	d806      	bhi.n	18f6 <_strtol_r+0xe2>
    18e8:	d101      	bne.n	18ee <_strtol_r+0xda>
    18ea:	429e      	cmp	r6, r3
    18ec:	dc03      	bgt.n	18f6 <_strtol_r+0xe2>
    18ee:	fb08 6202 	mla	r2, r8, r2, r6
    18f2:	2101      	movs	r1, #1
    18f4:	e001      	b.n	18fa <_strtol_r+0xe6>
    18f6:	f04f 31ff 	mov.w	r1, #4294967295	; 0xffffffff
    18fa:	f817 6b01 	ldrb.w	r6, [r7], #1
    18fe:	e7d7      	b.n	18b0 <_strtol_r+0x9c>
    1900:	f1b1 3fff 	cmp.w	r1, #4294967295	; 0xffffffff
    1904:	d10a      	bne.n	191c <_strtol_r+0x108>
    1906:	9801      	ldr	r0, [sp, #4]
    1908:	f1b9 0f00 	cmp.w	r9, #0
    190c:	bf0c      	ite	eq
    190e:	f06f 4200 	mvneq.w	r2, #2147483648	; 0x80000000
    1912:	f04f 4200 	movne.w	r2, #2147483648	; 0x80000000
    1916:	2322      	movs	r3, #34	; 0x22
    1918:	6003      	str	r3, [r0, #0]
    191a:	e003      	b.n	1924 <_strtol_r+0x110>
    191c:	f1b9 0f00 	cmp.w	r9, #0
    1920:	d000      	beq.n	1924 <_strtol_r+0x110>
    1922:	4252      	negs	r2, r2
    1924:	b115      	cbz	r5, 192c <_strtol_r+0x118>
    1926:	b101      	cbz	r1, 192a <_strtol_r+0x116>
    1928:	1e7c      	subs	r4, r7, #1
    192a:	602c      	str	r4, [r5, #0]
    192c:	4610      	mov	r0, r2
    192e:	e8bd 8ffe 	ldmia.w	sp!, {r1, r2, r3, r4, r5, r6, r7, r8, r9, sl, fp, pc}
    1932:	bf00      	nop
    1934:	10000528 	.word	0x10000528

00001938 <strtol>:
    1938:	4613      	mov	r3, r2
    193a:	4a05      	ldr	r2, [pc, #20]	; (1950 <strtol+0x18>)
    193c:	b530      	push	{r4, r5, lr}
    193e:	4605      	mov	r5, r0
    1940:	460c      	mov	r4, r1
    1942:	6810      	ldr	r0, [r2, #0]
    1944:	4629      	mov	r1, r5
    1946:	4622      	mov	r2, r4
    1948:	e8bd 4030 	ldmia.w	sp!, {r4, r5, lr}
    194c:	f7ff bf62 	b.w	1814 <_strtol_r>
    1950:	10000114 	.word	0x10000114

00001954 <_svfprintf_r>:
    1954:	e92d 4ff0 	stmdb	sp!, {r4, r5, r6, r7, r8, r9, sl, fp, lr}
    1958:	b0bf      	sub	sp, #252	; 0xfc
    195a:	460f      	mov	r7, r1
    195c:	461e      	mov	r6, r3
    195e:	4615      	mov	r5, r2
    1960:	4680      	mov	r8, r0
    1962:	f002 f877 	bl	3a54 <_localeconv_r>
    1966:	6800      	ldr	r0, [r0, #0]
    1968:	9013      	str	r0, [sp, #76]	; 0x4c
    196a:	f7ff ff4a 	bl	1802 <strlen>
    196e:	89bb      	ldrh	r3, [r7, #12]
    1970:	f013 0f80 	tst.w	r3, #128	; 0x80
    1974:	9012      	str	r0, [sp, #72]	; 0x48
    1976:	d011      	beq.n	199c <_svfprintf_r+0x48>
    1978:	693b      	ldr	r3, [r7, #16]
    197a:	b97b      	cbnz	r3, 199c <_svfprintf_r+0x48>
    197c:	4640      	mov	r0, r8
    197e:	2140      	movs	r1, #64	; 0x40
    1980:	f7ff fb02 	bl	f88 <_malloc_r>
    1984:	6038      	str	r0, [r7, #0]
    1986:	6138      	str	r0, [r7, #16]
    1988:	b930      	cbnz	r0, 1998 <_svfprintf_r+0x44>
    198a:	230c      	movs	r3, #12
    198c:	3801      	subs	r0, #1
    198e:	f8c8 3000 	str.w	r3, [r8]
    1992:	900f      	str	r0, [sp, #60]	; 0x3c
    1994:	f001 b856 	b.w	2a44 <_svfprintf_r+0x10f0>
    1998:	2340      	movs	r3, #64	; 0x40
    199a:	617b      	str	r3, [r7, #20]
    199c:	2300      	movs	r3, #0
    199e:	ac19      	add	r4, sp, #100	; 0x64
    19a0:	9335      	str	r3, [sp, #212]	; 0xd4
    19a2:	9433      	str	r4, [sp, #204]	; 0xcc
    19a4:	9334      	str	r3, [sp, #208]	; 0xd0
    19a6:	950c      	str	r5, [sp, #48]	; 0x30
    19a8:	930b      	str	r3, [sp, #44]	; 0x2c
    19aa:	9310      	str	r3, [sp, #64]	; 0x40
    19ac:	9311      	str	r3, [sp, #68]	; 0x44
    19ae:	9316      	str	r3, [sp, #88]	; 0x58
    19b0:	9315      	str	r3, [sp, #84]	; 0x54
    19b2:	930f      	str	r3, [sp, #60]	; 0x3c
    19b4:	9b0c      	ldr	r3, [sp, #48]	; 0x30
    19b6:	461d      	mov	r5, r3
    19b8:	f813 2b01 	ldrb.w	r2, [r3], #1
    19bc:	b10a      	cbz	r2, 19c2 <_svfprintf_r+0x6e>
    19be:	2a25      	cmp	r2, #37	; 0x25
    19c0:	d1f9      	bne.n	19b6 <_svfprintf_r+0x62>
    19c2:	990c      	ldr	r1, [sp, #48]	; 0x30
    19c4:	ebb5 0901 	subs.w	r9, r5, r1
    19c8:	d018      	beq.n	19fc <_svfprintf_r+0xa8>
    19ca:	9b35      	ldr	r3, [sp, #212]	; 0xd4
    19cc:	6021      	str	r1, [r4, #0]
    19ce:	f8c4 9004 	str.w	r9, [r4, #4]
    19d2:	444b      	add	r3, r9
    19d4:	9335      	str	r3, [sp, #212]	; 0xd4
    19d6:	9b34      	ldr	r3, [sp, #208]	; 0xd0
    19d8:	3301      	adds	r3, #1
    19da:	9334      	str	r3, [sp, #208]	; 0xd0
    19dc:	2b07      	cmp	r3, #7
    19de:	dc01      	bgt.n	19e4 <_svfprintf_r+0x90>
    19e0:	3408      	adds	r4, #8
    19e2:	e008      	b.n	19f6 <_svfprintf_r+0xa2>
    19e4:	4640      	mov	r0, r8
    19e6:	4639      	mov	r1, r7
    19e8:	aa33      	add	r2, sp, #204	; 0xcc
    19ea:	f002 fb61 	bl	40b0 <__ssprint_r>
    19ee:	2800      	cmp	r0, #0
    19f0:	f041 801f 	bne.w	2a32 <_svfprintf_r+0x10de>
    19f4:	ac19      	add	r4, sp, #100	; 0x64
    19f6:	9a0f      	ldr	r2, [sp, #60]	; 0x3c
    19f8:	444a      	add	r2, r9
    19fa:	920f      	str	r2, [sp, #60]	; 0x3c
    19fc:	782b      	ldrb	r3, [r5, #0]
    19fe:	2b00      	cmp	r3, #0
    1a00:	f001 8010 	beq.w	2a24 <_svfprintf_r+0x10d0>
    1a04:	2300      	movs	r3, #0
    1a06:	3501      	adds	r5, #1
    1a08:	950c      	str	r5, [sp, #48]	; 0x30
    1a0a:	461d      	mov	r5, r3
    1a0c:	f88d 30f7 	strb.w	r3, [sp, #247]	; 0xf7
    1a10:	f04f 3cff 	mov.w	ip, #4294967295	; 0xffffffff
    1a14:	930d      	str	r3, [sp, #52]	; 0x34
    1a16:	462a      	mov	r2, r5
    1a18:	9b0c      	ldr	r3, [sp, #48]	; 0x30
    1a1a:	e005      	b.n	1a28 <_svfprintf_r+0xd4>
    1a1c:	460e      	mov	r6, r1
    1a1e:	e003      	b.n	1a28 <_svfprintf_r+0xd4>
    1a20:	461e      	mov	r6, r3
    1a22:	f04f 3cff 	mov.w	ip, #4294967295	; 0xffffffff
    1a26:	460b      	mov	r3, r1
    1a28:	f813 9b01 	ldrb.w	r9, [r3], #1
    1a2c:	f1a9 0120 	sub.w	r1, r9, #32
    1a30:	2958      	cmp	r1, #88	; 0x58
    1a32:	f200 8412 	bhi.w	225a <_svfprintf_r+0x906>
    1a36:	e8df f011 	tbh	[pc, r1, lsl #1]
    1a3a:	0059      	.short	0x0059
    1a3c:	04100410 	.word	0x04100410
    1a40:	0410005f 	.word	0x0410005f
    1a44:	04100410 	.word	0x04100410
    1a48:	04100410 	.word	0x04100410
    1a4c:	00620410 	.word	0x00620410
    1a50:	0410006b 	.word	0x0410006b
    1a54:	006f0068 	.word	0x006f0068
    1a58:	00920410 	.word	0x00920410
    1a5c:	00950095 	.word	0x00950095
    1a60:	00950095 	.word	0x00950095
    1a64:	00950095 	.word	0x00950095
    1a68:	00950095 	.word	0x00950095
    1a6c:	04100095 	.word	0x04100095
    1a70:	04100410 	.word	0x04100410
    1a74:	04100410 	.word	0x04100410
    1a78:	04100410 	.word	0x04100410
    1a7c:	04100410 	.word	0x04100410
    1a80:	00c00410 	.word	0x00c00410
    1a84:	041000fd 	.word	0x041000fd
    1a88:	041000fd 	.word	0x041000fd
    1a8c:	04100410 	.word	0x04100410
    1a90:	00a40410 	.word	0x00a40410
    1a94:	04100410 	.word	0x04100410
    1a98:	041002a8 	.word	0x041002a8
    1a9c:	04100410 	.word	0x04100410
    1aa0:	04100410 	.word	0x04100410
    1aa4:	04100313 	.word	0x04100313
    1aa8:	03450410 	.word	0x03450410
    1aac:	04100410 	.word	0x04100410
    1ab0:	04100410 	.word	0x04100410
    1ab4:	04100410 	.word	0x04100410
    1ab8:	04100410 	.word	0x04100410
    1abc:	04100410 	.word	0x04100410
    1ac0:	00c500b5 	.word	0x00c500b5
    1ac4:	00fd00fd 	.word	0x00fd00fd
    1ac8:	00a700fd 	.word	0x00a700fd
    1acc:	041000c5 	.word	0x041000c5
    1ad0:	00aa0410 	.word	0x00aa0410
    1ad4:	028a0410 	.word	0x028a0410
    1ad8:	02d902ad 	.word	0x02d902ad
    1adc:	041000b2 	.word	0x041000b2
    1ae0:	041002ed 	.word	0x041002ed
    1ae4:	04100318 	.word	0x04100318
    1ae8:	03400410 	.word	0x03400410
    1aec:	f89d 10f7 	ldrb.w	r1, [sp, #247]	; 0xf7
    1af0:	2900      	cmp	r1, #0
    1af2:	d199      	bne.n	1a28 <_svfprintf_r+0xd4>
    1af4:	3120      	adds	r1, #32
    1af6:	e00c      	b.n	1b12 <_svfprintf_r+0x1be>
    1af8:	f045 0501 	orr.w	r5, r5, #1
    1afc:	e794      	b.n	1a28 <_svfprintf_r+0xd4>
    1afe:	6832      	ldr	r2, [r6, #0]
    1b00:	1d31      	adds	r1, r6, #4
    1b02:	2a00      	cmp	r2, #0
    1b04:	da8a      	bge.n	1a1c <_svfprintf_r+0xc8>
    1b06:	4252      	negs	r2, r2
    1b08:	460e      	mov	r6, r1
    1b0a:	f045 0504 	orr.w	r5, r5, #4
    1b0e:	e78b      	b.n	1a28 <_svfprintf_r+0xd4>
    1b10:	212b      	movs	r1, #43	; 0x2b
    1b12:	f88d 10f7 	strb.w	r1, [sp, #247]	; 0xf7
    1b16:	e787      	b.n	1a28 <_svfprintf_r+0xd4>
    1b18:	4619      	mov	r1, r3
    1b1a:	f811 9b01 	ldrb.w	r9, [r1], #1
    1b1e:	f1b9 0f2a 	cmp.w	r9, #42	; 0x2a
    1b22:	d003      	beq.n	1b2c <_svfprintf_r+0x1d8>
    1b24:	4619      	mov	r1, r3
    1b26:	f04f 0c00 	mov.w	ip, #0
    1b2a:	e010      	b.n	1b4e <_svfprintf_r+0x1fa>
    1b2c:	f8d6 c000 	ldr.w	ip, [r6]
    1b30:	1d33      	adds	r3, r6, #4
    1b32:	f1bc 0f00 	cmp.w	ip, #0
    1b36:	f6ff af73 	blt.w	1a20 <_svfprintf_r+0xcc>
    1b3a:	461e      	mov	r6, r3
    1b3c:	460b      	mov	r3, r1
    1b3e:	e773      	b.n	1a28 <_svfprintf_r+0xd4>
    1b40:	f04f 090a 	mov.w	r9, #10
    1b44:	fb09 0c0c 	mla	ip, r9, ip, r0
    1b48:	f891 9001 	ldrb.w	r9, [r1, #1]
    1b4c:	4619      	mov	r1, r3
    1b4e:	f1a9 0030 	sub.w	r0, r9, #48	; 0x30
    1b52:	3301      	adds	r3, #1
    1b54:	2809      	cmp	r0, #9
    1b56:	d9f3      	bls.n	1b40 <_svfprintf_r+0x1ec>
    1b58:	ea4c 7cec 	orr.w	ip, ip, ip, asr #31
    1b5c:	e766      	b.n	1a2c <_svfprintf_r+0xd8>
    1b5e:	f045 0580 	orr.w	r5, r5, #128	; 0x80
    1b62:	e761      	b.n	1a28 <_svfprintf_r+0xd4>
    1b64:	4619      	mov	r1, r3
    1b66:	2200      	movs	r2, #0
    1b68:	230a      	movs	r3, #10
    1b6a:	f1a9 0930 	sub.w	r9, r9, #48	; 0x30
    1b6e:	fb03 9202 	mla	r2, r3, r2, r9
    1b72:	f811 9b01 	ldrb.w	r9, [r1], #1
    1b76:	f1a9 0030 	sub.w	r0, r9, #48	; 0x30
    1b7a:	460b      	mov	r3, r1
    1b7c:	2809      	cmp	r0, #9
    1b7e:	d9f3      	bls.n	1b68 <_svfprintf_r+0x214>
    1b80:	e754      	b.n	1a2c <_svfprintf_r+0xd8>
    1b82:	f045 0508 	orr.w	r5, r5, #8
    1b86:	e74f      	b.n	1a28 <_svfprintf_r+0xd4>
    1b88:	f045 0540 	orr.w	r5, r5, #64	; 0x40
    1b8c:	e74c      	b.n	1a28 <_svfprintf_r+0xd4>
    1b8e:	7819      	ldrb	r1, [r3, #0]
    1b90:	296c      	cmp	r1, #108	; 0x6c
    1b92:	d101      	bne.n	1b98 <_svfprintf_r+0x244>
    1b94:	3301      	adds	r3, #1
    1b96:	e002      	b.n	1b9e <_svfprintf_r+0x24a>
    1b98:	f045 0510 	orr.w	r5, r5, #16
    1b9c:	e744      	b.n	1a28 <_svfprintf_r+0xd4>
    1b9e:	f045 0520 	orr.w	r5, r5, #32
    1ba2:	e741      	b.n	1a28 <_svfprintf_r+0xd4>
    1ba4:	930c      	str	r3, [sp, #48]	; 0x30
    1ba6:	f04f 0c00 	mov.w	ip, #0
    1baa:	6833      	ldr	r3, [r6, #0]
    1bac:	3604      	adds	r6, #4
    1bae:	920d      	str	r2, [sp, #52]	; 0x34
    1bb0:	f88d c0f7 	strb.w	ip, [sp, #247]	; 0xf7
    1bb4:	f88d 30a4 	strb.w	r3, [sp, #164]	; 0xa4
    1bb8:	e35b      	b.n	2272 <_svfprintf_r+0x91e>
    1bba:	930c      	str	r3, [sp, #48]	; 0x30
    1bbc:	f045 0510 	orr.w	r5, r5, #16
    1bc0:	920d      	str	r2, [sp, #52]	; 0x34
    1bc2:	e001      	b.n	1bc8 <_svfprintf_r+0x274>
    1bc4:	930c      	str	r3, [sp, #48]	; 0x30
    1bc6:	920d      	str	r2, [sp, #52]	; 0x34
    1bc8:	f015 0f20 	tst.w	r5, #32
    1bcc:	d009      	beq.n	1be2 <_svfprintf_r+0x28e>
    1bce:	3607      	adds	r6, #7
    1bd0:	f026 0307 	bic.w	r3, r6, #7
    1bd4:	f103 0608 	add.w	r6, r3, #8
    1bd8:	e9d3 0100 	ldrd	r0, r1, [r3]
    1bdc:	e9cd 0108 	strd	r0, r1, [sp, #32]
    1be0:	e016      	b.n	1c10 <_svfprintf_r+0x2bc>
    1be2:	f015 0f10 	tst.w	r5, #16
    1be6:	f106 0304 	add.w	r3, r6, #4
    1bea:	d001      	beq.n	1bf0 <_svfprintf_r+0x29c>
    1bec:	6832      	ldr	r2, [r6, #0]
    1bee:	e009      	b.n	1c04 <_svfprintf_r+0x2b0>
    1bf0:	f015 0f40 	tst.w	r5, #64	; 0x40
    1bf4:	6832      	ldr	r2, [r6, #0]
    1bf6:	d005      	beq.n	1c04 <_svfprintf_r+0x2b0>
    1bf8:	b212      	sxth	r2, r2
    1bfa:	4610      	mov	r0, r2
    1bfc:	17d1      	asrs	r1, r2, #31
    1bfe:	e9cd 0108 	strd	r0, r1, [sp, #32]
    1c02:	e004      	b.n	1c0e <_svfprintf_r+0x2ba>
    1c04:	4692      	mov	sl, r2
    1c06:	ea4f 7be2 	mov.w	fp, r2, asr #31
    1c0a:	e9cd ab08 	strd	sl, fp, [sp, #32]
    1c0e:	461e      	mov	r6, r3
    1c10:	e9dd 0108 	ldrd	r0, r1, [sp, #32]
    1c14:	2800      	cmp	r0, #0
    1c16:	f171 0100 	sbcs.w	r1, r1, #0
    1c1a:	f280 828e 	bge.w	213a <_svfprintf_r+0x7e6>
    1c1e:	e9dd 2308 	ldrd	r2, r3, [sp, #32]
    1c22:	4252      	negs	r2, r2
    1c24:	eb63 0343 	sbc.w	r3, r3, r3, lsl #1
    1c28:	e9cd 2308 	strd	r2, r3, [sp, #32]
    1c2c:	232d      	movs	r3, #45	; 0x2d
    1c2e:	f88d 30f7 	strb.w	r3, [sp, #247]	; 0xf7
    1c32:	e282      	b.n	213a <_svfprintf_r+0x7e6>
    1c34:	930c      	str	r3, [sp, #48]	; 0x30
    1c36:	1df3      	adds	r3, r6, #7
    1c38:	f015 0f08 	tst.w	r5, #8
    1c3c:	f023 0307 	bic.w	r3, r3, #7
    1c40:	920d      	str	r2, [sp, #52]	; 0x34
    1c42:	f103 0608 	add.w	r6, r3, #8
    1c46:	bf14      	ite	ne
    1c48:	6818      	ldrne	r0, [r3, #0]
    1c4a:	6819      	ldreq	r1, [r3, #0]
    1c4c:	f8cd 9038 	str.w	r9, [sp, #56]	; 0x38
    1c50:	bf14      	ite	ne
    1c52:	9010      	strne	r0, [sp, #64]	; 0x40
    1c54:	9110      	streq	r1, [sp, #64]	; 0x40
    1c56:	685b      	ldr	r3, [r3, #4]
    1c58:	9810      	ldr	r0, [sp, #64]	; 0x40
    1c5a:	f8cd c018 	str.w	ip, [sp, #24]
    1c5e:	9311      	str	r3, [sp, #68]	; 0x44
    1c60:	9911      	ldr	r1, [sp, #68]	; 0x44
    1c62:	f002 f9f3 	bl	404c <__fpclassifyd>
    1c66:	f8dd c018 	ldr.w	ip, [sp, #24]
    1c6a:	2801      	cmp	r0, #1
    1c6c:	d119      	bne.n	1ca2 <_svfprintf_r+0x34e>
    1c6e:	9810      	ldr	r0, [sp, #64]	; 0x40
    1c70:	2200      	movs	r2, #0
    1c72:	9911      	ldr	r1, [sp, #68]	; 0x44
    1c74:	2300      	movs	r3, #0
    1c76:	f002 fdb9 	bl	47ec <__aeabi_dcmplt>
    1c7a:	b110      	cbz	r0, 1c82 <_svfprintf_r+0x32e>
    1c7c:	232d      	movs	r3, #45	; 0x2d
    1c7e:	f88d 30f7 	strb.w	r3, [sp, #247]	; 0xf7
    1c82:	4ba9      	ldr	r3, [pc, #676]	; (1f28 <_svfprintf_r+0x5d4>)
    1c84:	f04f 0c00 	mov.w	ip, #0
    1c88:	4aa8      	ldr	r2, [pc, #672]	; (1f2c <_svfprintf_r+0x5d8>)
    1c8a:	f025 0580 	bic.w	r5, r5, #128	; 0x80
    1c8e:	f04f 0b03 	mov.w	fp, #3
    1c92:	f8cd c020 	str.w	ip, [sp, #32]
    1c96:	f1b9 0f47 	cmp.w	r9, #71	; 0x47
    1c9a:	bfcc      	ite	gt
    1c9c:	4692      	movgt	sl, r2
    1c9e:	469a      	movle	sl, r3
    1ca0:	e2fd      	b.n	229e <_svfprintf_r+0x94a>
    1ca2:	9810      	ldr	r0, [sp, #64]	; 0x40
    1ca4:	9911      	ldr	r1, [sp, #68]	; 0x44
    1ca6:	f8cd c018 	str.w	ip, [sp, #24]
    1caa:	f002 f9cf 	bl	404c <__fpclassifyd>
    1cae:	f8dd c018 	ldr.w	ip, [sp, #24]
    1cb2:	b958      	cbnz	r0, 1ccc <_svfprintf_r+0x378>
    1cb4:	4b9e      	ldr	r3, [pc, #632]	; (1f30 <_svfprintf_r+0x5dc>)
    1cb6:	f025 0580 	bic.w	r5, r5, #128	; 0x80
    1cba:	4a9e      	ldr	r2, [pc, #632]	; (1f34 <_svfprintf_r+0x5e0>)
    1cbc:	f04f 0b03 	mov.w	fp, #3
    1cc0:	f1b9 0f47 	cmp.w	r9, #71	; 0x47
    1cc4:	bfcc      	ite	gt
    1cc6:	4692      	movgt	sl, r2
    1cc8:	469a      	movle	sl, r3
    1cca:	e2dd      	b.n	2288 <_svfprintf_r+0x934>
    1ccc:	f1bc 3fff 	cmp.w	ip, #4294967295	; 0xffffffff
    1cd0:	d00b      	beq.n	1cea <_svfprintf_r+0x396>
    1cd2:	f1b9 0f67 	cmp.w	r9, #103	; 0x67
    1cd6:	d002      	beq.n	1cde <_svfprintf_r+0x38a>
    1cd8:	f1b9 0f47 	cmp.w	r9, #71	; 0x47
    1cdc:	d107      	bne.n	1cee <_svfprintf_r+0x39a>
    1cde:	f1bc 0f00 	cmp.w	ip, #0
    1ce2:	bf08      	it	eq
    1ce4:	f04f 0c01 	moveq.w	ip, #1
    1ce8:	e001      	b.n	1cee <_svfprintf_r+0x39a>
    1cea:	f04f 0c06 	mov.w	ip, #6
    1cee:	9b11      	ldr	r3, [sp, #68]	; 0x44
    1cf0:	f445 7580 	orr.w	r5, r5, #256	; 0x100
    1cf4:	2b00      	cmp	r3, #0
    1cf6:	da05      	bge.n	1d04 <_svfprintf_r+0x3b0>
    1cf8:	f103 4200 	add.w	r2, r3, #2147483648	; 0x80000000
    1cfc:	232d      	movs	r3, #45	; 0x2d
    1cfe:	920b      	str	r2, [sp, #44]	; 0x2c
    1d00:	9314      	str	r3, [sp, #80]	; 0x50
    1d02:	e003      	b.n	1d0c <_svfprintf_r+0x3b8>
    1d04:	9811      	ldr	r0, [sp, #68]	; 0x44
    1d06:	2100      	movs	r1, #0
    1d08:	9114      	str	r1, [sp, #80]	; 0x50
    1d0a:	900b      	str	r0, [sp, #44]	; 0x2c
    1d0c:	f1b9 0f66 	cmp.w	r9, #102	; 0x66
    1d10:	d00b      	beq.n	1d2a <_svfprintf_r+0x3d6>
    1d12:	f1b9 0f46 	cmp.w	r9, #70	; 0x46
    1d16:	d008      	beq.n	1d2a <_svfprintf_r+0x3d6>
    1d18:	f1b9 0f65 	cmp.w	r9, #101	; 0x65
    1d1c:	d002      	beq.n	1d24 <_svfprintf_r+0x3d0>
    1d1e:	f1b9 0f45 	cmp.w	r9, #69	; 0x45
    1d22:	d105      	bne.n	1d30 <_svfprintf_r+0x3dc>
    1d24:	f10c 0b01 	add.w	fp, ip, #1
    1d28:	e003      	b.n	1d32 <_svfprintf_r+0x3de>
    1d2a:	46e3      	mov	fp, ip
    1d2c:	2303      	movs	r3, #3
    1d2e:	e001      	b.n	1d34 <_svfprintf_r+0x3e0>
    1d30:	46e3      	mov	fp, ip
    1d32:	2302      	movs	r3, #2
    1d34:	9300      	str	r3, [sp, #0]
    1d36:	4640      	mov	r0, r8
    1d38:	ab3c      	add	r3, sp, #240	; 0xf0
    1d3a:	9a10      	ldr	r2, [sp, #64]	; 0x40
    1d3c:	9302      	str	r3, [sp, #8]
    1d3e:	ab3b      	add	r3, sp, #236	; 0xec
    1d40:	9303      	str	r3, [sp, #12]
    1d42:	ab3a      	add	r3, sp, #232	; 0xe8
    1d44:	9304      	str	r3, [sp, #16]
    1d46:	9b0b      	ldr	r3, [sp, #44]	; 0x2c
    1d48:	f8cd c018 	str.w	ip, [sp, #24]
    1d4c:	f8cd b004 	str.w	fp, [sp, #4]
    1d50:	f000 ff72 	bl	2c38 <_dtoa_r>
    1d54:	f1b9 0f67 	cmp.w	r9, #103	; 0x67
    1d58:	f8dd c018 	ldr.w	ip, [sp, #24]
    1d5c:	4682      	mov	sl, r0
    1d5e:	d002      	beq.n	1d66 <_svfprintf_r+0x412>
    1d60:	f1b9 0f47 	cmp.w	r9, #71	; 0x47
    1d64:	d102      	bne.n	1d6c <_svfprintf_r+0x418>
    1d66:	f015 0f01 	tst.w	r5, #1
    1d6a:	d034      	beq.n	1dd6 <_svfprintf_r+0x482>
    1d6c:	f1b9 0f66 	cmp.w	r9, #102	; 0x66
    1d70:	eb0a 020b 	add.w	r2, sl, fp
    1d74:	9208      	str	r2, [sp, #32]
    1d76:	d002      	beq.n	1d7e <_svfprintf_r+0x42a>
    1d78:	f1b9 0f46 	cmp.w	r9, #70	; 0x46
    1d7c:	d115      	bne.n	1daa <_svfprintf_r+0x456>
    1d7e:	f89a 3000 	ldrb.w	r3, [sl]
    1d82:	2b30      	cmp	r3, #48	; 0x30
    1d84:	d10d      	bne.n	1da2 <_svfprintf_r+0x44e>
    1d86:	9810      	ldr	r0, [sp, #64]	; 0x40
    1d88:	2200      	movs	r2, #0
    1d8a:	990b      	ldr	r1, [sp, #44]	; 0x2c
    1d8c:	2300      	movs	r3, #0
    1d8e:	f8cd c018 	str.w	ip, [sp, #24]
    1d92:	f002 fd21 	bl	47d8 <__aeabi_dcmpeq>
    1d96:	f8dd c018 	ldr.w	ip, [sp, #24]
    1d9a:	b910      	cbnz	r0, 1da2 <_svfprintf_r+0x44e>
    1d9c:	f1cb 0301 	rsb	r3, fp, #1
    1da0:	933c      	str	r3, [sp, #240]	; 0xf0
    1da2:	9808      	ldr	r0, [sp, #32]
    1da4:	9b3c      	ldr	r3, [sp, #240]	; 0xf0
    1da6:	18c0      	adds	r0, r0, r3
    1da8:	9008      	str	r0, [sp, #32]
    1daa:	9810      	ldr	r0, [sp, #64]	; 0x40
    1dac:	2200      	movs	r2, #0
    1dae:	990b      	ldr	r1, [sp, #44]	; 0x2c
    1db0:	2300      	movs	r3, #0
    1db2:	f8cd c018 	str.w	ip, [sp, #24]
    1db6:	f002 fd0f 	bl	47d8 <__aeabi_dcmpeq>
    1dba:	f8dd c018 	ldr.w	ip, [sp, #24]
    1dbe:	b130      	cbz	r0, 1dce <_svfprintf_r+0x47a>
    1dc0:	9908      	ldr	r1, [sp, #32]
    1dc2:	913a      	str	r1, [sp, #232]	; 0xe8
    1dc4:	e003      	b.n	1dce <_svfprintf_r+0x47a>
    1dc6:	2230      	movs	r2, #48	; 0x30
    1dc8:	f803 2b01 	strb.w	r2, [r3], #1
    1dcc:	933a      	str	r3, [sp, #232]	; 0xe8
    1dce:	9b3a      	ldr	r3, [sp, #232]	; 0xe8
    1dd0:	9a08      	ldr	r2, [sp, #32]
    1dd2:	4293      	cmp	r3, r2
    1dd4:	d3f7      	bcc.n	1dc6 <_svfprintf_r+0x472>
    1dd6:	9b3a      	ldr	r3, [sp, #232]	; 0xe8
    1dd8:	f1b9 0f67 	cmp.w	r9, #103	; 0x67
    1ddc:	ebca 0303 	rsb	r3, sl, r3
    1de0:	930b      	str	r3, [sp, #44]	; 0x2c
    1de2:	9b3c      	ldr	r3, [sp, #240]	; 0xf0
    1de4:	d002      	beq.n	1dec <_svfprintf_r+0x498>
    1de6:	f1b9 0f47 	cmp.w	r9, #71	; 0x47
    1dea:	d108      	bne.n	1dfe <_svfprintf_r+0x4aa>
    1dec:	f113 0f03 	cmn.w	r3, #3
    1df0:	469b      	mov	fp, r3
    1df2:	db01      	blt.n	1df8 <_svfprintf_r+0x4a4>
    1df4:	4563      	cmp	r3, ip
    1df6:	dd75      	ble.n	1ee4 <_svfprintf_r+0x590>
    1df8:	f1a9 0902 	sub.w	r9, r9, #2
    1dfc:	e002      	b.n	1e04 <_svfprintf_r+0x4b0>
    1dfe:	f1b9 0f66 	cmp.w	r9, #102	; 0x66
    1e02:	d059      	beq.n	1eb8 <_svfprintf_r+0x564>
    1e04:	f103 3bff 	add.w	fp, r3, #4294967295	; 0xffffffff
    1e08:	f88d 90e0 	strb.w	r9, [sp, #224]	; 0xe0
    1e0c:	f1bb 0f00 	cmp.w	fp, #0
    1e10:	f8cd b0f0 	str.w	fp, [sp, #240]	; 0xf0
    1e14:	da03      	bge.n	1e1e <_svfprintf_r+0x4ca>
    1e16:	f1cb 0b00 	rsb	fp, fp, #0
    1e1a:	232d      	movs	r3, #45	; 0x2d
    1e1c:	e000      	b.n	1e20 <_svfprintf_r+0x4cc>
    1e1e:	232b      	movs	r3, #43	; 0x2b
    1e20:	f1bb 0f09 	cmp.w	fp, #9
    1e24:	f88d 30e1 	strb.w	r3, [sp, #225]	; 0xe1
    1e28:	dd2f      	ble.n	1e8a <_svfprintf_r+0x536>
    1e2a:	f10d 03de 	add.w	r3, sp, #222	; 0xde
    1e2e:	4652      	mov	r2, sl
    1e30:	46cc      	mov	ip, r9
    1e32:	46a2      	mov	sl, r4
    1e34:	461c      	mov	r4, r3
    1e36:	4658      	mov	r0, fp
    1e38:	210a      	movs	r1, #10
    1e3a:	9207      	str	r2, [sp, #28]
    1e3c:	46a1      	mov	r9, r4
    1e3e:	f8cd c018 	str.w	ip, [sp, #24]
    1e42:	f002 fc63 	bl	470c <__aeabi_idivmod>
    1e46:	4658      	mov	r0, fp
    1e48:	3130      	adds	r1, #48	; 0x30
    1e4a:	f804 1901 	strb.w	r1, [r4], #-1
    1e4e:	210a      	movs	r1, #10
    1e50:	f002 fb12 	bl	4478 <__aeabi_idiv>
    1e54:	9a07      	ldr	r2, [sp, #28]
    1e56:	f8dd c018 	ldr.w	ip, [sp, #24]
    1e5a:	2809      	cmp	r0, #9
    1e5c:	4683      	mov	fp, r0
    1e5e:	dcea      	bgt.n	1e36 <_svfprintf_r+0x4e2>
    1e60:	4654      	mov	r4, sl
    1e62:	4692      	mov	sl, r2
    1e64:	464a      	mov	r2, r9
    1e66:	f100 0b30 	add.w	fp, r0, #48	; 0x30
    1e6a:	46e1      	mov	r9, ip
    1e6c:	f10d 03e2 	add.w	r3, sp, #226	; 0xe2
    1e70:	f802 bc01 	strb.w	fp, [r2, #-1]
    1e74:	3a01      	subs	r2, #1
    1e76:	e003      	b.n	1e80 <_svfprintf_r+0x52c>
    1e78:	f812 1b01 	ldrb.w	r1, [r2], #1
    1e7c:	f803 1b01 	strb.w	r1, [r3], #1
    1e80:	f10d 01df 	add.w	r1, sp, #223	; 0xdf
    1e84:	428a      	cmp	r2, r1
    1e86:	d3f7      	bcc.n	1e78 <_svfprintf_r+0x524>
    1e88:	e006      	b.n	1e98 <_svfprintf_r+0x544>
    1e8a:	2330      	movs	r3, #48	; 0x30
    1e8c:	f88d 30e2 	strb.w	r3, [sp, #226]	; 0xe2
    1e90:	449b      	add	fp, r3
    1e92:	ab39      	add	r3, sp, #228	; 0xe4
    1e94:	f88d b0e3 	strb.w	fp, [sp, #227]	; 0xe3
    1e98:	aa38      	add	r2, sp, #224	; 0xe0
    1e9a:	1a9a      	subs	r2, r3, r2
    1e9c:	9b0b      	ldr	r3, [sp, #44]	; 0x2c
    1e9e:	9215      	str	r2, [sp, #84]	; 0x54
    1ea0:	2b01      	cmp	r3, #1
    1ea2:	eb02 0b03 	add.w	fp, r2, r3
    1ea6:	dc02      	bgt.n	1eae <_svfprintf_r+0x55a>
    1ea8:	f015 0301 	ands.w	r3, r5, #1
    1eac:	d044      	beq.n	1f38 <_svfprintf_r+0x5e4>
    1eae:	2000      	movs	r0, #0
    1eb0:	f10b 0b01 	add.w	fp, fp, #1
    1eb4:	9008      	str	r0, [sp, #32]
    1eb6:	e040      	b.n	1f3a <_svfprintf_r+0x5e6>
    1eb8:	2b00      	cmp	r3, #0
    1eba:	469b      	mov	fp, r3
    1ebc:	dd09      	ble.n	1ed2 <_svfprintf_r+0x57e>
    1ebe:	f1bc 0f00 	cmp.w	ip, #0
    1ec2:	d102      	bne.n	1eca <_svfprintf_r+0x576>
    1ec4:	f015 0f01 	tst.w	r5, #1
    1ec8:	d028      	beq.n	1f1c <_svfprintf_r+0x5c8>
    1eca:	f103 0b01 	add.w	fp, r3, #1
    1ece:	44e3      	add	fp, ip
    1ed0:	e024      	b.n	1f1c <_svfprintf_r+0x5c8>
    1ed2:	f1bc 0f00 	cmp.w	ip, #0
    1ed6:	d102      	bne.n	1ede <_svfprintf_r+0x58a>
    1ed8:	f015 0f01 	tst.w	r5, #1
    1edc:	d019      	beq.n	1f12 <_svfprintf_r+0x5be>
    1ede:	f10c 0b02 	add.w	fp, ip, #2
    1ee2:	e01b      	b.n	1f1c <_svfprintf_r+0x5c8>
    1ee4:	990b      	ldr	r1, [sp, #44]	; 0x2c
    1ee6:	428b      	cmp	r3, r1
    1ee8:	db07      	blt.n	1efa <_svfprintf_r+0x5a6>
    1eea:	f015 0f01 	tst.w	r5, #1
    1eee:	d013      	beq.n	1f18 <_svfprintf_r+0x5c4>
    1ef0:	2267      	movs	r2, #103	; 0x67
    1ef2:	f103 0b01 	add.w	fp, r3, #1
    1ef6:	920e      	str	r2, [sp, #56]	; 0x38
    1ef8:	e010      	b.n	1f1c <_svfprintf_r+0x5c8>
    1efa:	2b00      	cmp	r3, #0
    1efc:	bfd8      	it	le
    1efe:	f1c3 0b02 	rsble	fp, r3, #2
    1f02:	9b0b      	ldr	r3, [sp, #44]	; 0x2c
    1f04:	bfc8      	it	gt
    1f06:	f04f 0b01 	movgt.w	fp, #1
    1f0a:	2067      	movs	r0, #103	; 0x67
    1f0c:	449b      	add	fp, r3
    1f0e:	900e      	str	r0, [sp, #56]	; 0x38
    1f10:	e004      	b.n	1f1c <_svfprintf_r+0x5c8>
    1f12:	f04f 0b01 	mov.w	fp, #1
    1f16:	e001      	b.n	1f1c <_svfprintf_r+0x5c8>
    1f18:	2167      	movs	r1, #103	; 0x67
    1f1a:	910e      	str	r1, [sp, #56]	; 0x38
    1f1c:	9a3c      	ldr	r2, [sp, #240]	; 0xf0
    1f1e:	f8dd 9038 	ldr.w	r9, [sp, #56]	; 0x38
    1f22:	9208      	str	r2, [sp, #32]
    1f24:	e009      	b.n	1f3a <_svfprintf_r+0x5e6>
    1f26:	bf00      	nop
    1f28:	00005048 	.word	0x00005048
    1f2c:	0000504c 	.word	0x0000504c
    1f30:	00005050 	.word	0x00005050
    1f34:	00005054 	.word	0x00005054
    1f38:	9308      	str	r3, [sp, #32]
    1f3a:	9b14      	ldr	r3, [sp, #80]	; 0x50
    1f3c:	2b00      	cmp	r3, #0
    1f3e:	f000 819f 	beq.w	2280 <_svfprintf_r+0x92c>
    1f42:	232d      	movs	r3, #45	; 0x2d
    1f44:	f04f 0c00 	mov.w	ip, #0
    1f48:	f88d 30f7 	strb.w	r3, [sp, #247]	; 0xf7
    1f4c:	e1a7      	b.n	229e <_svfprintf_r+0x94a>
    1f4e:	f015 0f20 	tst.w	r5, #32
    1f52:	930c      	str	r3, [sp, #48]	; 0x30
    1f54:	f106 0104 	add.w	r1, r6, #4
    1f58:	d006      	beq.n	1f68 <_svfprintf_r+0x614>
    1f5a:	9d0f      	ldr	r5, [sp, #60]	; 0x3c
    1f5c:	6830      	ldr	r0, [r6, #0]
    1f5e:	462a      	mov	r2, r5
    1f60:	17eb      	asrs	r3, r5, #31
    1f62:	e9c0 2300 	strd	r2, r3, [r0]
    1f66:	e00e      	b.n	1f86 <_svfprintf_r+0x632>
    1f68:	f015 0f10 	tst.w	r5, #16
    1f6c:	d003      	beq.n	1f76 <_svfprintf_r+0x622>
    1f6e:	6833      	ldr	r3, [r6, #0]
    1f70:	980f      	ldr	r0, [sp, #60]	; 0x3c
    1f72:	6018      	str	r0, [r3, #0]
    1f74:	e007      	b.n	1f86 <_svfprintf_r+0x632>
    1f76:	f015 0f40 	tst.w	r5, #64	; 0x40
    1f7a:	6833      	ldr	r3, [r6, #0]
    1f7c:	bf15      	itete	ne
    1f7e:	9a0f      	ldrne	r2, [sp, #60]	; 0x3c
    1f80:	9d0f      	ldreq	r5, [sp, #60]	; 0x3c
    1f82:	801a      	strhne	r2, [r3, #0]
    1f84:	601d      	streq	r5, [r3, #0]
    1f86:	460e      	mov	r6, r1
    1f88:	e514      	b.n	19b4 <_svfprintf_r+0x60>
    1f8a:	930c      	str	r3, [sp, #48]	; 0x30
    1f8c:	f045 0510 	orr.w	r5, r5, #16
    1f90:	920d      	str	r2, [sp, #52]	; 0x34
    1f92:	e001      	b.n	1f98 <_svfprintf_r+0x644>
    1f94:	930c      	str	r3, [sp, #48]	; 0x30
    1f96:	920d      	str	r2, [sp, #52]	; 0x34
    1f98:	f015 0220 	ands.w	r2, r5, #32
    1f9c:	d00a      	beq.n	1fb4 <_svfprintf_r+0x660>
    1f9e:	3607      	adds	r6, #7
    1fa0:	2200      	movs	r2, #0
    1fa2:	f026 0307 	bic.w	r3, r6, #7
    1fa6:	f103 0608 	add.w	r6, r3, #8
    1faa:	e9d3 ab00 	ldrd	sl, fp, [r3]
    1fae:	e9cd ab08 	strd	sl, fp, [sp, #32]
    1fb2:	e0be      	b.n	2132 <_svfprintf_r+0x7de>
    1fb4:	f015 0110 	ands.w	r1, r5, #16
    1fb8:	f106 0304 	add.w	r3, r6, #4
    1fbc:	d002      	beq.n	1fc4 <_svfprintf_r+0x670>
    1fbe:	6831      	ldr	r1, [r6, #0]
    1fc0:	468a      	mov	sl, r1
    1fc2:	e00d      	b.n	1fe0 <_svfprintf_r+0x68c>
    1fc4:	f015 0240 	ands.w	r2, r5, #64	; 0x40
    1fc8:	6830      	ldr	r0, [r6, #0]
    1fca:	d008      	beq.n	1fde <_svfprintf_r+0x68a>
    1fcc:	b280      	uxth	r0, r0
    1fce:	f04f 0b00 	mov.w	fp, #0
    1fd2:	4682      	mov	sl, r0
    1fd4:	461e      	mov	r6, r3
    1fd6:	e9cd ab08 	strd	sl, fp, [sp, #32]
    1fda:	460a      	mov	r2, r1
    1fdc:	e0a9      	b.n	2132 <_svfprintf_r+0x7de>
    1fde:	4682      	mov	sl, r0
    1fe0:	f04f 0b00 	mov.w	fp, #0
    1fe4:	461e      	mov	r6, r3
    1fe6:	e9cd ab08 	strd	sl, fp, [sp, #32]
    1fea:	e0a2      	b.n	2132 <_svfprintf_r+0x7de>
    1fec:	930c      	str	r3, [sp, #48]	; 0x30
    1fee:	2100      	movs	r1, #0
    1ff0:	6833      	ldr	r3, [r6, #0]
    1ff2:	f04f 0978 	mov.w	r9, #120	; 0x78
    1ff6:	920d      	str	r2, [sp, #52]	; 0x34
    1ff8:	f045 0502 	orr.w	r5, r5, #2
    1ffc:	4618      	mov	r0, r3
    1ffe:	e9cd 0108 	strd	r0, r1, [sp, #32]
    2002:	49a3      	ldr	r1, [pc, #652]	; (2290 <_svfprintf_r+0x93c>)
    2004:	2330      	movs	r3, #48	; 0x30
    2006:	f88d 90f5 	strb.w	r9, [sp, #245]	; 0xf5
    200a:	3604      	adds	r6, #4
    200c:	f88d 30f4 	strb.w	r3, [sp, #244]	; 0xf4
    2010:	9116      	str	r1, [sp, #88]	; 0x58
    2012:	e08d      	b.n	2130 <_svfprintf_r+0x7dc>
    2014:	930c      	str	r3, [sp, #48]	; 0x30
    2016:	2300      	movs	r3, #0
    2018:	920d      	str	r2, [sp, #52]	; 0x34
    201a:	4632      	mov	r2, r6
    201c:	3604      	adds	r6, #4
    201e:	459c      	cmp	ip, r3
    2020:	f88d 30f7 	strb.w	r3, [sp, #247]	; 0xf7
    2024:	f8d2 a000 	ldr.w	sl, [r2]
    2028:	db13      	blt.n	2052 <_svfprintf_r+0x6fe>
    202a:	4619      	mov	r1, r3
    202c:	4662      	mov	r2, ip
    202e:	4650      	mov	r0, sl
    2030:	9307      	str	r3, [sp, #28]
    2032:	f8cd c018 	str.w	ip, [sp, #24]
    2036:	f7ff f9ab 	bl	1390 <memchr>
    203a:	9b07      	ldr	r3, [sp, #28]
    203c:	f8dd c018 	ldr.w	ip, [sp, #24]
    2040:	2800      	cmp	r0, #0
    2042:	f000 8120 	beq.w	2286 <_svfprintf_r+0x932>
    2046:	ebca 0b00 	rsb	fp, sl, r0
    204a:	45e3      	cmp	fp, ip
    204c:	f300 8124 	bgt.w	2298 <_svfprintf_r+0x944>
    2050:	e123      	b.n	229a <_svfprintf_r+0x946>
    2052:	4650      	mov	r0, sl
    2054:	9307      	str	r3, [sp, #28]
    2056:	f7ff fbd4 	bl	1802 <strlen>
    205a:	9b07      	ldr	r3, [sp, #28]
    205c:	4683      	mov	fp, r0
    205e:	e11c      	b.n	229a <_svfprintf_r+0x946>
    2060:	930c      	str	r3, [sp, #48]	; 0x30
    2062:	f045 0510 	orr.w	r5, r5, #16
    2066:	920d      	str	r2, [sp, #52]	; 0x34
    2068:	e001      	b.n	206e <_svfprintf_r+0x71a>
    206a:	930c      	str	r3, [sp, #48]	; 0x30
    206c:	920d      	str	r2, [sp, #52]	; 0x34
    206e:	f015 0f20 	tst.w	r5, #32
    2072:	d009      	beq.n	2088 <_svfprintf_r+0x734>
    2074:	3607      	adds	r6, #7
    2076:	f026 0307 	bic.w	r3, r6, #7
    207a:	f103 0608 	add.w	r6, r3, #8
    207e:	e9d3 ab00 	ldrd	sl, fp, [r3]
    2082:	e9cd ab08 	strd	sl, fp, [sp, #32]
    2086:	e016      	b.n	20b6 <_svfprintf_r+0x762>
    2088:	f015 0f10 	tst.w	r5, #16
    208c:	f106 0304 	add.w	r3, r6, #4
    2090:	d001      	beq.n	2096 <_svfprintf_r+0x742>
    2092:	6832      	ldr	r2, [r6, #0]
    2094:	e00a      	b.n	20ac <_svfprintf_r+0x758>
    2096:	f015 0f40 	tst.w	r5, #64	; 0x40
    209a:	6832      	ldr	r2, [r6, #0]
    209c:	d006      	beq.n	20ac <_svfprintf_r+0x758>
    209e:	b292      	uxth	r2, r2
    20a0:	f04f 0b00 	mov.w	fp, #0
    20a4:	4692      	mov	sl, r2
    20a6:	e9cd ab08 	strd	sl, fp, [sp, #32]
    20aa:	e003      	b.n	20b4 <_svfprintf_r+0x760>
    20ac:	4610      	mov	r0, r2
    20ae:	2100      	movs	r1, #0
    20b0:	e9cd 0108 	strd	r0, r1, [sp, #32]
    20b4:	461e      	mov	r6, r3
    20b6:	2201      	movs	r2, #1
    20b8:	e03b      	b.n	2132 <_svfprintf_r+0x7de>
    20ba:	4975      	ldr	r1, [pc, #468]	; (2290 <_svfprintf_r+0x93c>)
    20bc:	930c      	str	r3, [sp, #48]	; 0x30
    20be:	920d      	str	r2, [sp, #52]	; 0x34
    20c0:	9116      	str	r1, [sp, #88]	; 0x58
    20c2:	e003      	b.n	20cc <_svfprintf_r+0x778>
    20c4:	920d      	str	r2, [sp, #52]	; 0x34
    20c6:	4a73      	ldr	r2, [pc, #460]	; (2294 <_svfprintf_r+0x940>)
    20c8:	930c      	str	r3, [sp, #48]	; 0x30
    20ca:	9216      	str	r2, [sp, #88]	; 0x58
    20cc:	f015 0f20 	tst.w	r5, #32
    20d0:	d009      	beq.n	20e6 <_svfprintf_r+0x792>
    20d2:	3607      	adds	r6, #7
    20d4:	f026 0307 	bic.w	r3, r6, #7
    20d8:	f103 0608 	add.w	r6, r3, #8
    20dc:	e9d3 ab00 	ldrd	sl, fp, [r3]
    20e0:	e9cd ab08 	strd	sl, fp, [sp, #32]
    20e4:	e016      	b.n	2114 <_svfprintf_r+0x7c0>
    20e6:	f015 0f10 	tst.w	r5, #16
    20ea:	f106 0304 	add.w	r3, r6, #4
    20ee:	d001      	beq.n	20f4 <_svfprintf_r+0x7a0>
    20f0:	6832      	ldr	r2, [r6, #0]
    20f2:	e00a      	b.n	210a <_svfprintf_r+0x7b6>
    20f4:	f015 0f40 	tst.w	r5, #64	; 0x40
    20f8:	6832      	ldr	r2, [r6, #0]
    20fa:	d006      	beq.n	210a <_svfprintf_r+0x7b6>
    20fc:	b292      	uxth	r2, r2
    20fe:	f04f 0b00 	mov.w	fp, #0
    2102:	4692      	mov	sl, r2
    2104:	e9cd ab08 	strd	sl, fp, [sp, #32]
    2108:	e003      	b.n	2112 <_svfprintf_r+0x7be>
    210a:	4610      	mov	r0, r2
    210c:	2100      	movs	r1, #0
    210e:	e9cd 0108 	strd	r0, r1, [sp, #32]
    2112:	461e      	mov	r6, r3
    2114:	f015 0f01 	tst.w	r5, #1
    2118:	d00a      	beq.n	2130 <_svfprintf_r+0x7dc>
    211a:	e9dd 2308 	ldrd	r2, r3, [sp, #32]
    211e:	4313      	orrs	r3, r2
    2120:	d006      	beq.n	2130 <_svfprintf_r+0x7dc>
    2122:	f045 0502 	orr.w	r5, r5, #2
    2126:	2330      	movs	r3, #48	; 0x30
    2128:	f88d 90f5 	strb.w	r9, [sp, #245]	; 0xf5
    212c:	f88d 30f4 	strb.w	r3, [sp, #244]	; 0xf4
    2130:	2202      	movs	r2, #2
    2132:	2300      	movs	r3, #0
    2134:	f88d 30f7 	strb.w	r3, [sp, #247]	; 0xf7
    2138:	e000      	b.n	213c <_svfprintf_r+0x7e8>
    213a:	2201      	movs	r2, #1
    213c:	e9dd ab08 	ldrd	sl, fp, [sp, #32]
    2140:	f1bc 0f00 	cmp.w	ip, #0
    2144:	bfa8      	it	ge
    2146:	f025 0580 	bicge.w	r5, r5, #128	; 0x80
    214a:	ea5a 0b0b 	orrs.w	fp, sl, fp
    214e:	d102      	bne.n	2156 <_svfprintf_r+0x802>
    2150:	f1bc 0f00 	cmp.w	ip, #0
    2154:	d06e      	beq.n	2234 <_svfprintf_r+0x8e0>
    2156:	2a01      	cmp	r2, #1
    2158:	d023      	beq.n	21a2 <_svfprintf_r+0x84e>
    215a:	2a02      	cmp	r2, #2
    215c:	d051      	beq.n	2202 <_svfprintf_r+0x8ae>
    215e:	f10d 03cb 	add.w	r3, sp, #203	; 0xcb
    2162:	9808      	ldr	r0, [sp, #32]
    2164:	469a      	mov	sl, r3
    2166:	f000 0207 	and.w	r2, r0, #7
    216a:	3230      	adds	r2, #48	; 0x30
    216c:	701a      	strb	r2, [r3, #0]
    216e:	9908      	ldr	r1, [sp, #32]
    2170:	3b01      	subs	r3, #1
    2172:	f8dd b024 	ldr.w	fp, [sp, #36]	; 0x24
    2176:	08c8      	lsrs	r0, r1, #3
    2178:	ea40 714b 	orr.w	r1, r0, fp, lsl #29
    217c:	ea4f 0bdb 	mov.w	fp, fp, lsr #3
    2180:	9108      	str	r1, [sp, #32]
    2182:	f8cd b024 	str.w	fp, [sp, #36]	; 0x24
    2186:	e9dd 0108 	ldrd	r0, r1, [sp, #32]
    218a:	4301      	orrs	r1, r0
    218c:	d1e9      	bne.n	2162 <_svfprintf_r+0x80e>
    218e:	f015 0f01 	tst.w	r5, #1
    2192:	d05b      	beq.n	224c <_svfprintf_r+0x8f8>
    2194:	2a30      	cmp	r2, #48	; 0x30
    2196:	d059      	beq.n	224c <_svfprintf_r+0x8f8>
    2198:	469a      	mov	sl, r3
    219a:	2330      	movs	r3, #48	; 0x30
    219c:	f88a 3000 	strb.w	r3, [sl]
    21a0:	e054      	b.n	224c <_svfprintf_r+0x8f8>
    21a2:	e9dd 2308 	ldrd	r2, r3, [sp, #32]
    21a6:	2a0a      	cmp	r2, #10
    21a8:	f173 0300 	sbcs.w	r3, r3, #0
    21ac:	d208      	bcs.n	21c0 <_svfprintf_r+0x86c>
    21ae:	f8dd a020 	ldr.w	sl, [sp, #32]
    21b2:	f10a 0330 	add.w	r3, sl, #48	; 0x30
    21b6:	f10d 0acb 	add.w	sl, sp, #203	; 0xcb
    21ba:	f88d 30cb 	strb.w	r3, [sp, #203]	; 0xcb
    21be:	e045      	b.n	224c <_svfprintf_r+0x8f8>
    21c0:	f10d 0bcb 	add.w	fp, sp, #203	; 0xcb
    21c4:	4623      	mov	r3, r4
    21c6:	465c      	mov	r4, fp
    21c8:	46cb      	mov	fp, r9
    21ca:	4699      	mov	r9, r3
    21cc:	e9dd 0108 	ldrd	r0, r1, [sp, #32]
    21d0:	220a      	movs	r2, #10
    21d2:	2300      	movs	r3, #0
    21d4:	f8cd c018 	str.w	ip, [sp, #24]
    21d8:	f002 fb30 	bl	483c <__aeabi_uldivmod>
    21dc:	46a2      	mov	sl, r4
    21de:	2300      	movs	r3, #0
    21e0:	3230      	adds	r2, #48	; 0x30
    21e2:	f804 2901 	strb.w	r2, [r4], #-1
    21e6:	e9dd 0108 	ldrd	r0, r1, [sp, #32]
    21ea:	220a      	movs	r2, #10
    21ec:	f002 fb26 	bl	483c <__aeabi_uldivmod>
    21f0:	f8dd c018 	ldr.w	ip, [sp, #24]
    21f4:	e9cd 0108 	strd	r0, r1, [sp, #32]
    21f8:	4308      	orrs	r0, r1
    21fa:	d1e7      	bne.n	21cc <_svfprintf_r+0x878>
    21fc:	464c      	mov	r4, r9
    21fe:	46d9      	mov	r9, fp
    2200:	e024      	b.n	224c <_svfprintf_r+0x8f8>
    2202:	f10d 03cb 	add.w	r3, sp, #203	; 0xcb
    2206:	9908      	ldr	r1, [sp, #32]
    2208:	469a      	mov	sl, r3
    220a:	f8dd b058 	ldr.w	fp, [sp, #88]	; 0x58
    220e:	f001 020f 	and.w	r2, r1, #15
    2212:	f81b 2002 	ldrb.w	r2, [fp, r2]
    2216:	f803 2901 	strb.w	r2, [r3], #-1
    221a:	9908      	ldr	r1, [sp, #32]
    221c:	9a09      	ldr	r2, [sp, #36]	; 0x24
    221e:	0908      	lsrs	r0, r1, #4
    2220:	ea40 7102 	orr.w	r1, r0, r2, lsl #28
    2224:	0912      	lsrs	r2, r2, #4
    2226:	9108      	str	r1, [sp, #32]
    2228:	9209      	str	r2, [sp, #36]	; 0x24
    222a:	e9dd 0108 	ldrd	r0, r1, [sp, #32]
    222e:	4301      	orrs	r1, r0
    2230:	d1e9      	bne.n	2206 <_svfprintf_r+0x8b2>
    2232:	e00b      	b.n	224c <_svfprintf_r+0x8f8>
    2234:	b942      	cbnz	r2, 2248 <_svfprintf_r+0x8f4>
    2236:	f015 0f01 	tst.w	r5, #1
    223a:	d005      	beq.n	2248 <_svfprintf_r+0x8f4>
    223c:	f10d 0af8 	add.w	sl, sp, #248	; 0xf8
    2240:	2330      	movs	r3, #48	; 0x30
    2242:	f80a 3d2d 	strb.w	r3, [sl, #-45]!
    2246:	e001      	b.n	224c <_svfprintf_r+0x8f8>
    2248:	f10d 0acc 	add.w	sl, sp, #204	; 0xcc
    224c:	f10d 0bcc 	add.w	fp, sp, #204	; 0xcc
    2250:	2200      	movs	r2, #0
    2252:	ebca 0b0b 	rsb	fp, sl, fp
    2256:	9208      	str	r2, [sp, #32]
    2258:	e021      	b.n	229e <_svfprintf_r+0x94a>
    225a:	930c      	str	r3, [sp, #48]	; 0x30
    225c:	920d      	str	r2, [sp, #52]	; 0x34
    225e:	f1b9 0f00 	cmp.w	r9, #0
    2262:	f000 83df 	beq.w	2a24 <_svfprintf_r+0x10d0>
    2266:	f04f 0c00 	mov.w	ip, #0
    226a:	f88d 90a4 	strb.w	r9, [sp, #164]	; 0xa4
    226e:	f88d c0f7 	strb.w	ip, [sp, #247]	; 0xf7
    2272:	f04f 0b01 	mov.w	fp, #1
    2276:	f8cd c020 	str.w	ip, [sp, #32]
    227a:	f10d 0aa4 	add.w	sl, sp, #164	; 0xa4
    227e:	e00e      	b.n	229e <_svfprintf_r+0x94a>
    2280:	f8dd c050 	ldr.w	ip, [sp, #80]	; 0x50
    2284:	e00b      	b.n	229e <_svfprintf_r+0x94a>
    2286:	46e3      	mov	fp, ip
    2288:	4684      	mov	ip, r0
    228a:	9008      	str	r0, [sp, #32]
    228c:	e007      	b.n	229e <_svfprintf_r+0x94a>
    228e:	bf00      	nop
    2290:	00005069 	.word	0x00005069
    2294:	00005058 	.word	0x00005058
    2298:	46e3      	mov	fp, ip
    229a:	469c      	mov	ip, r3
    229c:	9308      	str	r3, [sp, #32]
    229e:	45e3      	cmp	fp, ip
    22a0:	bfac      	ite	ge
    22a2:	465b      	movge	r3, fp
    22a4:	4663      	movlt	r3, ip
    22a6:	930e      	str	r3, [sp, #56]	; 0x38
    22a8:	f89d 30f7 	ldrb.w	r3, [sp, #247]	; 0xf7
    22ac:	b113      	cbz	r3, 22b4 <_svfprintf_r+0x960>
    22ae:	980e      	ldr	r0, [sp, #56]	; 0x38
    22b0:	3001      	adds	r0, #1
    22b2:	900e      	str	r0, [sp, #56]	; 0x38
    22b4:	f015 0102 	ands.w	r1, r5, #2
    22b8:	9114      	str	r1, [sp, #80]	; 0x50
    22ba:	d002      	beq.n	22c2 <_svfprintf_r+0x96e>
    22bc:	9a0e      	ldr	r2, [sp, #56]	; 0x38
    22be:	3202      	adds	r2, #2
    22c0:	920e      	str	r2, [sp, #56]	; 0x38
    22c2:	f015 0384 	ands.w	r3, r5, #132	; 0x84
    22c6:	9317      	str	r3, [sp, #92]	; 0x5c
    22c8:	d146      	bne.n	2358 <_svfprintf_r+0xa04>
    22ca:	980d      	ldr	r0, [sp, #52]	; 0x34
    22cc:	990e      	ldr	r1, [sp, #56]	; 0x38
    22ce:	1a43      	subs	r3, r0, r1
    22d0:	2b00      	cmp	r3, #0
    22d2:	dc1b      	bgt.n	230c <_svfprintf_r+0x9b8>
    22d4:	e040      	b.n	2358 <_svfprintf_r+0xa04>
    22d6:	601a      	str	r2, [r3, #0]
    22d8:	2210      	movs	r2, #16
    22da:	1889      	adds	r1, r1, r2
    22dc:	605a      	str	r2, [r3, #4]
    22de:	9a34      	ldr	r2, [sp, #208]	; 0xd0
    22e0:	9135      	str	r1, [sp, #212]	; 0xd4
    22e2:	3201      	adds	r2, #1
    22e4:	9234      	str	r2, [sp, #208]	; 0xd0
    22e6:	2a07      	cmp	r2, #7
    22e8:	dc01      	bgt.n	22ee <_svfprintf_r+0x99a>
    22ea:	3308      	adds	r3, #8
    22ec:	e00c      	b.n	2308 <_svfprintf_r+0x9b4>
    22ee:	4640      	mov	r0, r8
    22f0:	4639      	mov	r1, r7
    22f2:	aa33      	add	r2, sp, #204	; 0xcc
    22f4:	f8cd c018 	str.w	ip, [sp, #24]
    22f8:	f001 feda 	bl	40b0 <__ssprint_r>
    22fc:	f8dd c018 	ldr.w	ip, [sp, #24]
    2300:	2800      	cmp	r0, #0
    2302:	f040 8396 	bne.w	2a32 <_svfprintf_r+0x10de>
    2306:	ab19      	add	r3, sp, #100	; 0x64
    2308:	3d10      	subs	r5, #16
    230a:	e004      	b.n	2316 <_svfprintf_r+0x9c2>
    230c:	462a      	mov	r2, r5
    230e:	461d      	mov	r5, r3
    2310:	4623      	mov	r3, r4
    2312:	464c      	mov	r4, r9
    2314:	4691      	mov	r9, r2
    2316:	2d10      	cmp	r5, #16
    2318:	9935      	ldr	r1, [sp, #212]	; 0xd4
    231a:	4a93      	ldr	r2, [pc, #588]	; (2568 <_svfprintf_r+0xc14>)
    231c:	dcdb      	bgt.n	22d6 <_svfprintf_r+0x982>
    231e:	4648      	mov	r0, r9
    2320:	46a1      	mov	r9, r4
    2322:	461c      	mov	r4, r3
    2324:	462b      	mov	r3, r5
    2326:	4605      	mov	r5, r0
    2328:	6063      	str	r3, [r4, #4]
    232a:	18cb      	adds	r3, r1, r3
    232c:	6022      	str	r2, [r4, #0]
    232e:	9335      	str	r3, [sp, #212]	; 0xd4
    2330:	9b34      	ldr	r3, [sp, #208]	; 0xd0
    2332:	3301      	adds	r3, #1
    2334:	9334      	str	r3, [sp, #208]	; 0xd0
    2336:	2b07      	cmp	r3, #7
    2338:	dc01      	bgt.n	233e <_svfprintf_r+0x9ea>
    233a:	3408      	adds	r4, #8
    233c:	e00c      	b.n	2358 <_svfprintf_r+0xa04>
    233e:	4640      	mov	r0, r8
    2340:	4639      	mov	r1, r7
    2342:	aa33      	add	r2, sp, #204	; 0xcc
    2344:	f8cd c018 	str.w	ip, [sp, #24]
    2348:	f001 feb2 	bl	40b0 <__ssprint_r>
    234c:	f8dd c018 	ldr.w	ip, [sp, #24]
    2350:	2800      	cmp	r0, #0
    2352:	f040 836e 	bne.w	2a32 <_svfprintf_r+0x10de>
    2356:	ac19      	add	r4, sp, #100	; 0x64
    2358:	f89d 30f7 	ldrb.w	r3, [sp, #247]	; 0xf7
    235c:	b1db      	cbz	r3, 2396 <_svfprintf_r+0xa42>
    235e:	f10d 03f7 	add.w	r3, sp, #247	; 0xf7
    2362:	6023      	str	r3, [r4, #0]
    2364:	2301      	movs	r3, #1
    2366:	6063      	str	r3, [r4, #4]
    2368:	9b35      	ldr	r3, [sp, #212]	; 0xd4
    236a:	3301      	adds	r3, #1
    236c:	9335      	str	r3, [sp, #212]	; 0xd4
    236e:	9b34      	ldr	r3, [sp, #208]	; 0xd0
    2370:	3301      	adds	r3, #1
    2372:	9334      	str	r3, [sp, #208]	; 0xd0
    2374:	2b07      	cmp	r3, #7
    2376:	dc01      	bgt.n	237c <_svfprintf_r+0xa28>
    2378:	3408      	adds	r4, #8
    237a:	e00c      	b.n	2396 <_svfprintf_r+0xa42>
    237c:	4640      	mov	r0, r8
    237e:	4639      	mov	r1, r7
    2380:	aa33      	add	r2, sp, #204	; 0xcc
    2382:	f8cd c018 	str.w	ip, [sp, #24]
    2386:	f001 fe93 	bl	40b0 <__ssprint_r>
    238a:	f8dd c018 	ldr.w	ip, [sp, #24]
    238e:	2800      	cmp	r0, #0
    2390:	f040 834f 	bne.w	2a32 <_svfprintf_r+0x10de>
    2394:	ac19      	add	r4, sp, #100	; 0x64
    2396:	9a14      	ldr	r2, [sp, #80]	; 0x50
    2398:	b1d2      	cbz	r2, 23d0 <_svfprintf_r+0xa7c>
    239a:	ab3d      	add	r3, sp, #244	; 0xf4
    239c:	6023      	str	r3, [r4, #0]
    239e:	2302      	movs	r3, #2
    23a0:	6063      	str	r3, [r4, #4]
    23a2:	9b35      	ldr	r3, [sp, #212]	; 0xd4
    23a4:	3302      	adds	r3, #2
    23a6:	9335      	str	r3, [sp, #212]	; 0xd4
    23a8:	9b34      	ldr	r3, [sp, #208]	; 0xd0
    23aa:	3301      	adds	r3, #1
    23ac:	9334      	str	r3, [sp, #208]	; 0xd0
    23ae:	2b07      	cmp	r3, #7
    23b0:	dc01      	bgt.n	23b6 <_svfprintf_r+0xa62>
    23b2:	3408      	adds	r4, #8
    23b4:	e00c      	b.n	23d0 <_svfprintf_r+0xa7c>
    23b6:	4640      	mov	r0, r8
    23b8:	4639      	mov	r1, r7
    23ba:	aa33      	add	r2, sp, #204	; 0xcc
    23bc:	f8cd c018 	str.w	ip, [sp, #24]
    23c0:	f001 fe76 	bl	40b0 <__ssprint_r>
    23c4:	f8dd c018 	ldr.w	ip, [sp, #24]
    23c8:	2800      	cmp	r0, #0
    23ca:	f040 8332 	bne.w	2a32 <_svfprintf_r+0x10de>
    23ce:	ac19      	add	r4, sp, #100	; 0x64
    23d0:	9b17      	ldr	r3, [sp, #92]	; 0x5c
    23d2:	2b80      	cmp	r3, #128	; 0x80
    23d4:	d146      	bne.n	2464 <_svfprintf_r+0xb10>
    23d6:	980d      	ldr	r0, [sp, #52]	; 0x34
    23d8:	990e      	ldr	r1, [sp, #56]	; 0x38
    23da:	1a43      	subs	r3, r0, r1
    23dc:	2b00      	cmp	r3, #0
    23de:	dc1b      	bgt.n	2418 <_svfprintf_r+0xac4>
    23e0:	e040      	b.n	2464 <_svfprintf_r+0xb10>
    23e2:	601a      	str	r2, [r3, #0]
    23e4:	2210      	movs	r2, #16
    23e6:	1889      	adds	r1, r1, r2
    23e8:	605a      	str	r2, [r3, #4]
    23ea:	9a34      	ldr	r2, [sp, #208]	; 0xd0
    23ec:	9135      	str	r1, [sp, #212]	; 0xd4
    23ee:	3201      	adds	r2, #1
    23f0:	9234      	str	r2, [sp, #208]	; 0xd0
    23f2:	2a07      	cmp	r2, #7
    23f4:	dc01      	bgt.n	23fa <_svfprintf_r+0xaa6>
    23f6:	3308      	adds	r3, #8
    23f8:	e00c      	b.n	2414 <_svfprintf_r+0xac0>
    23fa:	4640      	mov	r0, r8
    23fc:	4639      	mov	r1, r7
    23fe:	aa33      	add	r2, sp, #204	; 0xcc
    2400:	f8cd c018 	str.w	ip, [sp, #24]
    2404:	f001 fe54 	bl	40b0 <__ssprint_r>
    2408:	f8dd c018 	ldr.w	ip, [sp, #24]
    240c:	2800      	cmp	r0, #0
    240e:	f040 8310 	bne.w	2a32 <_svfprintf_r+0x10de>
    2412:	ab19      	add	r3, sp, #100	; 0x64
    2414:	3d10      	subs	r5, #16
    2416:	e004      	b.n	2422 <_svfprintf_r+0xace>
    2418:	462a      	mov	r2, r5
    241a:	461d      	mov	r5, r3
    241c:	4623      	mov	r3, r4
    241e:	464c      	mov	r4, r9
    2420:	4691      	mov	r9, r2
    2422:	2d10      	cmp	r5, #16
    2424:	9935      	ldr	r1, [sp, #212]	; 0xd4
    2426:	4a51      	ldr	r2, [pc, #324]	; (256c <_svfprintf_r+0xc18>)
    2428:	dcdb      	bgt.n	23e2 <_svfprintf_r+0xa8e>
    242a:	4648      	mov	r0, r9
    242c:	46a1      	mov	r9, r4
    242e:	461c      	mov	r4, r3
    2430:	462b      	mov	r3, r5
    2432:	4605      	mov	r5, r0
    2434:	6063      	str	r3, [r4, #4]
    2436:	18cb      	adds	r3, r1, r3
    2438:	6022      	str	r2, [r4, #0]
    243a:	9335      	str	r3, [sp, #212]	; 0xd4
    243c:	9b34      	ldr	r3, [sp, #208]	; 0xd0
    243e:	3301      	adds	r3, #1
    2440:	9334      	str	r3, [sp, #208]	; 0xd0
    2442:	2b07      	cmp	r3, #7
    2444:	dc01      	bgt.n	244a <_svfprintf_r+0xaf6>
    2446:	3408      	adds	r4, #8
    2448:	e00c      	b.n	2464 <_svfprintf_r+0xb10>
    244a:	4640      	mov	r0, r8
    244c:	4639      	mov	r1, r7
    244e:	aa33      	add	r2, sp, #204	; 0xcc
    2450:	f8cd c018 	str.w	ip, [sp, #24]
    2454:	f001 fe2c 	bl	40b0 <__ssprint_r>
    2458:	f8dd c018 	ldr.w	ip, [sp, #24]
    245c:	2800      	cmp	r0, #0
    245e:	f040 82e8 	bne.w	2a32 <_svfprintf_r+0x10de>
    2462:	ac19      	add	r4, sp, #100	; 0x64
    2464:	ebcb 030c 	rsb	r3, fp, ip
    2468:	2b00      	cmp	r3, #0
    246a:	dc17      	bgt.n	249c <_svfprintf_r+0xb48>
    246c:	e038      	b.n	24e0 <_svfprintf_r+0xb8c>
    246e:	601a      	str	r2, [r3, #0]
    2470:	2210      	movs	r2, #16
    2472:	1889      	adds	r1, r1, r2
    2474:	605a      	str	r2, [r3, #4]
    2476:	9a34      	ldr	r2, [sp, #208]	; 0xd0
    2478:	9135      	str	r1, [sp, #212]	; 0xd4
    247a:	3201      	adds	r2, #1
    247c:	9234      	str	r2, [sp, #208]	; 0xd0
    247e:	2a07      	cmp	r2, #7
    2480:	dc01      	bgt.n	2486 <_svfprintf_r+0xb32>
    2482:	3308      	adds	r3, #8
    2484:	e008      	b.n	2498 <_svfprintf_r+0xb44>
    2486:	4640      	mov	r0, r8
    2488:	4639      	mov	r1, r7
    248a:	aa33      	add	r2, sp, #204	; 0xcc
    248c:	f001 fe10 	bl	40b0 <__ssprint_r>
    2490:	2800      	cmp	r0, #0
    2492:	f040 82ce 	bne.w	2a32 <_svfprintf_r+0x10de>
    2496:	ab19      	add	r3, sp, #100	; 0x64
    2498:	3d10      	subs	r5, #16
    249a:	e004      	b.n	24a6 <_svfprintf_r+0xb52>
    249c:	462a      	mov	r2, r5
    249e:	461d      	mov	r5, r3
    24a0:	4623      	mov	r3, r4
    24a2:	464c      	mov	r4, r9
    24a4:	4691      	mov	r9, r2
    24a6:	2d10      	cmp	r5, #16
    24a8:	9935      	ldr	r1, [sp, #212]	; 0xd4
    24aa:	4a30      	ldr	r2, [pc, #192]	; (256c <_svfprintf_r+0xc18>)
    24ac:	dcdf      	bgt.n	246e <_svfprintf_r+0xb1a>
    24ae:	4648      	mov	r0, r9
    24b0:	46a1      	mov	r9, r4
    24b2:	461c      	mov	r4, r3
    24b4:	462b      	mov	r3, r5
    24b6:	4605      	mov	r5, r0
    24b8:	6063      	str	r3, [r4, #4]
    24ba:	18cb      	adds	r3, r1, r3
    24bc:	6022      	str	r2, [r4, #0]
    24be:	9335      	str	r3, [sp, #212]	; 0xd4
    24c0:	9b34      	ldr	r3, [sp, #208]	; 0xd0
    24c2:	3301      	adds	r3, #1
    24c4:	9334      	str	r3, [sp, #208]	; 0xd0
    24c6:	2b07      	cmp	r3, #7
    24c8:	dc01      	bgt.n	24ce <_svfprintf_r+0xb7a>
    24ca:	3408      	adds	r4, #8
    24cc:	e008      	b.n	24e0 <_svfprintf_r+0xb8c>
    24ce:	4640      	mov	r0, r8
    24d0:	4639      	mov	r1, r7
    24d2:	aa33      	add	r2, sp, #204	; 0xcc
    24d4:	f001 fdec 	bl	40b0 <__ssprint_r>
    24d8:	2800      	cmp	r0, #0
    24da:	f040 82aa 	bne.w	2a32 <_svfprintf_r+0x10de>
    24de:	ac19      	add	r4, sp, #100	; 0x64
    24e0:	f415 7f80 	tst.w	r5, #256	; 0x100
    24e4:	d106      	bne.n	24f4 <_svfprintf_r+0xba0>
    24e6:	9b35      	ldr	r3, [sp, #212]	; 0xd4
    24e8:	f8c4 a000 	str.w	sl, [r4]
    24ec:	f8c4 b004 	str.w	fp, [r4, #4]
    24f0:	445b      	add	r3, fp
    24f2:	e23f      	b.n	2974 <_svfprintf_r+0x1020>
    24f4:	f1b9 0f65 	cmp.w	r9, #101	; 0x65
    24f8:	f340 81b7 	ble.w	286a <_svfprintf_r+0xf16>
    24fc:	9810      	ldr	r0, [sp, #64]	; 0x40
    24fe:	2200      	movs	r2, #0
    2500:	9911      	ldr	r1, [sp, #68]	; 0x44
    2502:	2300      	movs	r3, #0
    2504:	f002 f968 	bl	47d8 <__aeabi_dcmpeq>
    2508:	2800      	cmp	r0, #0
    250a:	d060      	beq.n	25ce <_svfprintf_r+0xc7a>
    250c:	4b18      	ldr	r3, [pc, #96]	; (2570 <_svfprintf_r+0xc1c>)
    250e:	6023      	str	r3, [r4, #0]
    2510:	2301      	movs	r3, #1
    2512:	6063      	str	r3, [r4, #4]
    2514:	9b35      	ldr	r3, [sp, #212]	; 0xd4
    2516:	3301      	adds	r3, #1
    2518:	9335      	str	r3, [sp, #212]	; 0xd4
    251a:	9b34      	ldr	r3, [sp, #208]	; 0xd0
    251c:	3301      	adds	r3, #1
    251e:	9334      	str	r3, [sp, #208]	; 0xd0
    2520:	2b07      	cmp	r3, #7
    2522:	dc01      	bgt.n	2528 <_svfprintf_r+0xbd4>
    2524:	3408      	adds	r4, #8
    2526:	e008      	b.n	253a <_svfprintf_r+0xbe6>
    2528:	4640      	mov	r0, r8
    252a:	4639      	mov	r1, r7
    252c:	aa33      	add	r2, sp, #204	; 0xcc
    252e:	f001 fdbf 	bl	40b0 <__ssprint_r>
    2532:	2800      	cmp	r0, #0
    2534:	f040 827d 	bne.w	2a32 <_svfprintf_r+0x10de>
    2538:	ac19      	add	r4, sp, #100	; 0x64
    253a:	9b3c      	ldr	r3, [sp, #240]	; 0xf0
    253c:	9a0b      	ldr	r2, [sp, #44]	; 0x2c
    253e:	4293      	cmp	r3, r2
    2540:	db03      	blt.n	254a <_svfprintf_r+0xbf6>
    2542:	f015 0f01 	tst.w	r5, #1
    2546:	f000 8225 	beq.w	2994 <_svfprintf_r+0x1040>
    254a:	9b13      	ldr	r3, [sp, #76]	; 0x4c
    254c:	9812      	ldr	r0, [sp, #72]	; 0x48
    254e:	6023      	str	r3, [r4, #0]
    2550:	9b35      	ldr	r3, [sp, #212]	; 0xd4
    2552:	6060      	str	r0, [r4, #4]
    2554:	181b      	adds	r3, r3, r0
    2556:	9335      	str	r3, [sp, #212]	; 0xd4
    2558:	9b34      	ldr	r3, [sp, #208]	; 0xd0
    255a:	3301      	adds	r3, #1
    255c:	9334      	str	r3, [sp, #208]	; 0xd0
    255e:	2b07      	cmp	r3, #7
    2560:	dc08      	bgt.n	2574 <_svfprintf_r+0xc20>
    2562:	3408      	adds	r4, #8
    2564:	e00f      	b.n	2586 <_svfprintf_r+0xc32>
    2566:	bf00      	nop
    2568:	0000507c 	.word	0x0000507c
    256c:	00005038 	.word	0x00005038
    2570:	0000507a 	.word	0x0000507a
    2574:	4640      	mov	r0, r8
    2576:	4639      	mov	r1, r7
    2578:	aa33      	add	r2, sp, #204	; 0xcc
    257a:	f001 fd99 	bl	40b0 <__ssprint_r>
    257e:	2800      	cmp	r0, #0
    2580:	f040 8257 	bne.w	2a32 <_svfprintf_r+0x10de>
    2584:	ac19      	add	r4, sp, #100	; 0x64
    2586:	990b      	ldr	r1, [sp, #44]	; 0x2c
    2588:	f101 39ff 	add.w	r9, r1, #4294967295	; 0xffffffff
    258c:	f1b9 0f00 	cmp.w	r9, #0
    2590:	dc17      	bgt.n	25c2 <_svfprintf_r+0xc6e>
    2592:	e1ff      	b.n	2994 <_svfprintf_r+0x1040>
    2594:	6022      	str	r2, [r4, #0]
    2596:	2210      	movs	r2, #16
    2598:	189b      	adds	r3, r3, r2
    259a:	6062      	str	r2, [r4, #4]
    259c:	9335      	str	r3, [sp, #212]	; 0xd4
    259e:	9b34      	ldr	r3, [sp, #208]	; 0xd0
    25a0:	3301      	adds	r3, #1
    25a2:	9334      	str	r3, [sp, #208]	; 0xd0
    25a4:	2b07      	cmp	r3, #7
    25a6:	dc01      	bgt.n	25ac <_svfprintf_r+0xc58>
    25a8:	3408      	adds	r4, #8
    25aa:	e008      	b.n	25be <_svfprintf_r+0xc6a>
    25ac:	4640      	mov	r0, r8
    25ae:	4639      	mov	r1, r7
    25b0:	aa33      	add	r2, sp, #204	; 0xcc
    25b2:	f001 fd7d 	bl	40b0 <__ssprint_r>
    25b6:	2800      	cmp	r0, #0
    25b8:	f040 823b 	bne.w	2a32 <_svfprintf_r+0x10de>
    25bc:	ac19      	add	r4, sp, #100	; 0x64
    25be:	f1a9 0910 	sub.w	r9, r9, #16
    25c2:	f1b9 0f10 	cmp.w	r9, #16
    25c6:	9b35      	ldr	r3, [sp, #212]	; 0xd4
    25c8:	4a95      	ldr	r2, [pc, #596]	; (2820 <_svfprintf_r+0xecc>)
    25ca:	dce3      	bgt.n	2594 <_svfprintf_r+0xc40>
    25cc:	e148      	b.n	2860 <_svfprintf_r+0xf0c>
    25ce:	9b3c      	ldr	r3, [sp, #240]	; 0xf0
    25d0:	2b00      	cmp	r3, #0
    25d2:	dc79      	bgt.n	26c8 <_svfprintf_r+0xd74>
    25d4:	4b93      	ldr	r3, [pc, #588]	; (2824 <_svfprintf_r+0xed0>)
    25d6:	6023      	str	r3, [r4, #0]
    25d8:	2301      	movs	r3, #1
    25da:	6063      	str	r3, [r4, #4]
    25dc:	9b35      	ldr	r3, [sp, #212]	; 0xd4
    25de:	3301      	adds	r3, #1
    25e0:	9335      	str	r3, [sp, #212]	; 0xd4
    25e2:	9b34      	ldr	r3, [sp, #208]	; 0xd0
    25e4:	3301      	adds	r3, #1
    25e6:	9334      	str	r3, [sp, #208]	; 0xd0
    25e8:	2b07      	cmp	r3, #7
    25ea:	dc01      	bgt.n	25f0 <_svfprintf_r+0xc9c>
    25ec:	3408      	adds	r4, #8
    25ee:	e008      	b.n	2602 <_svfprintf_r+0xcae>
    25f0:	4640      	mov	r0, r8
    25f2:	4639      	mov	r1, r7
    25f4:	aa33      	add	r2, sp, #204	; 0xcc
    25f6:	f001 fd5b 	bl	40b0 <__ssprint_r>
    25fa:	2800      	cmp	r0, #0
    25fc:	f040 8219 	bne.w	2a32 <_svfprintf_r+0x10de>
    2600:	ac19      	add	r4, sp, #100	; 0x64
    2602:	9b3c      	ldr	r3, [sp, #240]	; 0xf0
    2604:	b92b      	cbnz	r3, 2612 <_svfprintf_r+0xcbe>
    2606:	9a0b      	ldr	r2, [sp, #44]	; 0x2c
    2608:	b91a      	cbnz	r2, 2612 <_svfprintf_r+0xcbe>
    260a:	f015 0f01 	tst.w	r5, #1
    260e:	f000 81c1 	beq.w	2994 <_svfprintf_r+0x1040>
    2612:	9b13      	ldr	r3, [sp, #76]	; 0x4c
    2614:	9812      	ldr	r0, [sp, #72]	; 0x48
    2616:	6023      	str	r3, [r4, #0]
    2618:	9b35      	ldr	r3, [sp, #212]	; 0xd4
    261a:	6060      	str	r0, [r4, #4]
    261c:	181b      	adds	r3, r3, r0
    261e:	9335      	str	r3, [sp, #212]	; 0xd4
    2620:	9b34      	ldr	r3, [sp, #208]	; 0xd0
    2622:	3301      	adds	r3, #1
    2624:	9334      	str	r3, [sp, #208]	; 0xd0
    2626:	2b07      	cmp	r3, #7
    2628:	dc02      	bgt.n	2630 <_svfprintf_r+0xcdc>
    262a:	f104 0308 	add.w	r3, r4, #8
    262e:	e008      	b.n	2642 <_svfprintf_r+0xcee>
    2630:	4640      	mov	r0, r8
    2632:	4639      	mov	r1, r7
    2634:	aa33      	add	r2, sp, #204	; 0xcc
    2636:	f001 fd3b 	bl	40b0 <__ssprint_r>
    263a:	2800      	cmp	r0, #0
    263c:	f040 81f9 	bne.w	2a32 <_svfprintf_r+0x10de>
    2640:	ab19      	add	r3, sp, #100	; 0x64
    2642:	9c3c      	ldr	r4, [sp, #240]	; 0xf0
    2644:	4264      	negs	r4, r4
    2646:	2c00      	cmp	r4, #0
    2648:	dc16      	bgt.n	2678 <_svfprintf_r+0xd24>
    264a:	e02d      	b.n	26a8 <_svfprintf_r+0xd54>
    264c:	6019      	str	r1, [r3, #0]
    264e:	2110      	movs	r1, #16
    2650:	1852      	adds	r2, r2, r1
    2652:	6059      	str	r1, [r3, #4]
    2654:	9235      	str	r2, [sp, #212]	; 0xd4
    2656:	9a34      	ldr	r2, [sp, #208]	; 0xd0
    2658:	3201      	adds	r2, #1
    265a:	9234      	str	r2, [sp, #208]	; 0xd0
    265c:	2a07      	cmp	r2, #7
    265e:	dc01      	bgt.n	2664 <_svfprintf_r+0xd10>
    2660:	3308      	adds	r3, #8
    2662:	e008      	b.n	2676 <_svfprintf_r+0xd22>
    2664:	4640      	mov	r0, r8
    2666:	4639      	mov	r1, r7
    2668:	aa33      	add	r2, sp, #204	; 0xcc
    266a:	f001 fd21 	bl	40b0 <__ssprint_r>
    266e:	2800      	cmp	r0, #0
    2670:	f040 81df 	bne.w	2a32 <_svfprintf_r+0x10de>
    2674:	ab19      	add	r3, sp, #100	; 0x64
    2676:	3c10      	subs	r4, #16
    2678:	2c10      	cmp	r4, #16
    267a:	9a35      	ldr	r2, [sp, #212]	; 0xd4
    267c:	4968      	ldr	r1, [pc, #416]	; (2820 <_svfprintf_r+0xecc>)
    267e:	dce5      	bgt.n	264c <_svfprintf_r+0xcf8>
    2680:	605c      	str	r4, [r3, #4]
    2682:	1914      	adds	r4, r2, r4
    2684:	9a34      	ldr	r2, [sp, #208]	; 0xd0
    2686:	6019      	str	r1, [r3, #0]
    2688:	3201      	adds	r2, #1
    268a:	9435      	str	r4, [sp, #212]	; 0xd4
    268c:	2a07      	cmp	r2, #7
    268e:	9234      	str	r2, [sp, #208]	; 0xd0
    2690:	dc01      	bgt.n	2696 <_svfprintf_r+0xd42>
    2692:	3308      	adds	r3, #8
    2694:	e008      	b.n	26a8 <_svfprintf_r+0xd54>
    2696:	4640      	mov	r0, r8
    2698:	4639      	mov	r1, r7
    269a:	aa33      	add	r2, sp, #204	; 0xcc
    269c:	f001 fd08 	bl	40b0 <__ssprint_r>
    26a0:	2800      	cmp	r0, #0
    26a2:	f040 81c6 	bne.w	2a32 <_svfprintf_r+0x10de>
    26a6:	ab19      	add	r3, sp, #100	; 0x64
    26a8:	990b      	ldr	r1, [sp, #44]	; 0x2c
    26aa:	9a35      	ldr	r2, [sp, #212]	; 0xd4
    26ac:	f8c3 a000 	str.w	sl, [r3]
    26b0:	6059      	str	r1, [r3, #4]
    26b2:	1852      	adds	r2, r2, r1
    26b4:	9235      	str	r2, [sp, #212]	; 0xd4
    26b6:	9a34      	ldr	r2, [sp, #208]	; 0xd0
    26b8:	3201      	adds	r2, #1
    26ba:	9234      	str	r2, [sp, #208]	; 0xd0
    26bc:	2a07      	cmp	r2, #7
    26be:	f300 8161 	bgt.w	2984 <_svfprintf_r+0x1030>
    26c2:	f103 0408 	add.w	r4, r3, #8
    26c6:	e165      	b.n	2994 <_svfprintf_r+0x1040>
    26c8:	9a0b      	ldr	r2, [sp, #44]	; 0x2c
    26ca:	9b08      	ldr	r3, [sp, #32]
    26cc:	4691      	mov	r9, r2
    26ce:	eb0a 0b02 	add.w	fp, sl, r2
    26d2:	4599      	cmp	r9, r3
    26d4:	bfa8      	it	ge
    26d6:	4699      	movge	r9, r3
    26d8:	f1b9 0f00 	cmp.w	r9, #0
    26dc:	dd16      	ble.n	270c <_svfprintf_r+0xdb8>
    26de:	9b35      	ldr	r3, [sp, #212]	; 0xd4
    26e0:	f8c4 a000 	str.w	sl, [r4]
    26e4:	f8c4 9004 	str.w	r9, [r4, #4]
    26e8:	444b      	add	r3, r9
    26ea:	9335      	str	r3, [sp, #212]	; 0xd4
    26ec:	9b34      	ldr	r3, [sp, #208]	; 0xd0
    26ee:	3301      	adds	r3, #1
    26f0:	9334      	str	r3, [sp, #208]	; 0xd0
    26f2:	2b07      	cmp	r3, #7
    26f4:	dc01      	bgt.n	26fa <_svfprintf_r+0xda6>
    26f6:	3408      	adds	r4, #8
    26f8:	e008      	b.n	270c <_svfprintf_r+0xdb8>
    26fa:	4640      	mov	r0, r8
    26fc:	4639      	mov	r1, r7
    26fe:	aa33      	add	r2, sp, #204	; 0xcc
    2700:	f001 fcd6 	bl	40b0 <__ssprint_r>
    2704:	2800      	cmp	r0, #0
    2706:	f040 8194 	bne.w	2a32 <_svfprintf_r+0x10de>
    270a:	ac19      	add	r4, sp, #100	; 0x64
    270c:	9808      	ldr	r0, [sp, #32]
    270e:	ea29 79e9 	bic.w	r9, r9, r9, asr #31
    2712:	ebc9 0900 	rsb	r9, r9, r0
    2716:	f1b9 0f00 	cmp.w	r9, #0
    271a:	dc17      	bgt.n	274c <_svfprintf_r+0xdf8>
    271c:	e030      	b.n	2780 <_svfprintf_r+0xe2c>
    271e:	6022      	str	r2, [r4, #0]
    2720:	2210      	movs	r2, #16
    2722:	189b      	adds	r3, r3, r2
    2724:	6062      	str	r2, [r4, #4]
    2726:	9335      	str	r3, [sp, #212]	; 0xd4
    2728:	9b34      	ldr	r3, [sp, #208]	; 0xd0
    272a:	3301      	adds	r3, #1
    272c:	9334      	str	r3, [sp, #208]	; 0xd0
    272e:	2b07      	cmp	r3, #7
    2730:	dc01      	bgt.n	2736 <_svfprintf_r+0xde2>
    2732:	3408      	adds	r4, #8
    2734:	e008      	b.n	2748 <_svfprintf_r+0xdf4>
    2736:	4640      	mov	r0, r8
    2738:	4639      	mov	r1, r7
    273a:	aa33      	add	r2, sp, #204	; 0xcc
    273c:	f001 fcb8 	bl	40b0 <__ssprint_r>
    2740:	2800      	cmp	r0, #0
    2742:	f040 8176 	bne.w	2a32 <_svfprintf_r+0x10de>
    2746:	ac19      	add	r4, sp, #100	; 0x64
    2748:	f1a9 0910 	sub.w	r9, r9, #16
    274c:	f1b9 0f10 	cmp.w	r9, #16
    2750:	9b35      	ldr	r3, [sp, #212]	; 0xd4
    2752:	4a33      	ldr	r2, [pc, #204]	; (2820 <_svfprintf_r+0xecc>)
    2754:	dce3      	bgt.n	271e <_svfprintf_r+0xdca>
    2756:	6022      	str	r2, [r4, #0]
    2758:	444b      	add	r3, r9
    275a:	f8c4 9004 	str.w	r9, [r4, #4]
    275e:	9335      	str	r3, [sp, #212]	; 0xd4
    2760:	9b34      	ldr	r3, [sp, #208]	; 0xd0
    2762:	3301      	adds	r3, #1
    2764:	9334      	str	r3, [sp, #208]	; 0xd0
    2766:	2b07      	cmp	r3, #7
    2768:	dc01      	bgt.n	276e <_svfprintf_r+0xe1a>
    276a:	3408      	adds	r4, #8
    276c:	e008      	b.n	2780 <_svfprintf_r+0xe2c>
    276e:	4640      	mov	r0, r8
    2770:	4639      	mov	r1, r7
    2772:	aa33      	add	r2, sp, #204	; 0xcc
    2774:	f001 fc9c 	bl	40b0 <__ssprint_r>
    2778:	2800      	cmp	r0, #0
    277a:	f040 815a 	bne.w	2a32 <_svfprintf_r+0x10de>
    277e:	ac19      	add	r4, sp, #100	; 0x64
    2780:	9b3c      	ldr	r3, [sp, #240]	; 0xf0
    2782:	990b      	ldr	r1, [sp, #44]	; 0x2c
    2784:	428b      	cmp	r3, r1
    2786:	db02      	blt.n	278e <_svfprintf_r+0xe3a>
    2788:	f015 0f01 	tst.w	r5, #1
    278c:	d017      	beq.n	27be <_svfprintf_r+0xe6a>
    278e:	9b12      	ldr	r3, [sp, #72]	; 0x48
    2790:	9a13      	ldr	r2, [sp, #76]	; 0x4c
    2792:	9812      	ldr	r0, [sp, #72]	; 0x48
    2794:	6063      	str	r3, [r4, #4]
    2796:	9b35      	ldr	r3, [sp, #212]	; 0xd4
    2798:	6022      	str	r2, [r4, #0]
    279a:	181b      	adds	r3, r3, r0
    279c:	9335      	str	r3, [sp, #212]	; 0xd4
    279e:	9b34      	ldr	r3, [sp, #208]	; 0xd0
    27a0:	3301      	adds	r3, #1
    27a2:	9334      	str	r3, [sp, #208]	; 0xd0
    27a4:	2b07      	cmp	r3, #7
    27a6:	dc01      	bgt.n	27ac <_svfprintf_r+0xe58>
    27a8:	3408      	adds	r4, #8
    27aa:	e008      	b.n	27be <_svfprintf_r+0xe6a>
    27ac:	4640      	mov	r0, r8
    27ae:	4639      	mov	r1, r7
    27b0:	aa33      	add	r2, sp, #204	; 0xcc
    27b2:	f001 fc7d 	bl	40b0 <__ssprint_r>
    27b6:	2800      	cmp	r0, #0
    27b8:	f040 813b 	bne.w	2a32 <_svfprintf_r+0x10de>
    27bc:	ac19      	add	r4, sp, #100	; 0x64
    27be:	9908      	ldr	r1, [sp, #32]
    27c0:	9a3c      	ldr	r2, [sp, #240]	; 0xf0
    27c2:	980b      	ldr	r0, [sp, #44]	; 0x2c
    27c4:	eb0a 0301 	add.w	r3, sl, r1
    27c8:	ebc3 0b0b 	rsb	fp, r3, fp
    27cc:	ebc2 0900 	rsb	r9, r2, r0
    27d0:	45cb      	cmp	fp, r9
    27d2:	bfb8      	it	lt
    27d4:	46d9      	movlt	r9, fp
    27d6:	f1b9 0f00 	cmp.w	r9, #0
    27da:	dd15      	ble.n	2808 <_svfprintf_r+0xeb4>
    27dc:	6023      	str	r3, [r4, #0]
    27de:	9b35      	ldr	r3, [sp, #212]	; 0xd4
    27e0:	f8c4 9004 	str.w	r9, [r4, #4]
    27e4:	444b      	add	r3, r9
    27e6:	9335      	str	r3, [sp, #212]	; 0xd4
    27e8:	9b34      	ldr	r3, [sp, #208]	; 0xd0
    27ea:	3301      	adds	r3, #1
    27ec:	9334      	str	r3, [sp, #208]	; 0xd0
    27ee:	2b07      	cmp	r3, #7
    27f0:	dc01      	bgt.n	27f6 <_svfprintf_r+0xea2>
    27f2:	3408      	adds	r4, #8
    27f4:	e008      	b.n	2808 <_svfprintf_r+0xeb4>
    27f6:	4640      	mov	r0, r8
    27f8:	4639      	mov	r1, r7
    27fa:	aa33      	add	r2, sp, #204	; 0xcc
    27fc:	f001 fc58 	bl	40b0 <__ssprint_r>
    2800:	2800      	cmp	r0, #0
    2802:	f040 8116 	bne.w	2a32 <_svfprintf_r+0x10de>
    2806:	ac19      	add	r4, sp, #100	; 0x64
    2808:	9b3c      	ldr	r3, [sp, #240]	; 0xf0
    280a:	ea29 79e9 	bic.w	r9, r9, r9, asr #31
    280e:	990b      	ldr	r1, [sp, #44]	; 0x2c
    2810:	1acb      	subs	r3, r1, r3
    2812:	ebc9 0903 	rsb	r9, r9, r3
    2816:	f1b9 0f00 	cmp.w	r9, #0
    281a:	dc1c      	bgt.n	2856 <_svfprintf_r+0xf02>
    281c:	e0ba      	b.n	2994 <_svfprintf_r+0x1040>
    281e:	bf00      	nop
    2820:	00005038 	.word	0x00005038
    2824:	0000507a 	.word	0x0000507a
    2828:	6022      	str	r2, [r4, #0]
    282a:	2210      	movs	r2, #16
    282c:	189b      	adds	r3, r3, r2
    282e:	6062      	str	r2, [r4, #4]
    2830:	9335      	str	r3, [sp, #212]	; 0xd4
    2832:	9b34      	ldr	r3, [sp, #208]	; 0xd0
    2834:	3301      	adds	r3, #1
    2836:	9334      	str	r3, [sp, #208]	; 0xd0
    2838:	2b07      	cmp	r3, #7
    283a:	dc01      	bgt.n	2840 <_svfprintf_r+0xeec>
    283c:	3408      	adds	r4, #8
    283e:	e008      	b.n	2852 <_svfprintf_r+0xefe>
    2840:	4640      	mov	r0, r8
    2842:	4639      	mov	r1, r7
    2844:	aa33      	add	r2, sp, #204	; 0xcc
    2846:	f001 fc33 	bl	40b0 <__ssprint_r>
    284a:	2800      	cmp	r0, #0
    284c:	f040 80f1 	bne.w	2a32 <_svfprintf_r+0x10de>
    2850:	ac19      	add	r4, sp, #100	; 0x64
    2852:	f1a9 0910 	sub.w	r9, r9, #16
    2856:	f1b9 0f10 	cmp.w	r9, #16
    285a:	9b35      	ldr	r3, [sp, #212]	; 0xd4
    285c:	4a7b      	ldr	r2, [pc, #492]	; (2a4c <_svfprintf_r+0x10f8>)
    285e:	dce3      	bgt.n	2828 <_svfprintf_r+0xed4>
    2860:	6022      	str	r2, [r4, #0]
    2862:	444b      	add	r3, r9
    2864:	f8c4 9004 	str.w	r9, [r4, #4]
    2868:	e084      	b.n	2974 <_svfprintf_r+0x1020>
    286a:	9a0b      	ldr	r2, [sp, #44]	; 0x2c
    286c:	2a01      	cmp	r2, #1
    286e:	dc02      	bgt.n	2876 <_svfprintf_r+0xf22>
    2870:	f015 0f01 	tst.w	r5, #1
    2874:	d062      	beq.n	293c <_svfprintf_r+0xfe8>
    2876:	2301      	movs	r3, #1
    2878:	6063      	str	r3, [r4, #4]
    287a:	9b35      	ldr	r3, [sp, #212]	; 0xd4
    287c:	f8c4 a000 	str.w	sl, [r4]
    2880:	3301      	adds	r3, #1
    2882:	9335      	str	r3, [sp, #212]	; 0xd4
    2884:	9b34      	ldr	r3, [sp, #208]	; 0xd0
    2886:	3301      	adds	r3, #1
    2888:	9334      	str	r3, [sp, #208]	; 0xd0
    288a:	2b07      	cmp	r3, #7
    288c:	dc01      	bgt.n	2892 <_svfprintf_r+0xf3e>
    288e:	3408      	adds	r4, #8
    2890:	e008      	b.n	28a4 <_svfprintf_r+0xf50>
    2892:	4640      	mov	r0, r8
    2894:	4639      	mov	r1, r7
    2896:	aa33      	add	r2, sp, #204	; 0xcc
    2898:	f001 fc0a 	bl	40b0 <__ssprint_r>
    289c:	2800      	cmp	r0, #0
    289e:	f040 80c8 	bne.w	2a32 <_svfprintf_r+0x10de>
    28a2:	ac19      	add	r4, sp, #100	; 0x64
    28a4:	9b13      	ldr	r3, [sp, #76]	; 0x4c
    28a6:	9812      	ldr	r0, [sp, #72]	; 0x48
    28a8:	6023      	str	r3, [r4, #0]
    28aa:	9b35      	ldr	r3, [sp, #212]	; 0xd4
    28ac:	6060      	str	r0, [r4, #4]
    28ae:	181b      	adds	r3, r3, r0
    28b0:	9335      	str	r3, [sp, #212]	; 0xd4
    28b2:	9b34      	ldr	r3, [sp, #208]	; 0xd0
    28b4:	3301      	adds	r3, #1
    28b6:	9334      	str	r3, [sp, #208]	; 0xd0
    28b8:	2b07      	cmp	r3, #7
    28ba:	dc01      	bgt.n	28c0 <_svfprintf_r+0xf6c>
    28bc:	3408      	adds	r4, #8
    28be:	e008      	b.n	28d2 <_svfprintf_r+0xf7e>
    28c0:	4640      	mov	r0, r8
    28c2:	4639      	mov	r1, r7
    28c4:	aa33      	add	r2, sp, #204	; 0xcc
    28c6:	f001 fbf3 	bl	40b0 <__ssprint_r>
    28ca:	2800      	cmp	r0, #0
    28cc:	f040 80b1 	bne.w	2a32 <_svfprintf_r+0x10de>
    28d0:	ac19      	add	r4, sp, #100	; 0x64
    28d2:	9911      	ldr	r1, [sp, #68]	; 0x44
    28d4:	2300      	movs	r3, #0
    28d6:	9810      	ldr	r0, [sp, #64]	; 0x40
    28d8:	2200      	movs	r2, #0
    28da:	f001 ff7d 	bl	47d8 <__aeabi_dcmpeq>
    28de:	990b      	ldr	r1, [sp, #44]	; 0x2c
    28e0:	1e4b      	subs	r3, r1, #1
    28e2:	b930      	cbnz	r0, 28f2 <_svfprintf_r+0xf9e>
    28e4:	f10a 0201 	add.w	r2, sl, #1
    28e8:	6022      	str	r2, [r4, #0]
    28ea:	9a35      	ldr	r2, [sp, #212]	; 0xd4
    28ec:	6063      	str	r3, [r4, #4]
    28ee:	18d3      	adds	r3, r2, r3
    28f0:	e02a      	b.n	2948 <_svfprintf_r+0xff4>
    28f2:	f1b3 0900 	subs.w	r9, r3, #0
    28f6:	dc17      	bgt.n	2928 <_svfprintf_r+0xfd4>
    28f8:	e036      	b.n	2968 <_svfprintf_r+0x1014>
    28fa:	6022      	str	r2, [r4, #0]
    28fc:	2210      	movs	r2, #16
    28fe:	189b      	adds	r3, r3, r2
    2900:	6062      	str	r2, [r4, #4]
    2902:	9335      	str	r3, [sp, #212]	; 0xd4
    2904:	9b34      	ldr	r3, [sp, #208]	; 0xd0
    2906:	3301      	adds	r3, #1
    2908:	9334      	str	r3, [sp, #208]	; 0xd0
    290a:	2b07      	cmp	r3, #7
    290c:	dc01      	bgt.n	2912 <_svfprintf_r+0xfbe>
    290e:	3408      	adds	r4, #8
    2910:	e008      	b.n	2924 <_svfprintf_r+0xfd0>
    2912:	4640      	mov	r0, r8
    2914:	4639      	mov	r1, r7
    2916:	aa33      	add	r2, sp, #204	; 0xcc
    2918:	f001 fbca 	bl	40b0 <__ssprint_r>
    291c:	2800      	cmp	r0, #0
    291e:	f040 8088 	bne.w	2a32 <_svfprintf_r+0x10de>
    2922:	ac19      	add	r4, sp, #100	; 0x64
    2924:	f1a9 0910 	sub.w	r9, r9, #16
    2928:	f1b9 0f10 	cmp.w	r9, #16
    292c:	9b35      	ldr	r3, [sp, #212]	; 0xd4
    292e:	4a47      	ldr	r2, [pc, #284]	; (2a4c <_svfprintf_r+0x10f8>)
    2930:	dce3      	bgt.n	28fa <_svfprintf_r+0xfa6>
    2932:	6022      	str	r2, [r4, #0]
    2934:	444b      	add	r3, r9
    2936:	f8c4 9004 	str.w	r9, [r4, #4]
    293a:	e005      	b.n	2948 <_svfprintf_r+0xff4>
    293c:	2301      	movs	r3, #1
    293e:	6063      	str	r3, [r4, #4]
    2940:	9b35      	ldr	r3, [sp, #212]	; 0xd4
    2942:	f8c4 a000 	str.w	sl, [r4]
    2946:	3301      	adds	r3, #1
    2948:	9335      	str	r3, [sp, #212]	; 0xd4
    294a:	9b34      	ldr	r3, [sp, #208]	; 0xd0
    294c:	3301      	adds	r3, #1
    294e:	9334      	str	r3, [sp, #208]	; 0xd0
    2950:	2b07      	cmp	r3, #7
    2952:	dc01      	bgt.n	2958 <_svfprintf_r+0x1004>
    2954:	3408      	adds	r4, #8
    2956:	e007      	b.n	2968 <_svfprintf_r+0x1014>
    2958:	4640      	mov	r0, r8
    295a:	4639      	mov	r1, r7
    295c:	aa33      	add	r2, sp, #204	; 0xcc
    295e:	f001 fba7 	bl	40b0 <__ssprint_r>
    2962:	2800      	cmp	r0, #0
    2964:	d165      	bne.n	2a32 <_svfprintf_r+0x10de>
    2966:	ac19      	add	r4, sp, #100	; 0x64
    2968:	ab38      	add	r3, sp, #224	; 0xe0
    296a:	9a15      	ldr	r2, [sp, #84]	; 0x54
    296c:	6023      	str	r3, [r4, #0]
    296e:	9b35      	ldr	r3, [sp, #212]	; 0xd4
    2970:	6062      	str	r2, [r4, #4]
    2972:	189b      	adds	r3, r3, r2
    2974:	9335      	str	r3, [sp, #212]	; 0xd4
    2976:	9b34      	ldr	r3, [sp, #208]	; 0xd0
    2978:	3301      	adds	r3, #1
    297a:	9334      	str	r3, [sp, #208]	; 0xd0
    297c:	2b07      	cmp	r3, #7
    297e:	dc01      	bgt.n	2984 <_svfprintf_r+0x1030>
    2980:	3408      	adds	r4, #8
    2982:	e007      	b.n	2994 <_svfprintf_r+0x1040>
    2984:	4640      	mov	r0, r8
    2986:	4639      	mov	r1, r7
    2988:	aa33      	add	r2, sp, #204	; 0xcc
    298a:	f001 fb91 	bl	40b0 <__ssprint_r>
    298e:	2800      	cmp	r0, #0
    2990:	d14f      	bne.n	2a32 <_svfprintf_r+0x10de>
    2992:	ac19      	add	r4, sp, #100	; 0x64
    2994:	f015 0f04 	tst.w	r5, #4
    2998:	d02f      	beq.n	29fa <_svfprintf_r+0x10a6>
    299a:	9b0d      	ldr	r3, [sp, #52]	; 0x34
    299c:	f8dd a038 	ldr.w	sl, [sp, #56]	; 0x38
    29a0:	ebca 0503 	rsb	r5, sl, r3
    29a4:	2d00      	cmp	r5, #0
    29a6:	dc15      	bgt.n	29d4 <_svfprintf_r+0x1080>
    29a8:	e027      	b.n	29fa <_svfprintf_r+0x10a6>
    29aa:	6022      	str	r2, [r4, #0]
    29ac:	2210      	movs	r2, #16
    29ae:	189b      	adds	r3, r3, r2
    29b0:	6062      	str	r2, [r4, #4]
    29b2:	9335      	str	r3, [sp, #212]	; 0xd4
    29b4:	9b34      	ldr	r3, [sp, #208]	; 0xd0
    29b6:	3301      	adds	r3, #1
    29b8:	9334      	str	r3, [sp, #208]	; 0xd0
    29ba:	2b07      	cmp	r3, #7
    29bc:	dc01      	bgt.n	29c2 <_svfprintf_r+0x106e>
    29be:	3408      	adds	r4, #8
    29c0:	e007      	b.n	29d2 <_svfprintf_r+0x107e>
    29c2:	4640      	mov	r0, r8
    29c4:	4639      	mov	r1, r7
    29c6:	aa33      	add	r2, sp, #204	; 0xcc
    29c8:	f001 fb72 	bl	40b0 <__ssprint_r>
    29cc:	2800      	cmp	r0, #0
    29ce:	d130      	bne.n	2a32 <_svfprintf_r+0x10de>
    29d0:	ac19      	add	r4, sp, #100	; 0x64
    29d2:	3d10      	subs	r5, #16
    29d4:	2d10      	cmp	r5, #16
    29d6:	9b35      	ldr	r3, [sp, #212]	; 0xd4
    29d8:	4a1d      	ldr	r2, [pc, #116]	; (2a50 <_svfprintf_r+0x10fc>)
    29da:	dce6      	bgt.n	29aa <_svfprintf_r+0x1056>
    29dc:	6065      	str	r5, [r4, #4]
    29de:	195d      	adds	r5, r3, r5
    29e0:	9b34      	ldr	r3, [sp, #208]	; 0xd0
    29e2:	6022      	str	r2, [r4, #0]
    29e4:	3301      	adds	r3, #1
    29e6:	9535      	str	r5, [sp, #212]	; 0xd4
    29e8:	2b07      	cmp	r3, #7
    29ea:	9334      	str	r3, [sp, #208]	; 0xd0
    29ec:	dd05      	ble.n	29fa <_svfprintf_r+0x10a6>
    29ee:	4640      	mov	r0, r8
    29f0:	4639      	mov	r1, r7
    29f2:	aa33      	add	r2, sp, #204	; 0xcc
    29f4:	f001 fb5c 	bl	40b0 <__ssprint_r>
    29f8:	b9d8      	cbnz	r0, 2a32 <_svfprintf_r+0x10de>
    29fa:	980f      	ldr	r0, [sp, #60]	; 0x3c
    29fc:	9a0e      	ldr	r2, [sp, #56]	; 0x38
    29fe:	990d      	ldr	r1, [sp, #52]	; 0x34
    2a00:	9b35      	ldr	r3, [sp, #212]	; 0xd4
    2a02:	428a      	cmp	r2, r1
    2a04:	bfac      	ite	ge
    2a06:	1880      	addge	r0, r0, r2
    2a08:	1840      	addlt	r0, r0, r1
    2a0a:	900f      	str	r0, [sp, #60]	; 0x3c
    2a0c:	b12b      	cbz	r3, 2a1a <_svfprintf_r+0x10c6>
    2a0e:	4640      	mov	r0, r8
    2a10:	4639      	mov	r1, r7
    2a12:	aa33      	add	r2, sp, #204	; 0xcc
    2a14:	f001 fb4c 	bl	40b0 <__ssprint_r>
    2a18:	b958      	cbnz	r0, 2a32 <_svfprintf_r+0x10de>
    2a1a:	2300      	movs	r3, #0
    2a1c:	ac19      	add	r4, sp, #100	; 0x64
    2a1e:	9334      	str	r3, [sp, #208]	; 0xd0
    2a20:	f7fe bfc8 	b.w	19b4 <_svfprintf_r+0x60>
    2a24:	9b35      	ldr	r3, [sp, #212]	; 0xd4
    2a26:	b123      	cbz	r3, 2a32 <_svfprintf_r+0x10de>
    2a28:	4640      	mov	r0, r8
    2a2a:	4639      	mov	r1, r7
    2a2c:	aa33      	add	r2, sp, #204	; 0xcc
    2a2e:	f001 fb3f 	bl	40b0 <__ssprint_r>
    2a32:	89bb      	ldrh	r3, [r7, #12]
    2a34:	9d0f      	ldr	r5, [sp, #60]	; 0x3c
    2a36:	f003 0340 	and.w	r3, r3, #64	; 0x40
    2a3a:	2b00      	cmp	r3, #0
    2a3c:	bf18      	it	ne
    2a3e:	f04f 35ff 	movne.w	r5, #4294967295	; 0xffffffff
    2a42:	950f      	str	r5, [sp, #60]	; 0x3c
    2a44:	980f      	ldr	r0, [sp, #60]	; 0x3c
    2a46:	b03f      	add	sp, #252	; 0xfc
    2a48:	e8bd 8ff0 	ldmia.w	sp!, {r4, r5, r6, r7, r8, r9, sl, fp, pc}
    2a4c:	00005038 	.word	0x00005038
    2a50:	0000507c 	.word	0x0000507c

00002a54 <__register_exitproc>:
    2a54:	e92d 43f8 	stmdb	sp!, {r3, r4, r5, r6, r7, r8, r9, lr}
    2a58:	4699      	mov	r9, r3
    2a5a:	4b2c      	ldr	r3, [pc, #176]	; (2b0c <__register_exitproc+0xb8>)
    2a5c:	4604      	mov	r4, r0
    2a5e:	460d      	mov	r5, r1
    2a60:	4616      	mov	r6, r2
    2a62:	f8d3 8000 	ldr.w	r8, [r3]
    2a66:	f8d8 7048 	ldr.w	r7, [r8, #72]	; 0x48
    2a6a:	b91f      	cbnz	r7, 2a74 <__register_exitproc+0x20>
    2a6c:	f108 074c 	add.w	r7, r8, #76	; 0x4c
    2a70:	f8c8 7048 	str.w	r7, [r8, #72]	; 0x48
    2a74:	687b      	ldr	r3, [r7, #4]
    2a76:	2b1f      	cmp	r3, #31
    2a78:	dd0f      	ble.n	2a9a <__register_exitproc+0x46>
    2a7a:	4b25      	ldr	r3, [pc, #148]	; (2b10 <__register_exitproc+0xbc>)
    2a7c:	2b00      	cmp	r3, #0
    2a7e:	d03d      	beq.n	2afc <__register_exitproc+0xa8>
    2a80:	208c      	movs	r0, #140	; 0x8c
    2a82:	f7fe fa71 	bl	f68 <malloc>
    2a86:	4607      	mov	r7, r0
    2a88:	2800      	cmp	r0, #0
    2a8a:	d037      	beq.n	2afc <__register_exitproc+0xa8>
    2a8c:	2300      	movs	r3, #0
    2a8e:	6043      	str	r3, [r0, #4]
    2a90:	f8d8 3048 	ldr.w	r3, [r8, #72]	; 0x48
    2a94:	6003      	str	r3, [r0, #0]
    2a96:	f8c8 0048 	str.w	r0, [r8, #72]	; 0x48
    2a9a:	b334      	cbz	r4, 2aea <__register_exitproc+0x96>
    2a9c:	f8d7 0088 	ldr.w	r0, [r7, #136]	; 0x88
    2aa0:	b968      	cbnz	r0, 2abe <__register_exitproc+0x6a>
    2aa2:	4b1b      	ldr	r3, [pc, #108]	; (2b10 <__register_exitproc+0xbc>)
    2aa4:	b353      	cbz	r3, 2afc <__register_exitproc+0xa8>
    2aa6:	f44f 7084 	mov.w	r0, #264	; 0x108
    2aaa:	f7fe fa5d 	bl	f68 <malloc>
    2aae:	b348      	cbz	r0, 2b04 <__register_exitproc+0xb0>
    2ab0:	2300      	movs	r3, #0
    2ab2:	f8c0 3100 	str.w	r3, [r0, #256]	; 0x100
    2ab6:	f8c0 3104 	str.w	r3, [r0, #260]	; 0x104
    2aba:	f8c7 0088 	str.w	r0, [r7, #136]	; 0x88
    2abe:	687b      	ldr	r3, [r7, #4]
    2ac0:	2201      	movs	r2, #1
    2ac2:	f8d0 1100 	ldr.w	r1, [r0, #256]	; 0x100
    2ac6:	409a      	lsls	r2, r3
    2ac8:	f840 6023 	str.w	r6, [r0, r3, lsl #2]
    2acc:	3320      	adds	r3, #32
    2ace:	2c02      	cmp	r4, #2
    2ad0:	ea41 0102 	orr.w	r1, r1, r2
    2ad4:	f840 9023 	str.w	r9, [r0, r3, lsl #2]
    2ad8:	f8c0 1100 	str.w	r1, [r0, #256]	; 0x100
    2adc:	d105      	bne.n	2aea <__register_exitproc+0x96>
    2ade:	f8d0 3104 	ldr.w	r3, [r0, #260]	; 0x104
    2ae2:	ea43 0202 	orr.w	r2, r3, r2
    2ae6:	f8c0 2104 	str.w	r2, [r0, #260]	; 0x104
    2aea:	687b      	ldr	r3, [r7, #4]
    2aec:	2000      	movs	r0, #0
    2aee:	1c9a      	adds	r2, r3, #2
    2af0:	3301      	adds	r3, #1
    2af2:	607b      	str	r3, [r7, #4]
    2af4:	f847 5022 	str.w	r5, [r7, r2, lsl #2]
    2af8:	e8bd 83f8 	ldmia.w	sp!, {r3, r4, r5, r6, r7, r8, r9, pc}
    2afc:	f04f 30ff 	mov.w	r0, #4294967295	; 0xffffffff
    2b00:	e8bd 83f8 	ldmia.w	sp!, {r3, r4, r5, r6, r7, r8, r9, pc}
    2b04:	f04f 30ff 	mov.w	r0, #4294967295	; 0xffffffff
    2b08:	e8bd 83f8 	ldmia.w	sp!, {r3, r4, r5, r6, r7, r8, r9, pc}
    2b0c:	00005034 	.word	0x00005034
    2b10:	00000f69 	.word	0x00000f69

00002b14 <quorem>:
    2b14:	e92d 4ff7 	stmdb	sp!, {r0, r1, r2, r4, r5, r6, r7, r8, r9, sl, fp, lr}
    2b18:	4604      	mov	r4, r0
    2b1a:	690b      	ldr	r3, [r1, #16]
    2b1c:	4689      	mov	r9, r1
    2b1e:	6902      	ldr	r2, [r0, #16]
    2b20:	429a      	cmp	r2, r3
    2b22:	f2c0 8086 	blt.w	2c32 <quorem+0x11e>
    2b26:	1e5d      	subs	r5, r3, #1
    2b28:	3303      	adds	r3, #3
    2b2a:	f101 0814 	add.w	r8, r1, #20
    2b2e:	f100 0714 	add.w	r7, r0, #20
    2b32:	009b      	lsls	r3, r3, #2
    2b34:	18ca      	adds	r2, r1, r3
    2b36:	18c3      	adds	r3, r0, r3
    2b38:	f102 0a04 	add.w	sl, r2, #4
    2b3c:	6851      	ldr	r1, [r2, #4]
    2b3e:	6858      	ldr	r0, [r3, #4]
    2b40:	3101      	adds	r1, #1
    2b42:	f001 fb5d 	bl	4200 <__aeabi_uidiv>
    2b46:	4606      	mov	r6, r0
    2b48:	2800      	cmp	r0, #0
    2b4a:	d03c      	beq.n	2bc6 <quorem+0xb2>
    2b4c:	2300      	movs	r3, #0
    2b4e:	4639      	mov	r1, r7
    2b50:	4642      	mov	r2, r8
    2b52:	4618      	mov	r0, r3
    2b54:	9401      	str	r4, [sp, #4]
    2b56:	f852 eb04 	ldr.w	lr, [r2], #4
    2b5a:	680c      	ldr	r4, [r1, #0]
    2b5c:	4552      	cmp	r2, sl
    2b5e:	fa1f fc8e 	uxth.w	ip, lr
    2b62:	ea4f 4e1e 	mov.w	lr, lr, lsr #16
    2b66:	fa1f fb84 	uxth.w	fp, r4
    2b6a:	fb0c 3c06 	mla	ip, ip, r6, r3
    2b6e:	4458      	add	r0, fp
    2b70:	fb0e fe06 	mul.w	lr, lr, r6
    2b74:	eb0e 4e1c 	add.w	lr, lr, ip, lsr #16
    2b78:	fa1f fc8c 	uxth.w	ip, ip
    2b7c:	ebcc 0c00 	rsb	ip, ip, r0
    2b80:	ea4f 431e 	mov.w	r3, lr, lsr #16
    2b84:	fa1f fe8e 	uxth.w	lr, lr
    2b88:	ebce 4e14 	rsb	lr, lr, r4, lsr #16
    2b8c:	eb0e 4e2c 	add.w	lr, lr, ip, asr #16
    2b90:	fa1f fc8c 	uxth.w	ip, ip
    2b94:	ea4f 402e 	mov.w	r0, lr, asr #16
    2b98:	ea4c 4e0e 	orr.w	lr, ip, lr, lsl #16
    2b9c:	f841 eb04 	str.w	lr, [r1], #4
    2ba0:	d9d9      	bls.n	2b56 <quorem+0x42>
    2ba2:	9c01      	ldr	r4, [sp, #4]
    2ba4:	1d2b      	adds	r3, r5, #4
    2ba6:	eb04 0383 	add.w	r3, r4, r3, lsl #2
    2baa:	685a      	ldr	r2, [r3, #4]
    2bac:	b95a      	cbnz	r2, 2bc6 <quorem+0xb2>
    2bae:	3304      	adds	r3, #4
    2bb0:	e000      	b.n	2bb4 <quorem+0xa0>
    2bb2:	3d01      	subs	r5, #1
    2bb4:	1f1a      	subs	r2, r3, #4
    2bb6:	4297      	cmp	r7, r2
    2bb8:	d204      	bcs.n	2bc4 <quorem+0xb0>
    2bba:	f853 1c04 	ldr.w	r1, [r3, #-4]
    2bbe:	4613      	mov	r3, r2
    2bc0:	2900      	cmp	r1, #0
    2bc2:	d0f6      	beq.n	2bb2 <quorem+0x9e>
    2bc4:	6125      	str	r5, [r4, #16]
    2bc6:	4620      	mov	r0, r4
    2bc8:	4649      	mov	r1, r9
    2bca:	f001 f961 	bl	3e90 <__mcmp>
    2bce:	2800      	cmp	r0, #0
    2bd0:	db2d      	blt.n	2c2e <quorem+0x11a>
    2bd2:	3601      	adds	r6, #1
    2bd4:	463b      	mov	r3, r7
    2bd6:	2200      	movs	r2, #0
    2bd8:	4641      	mov	r1, r8
    2bda:	f851 8b04 	ldr.w	r8, [r1], #4
    2bde:	6818      	ldr	r0, [r3, #0]
    2be0:	fa1f fc88 	uxth.w	ip, r8
    2be4:	ea4f 4818 	mov.w	r8, r8, lsr #16
    2be8:	fa1f f980 	uxth.w	r9, r0
    2bec:	ebc8 4010 	rsb	r0, r8, r0, lsr #16
    2bf0:	ebcc 0c09 	rsb	ip, ip, r9
    2bf4:	4494      	add	ip, r2
    2bf6:	eb00 402c 	add.w	r0, r0, ip, asr #16
    2bfa:	fa1f fc8c 	uxth.w	ip, ip
    2bfe:	1402      	asrs	r2, r0, #16
    2c00:	4551      	cmp	r1, sl
    2c02:	ea4c 4000 	orr.w	r0, ip, r0, lsl #16
    2c06:	f843 0b04 	str.w	r0, [r3], #4
    2c0a:	d9e6      	bls.n	2bda <quorem+0xc6>
    2c0c:	1d2b      	adds	r3, r5, #4
    2c0e:	eb04 0383 	add.w	r3, r4, r3, lsl #2
    2c12:	685a      	ldr	r2, [r3, #4]
    2c14:	b95a      	cbnz	r2, 2c2e <quorem+0x11a>
    2c16:	3304      	adds	r3, #4
    2c18:	e000      	b.n	2c1c <quorem+0x108>
    2c1a:	3d01      	subs	r5, #1
    2c1c:	1f1a      	subs	r2, r3, #4
    2c1e:	4297      	cmp	r7, r2
    2c20:	d204      	bcs.n	2c2c <quorem+0x118>
    2c22:	f853 1c04 	ldr.w	r1, [r3, #-4]
    2c26:	4613      	mov	r3, r2
    2c28:	2900      	cmp	r1, #0
    2c2a:	d0f6      	beq.n	2c1a <quorem+0x106>
    2c2c:	6125      	str	r5, [r4, #16]
    2c2e:	4630      	mov	r0, r6
    2c30:	e000      	b.n	2c34 <quorem+0x120>
    2c32:	2000      	movs	r0, #0
    2c34:	e8bd 8ffe 	ldmia.w	sp!, {r1, r2, r3, r4, r5, r6, r7, r8, r9, sl, fp, pc}

00002c38 <_dtoa_r>:
    2c38:	e92d 4ff0 	stmdb	sp!, {r4, r5, r6, r7, r8, r9, sl, fp, lr}
    2c3c:	4605      	mov	r5, r0
    2c3e:	b09b      	sub	sp, #108	; 0x6c
    2c40:	4610      	mov	r0, r2
    2c42:	6a6e      	ldr	r6, [r5, #36]	; 0x24
    2c44:	4619      	mov	r1, r3
    2c46:	9c27      	ldr	r4, [sp, #156]	; 0x9c
    2c48:	e9cd 0104 	strd	r0, r1, [sp, #16]
    2c4c:	b93e      	cbnz	r6, 2c5e <_dtoa_r+0x26>
    2c4e:	2010      	movs	r0, #16
    2c50:	f7fe f98a 	bl	f68 <malloc>
    2c54:	6268      	str	r0, [r5, #36]	; 0x24
    2c56:	6046      	str	r6, [r0, #4]
    2c58:	6086      	str	r6, [r0, #8]
    2c5a:	6006      	str	r6, [r0, #0]
    2c5c:	60c6      	str	r6, [r0, #12]
    2c5e:	6a6b      	ldr	r3, [r5, #36]	; 0x24
    2c60:	6819      	ldr	r1, [r3, #0]
    2c62:	b159      	cbz	r1, 2c7c <_dtoa_r+0x44>
    2c64:	685b      	ldr	r3, [r3, #4]
    2c66:	2201      	movs	r2, #1
    2c68:	4628      	mov	r0, r5
    2c6a:	604b      	str	r3, [r1, #4]
    2c6c:	fa12 f303 	lsls.w	r3, r2, r3
    2c70:	608b      	str	r3, [r1, #8]
    2c72:	f000 ff2c 	bl	3ace <_Bfree>
    2c76:	6a6b      	ldr	r3, [r5, #36]	; 0x24
    2c78:	2200      	movs	r2, #0
    2c7a:	601a      	str	r2, [r3, #0]
    2c7c:	9b05      	ldr	r3, [sp, #20]
    2c7e:	2b00      	cmp	r3, #0
    2c80:	da05      	bge.n	2c8e <_dtoa_r+0x56>
    2c82:	2201      	movs	r2, #1
    2c84:	f023 4300 	bic.w	r3, r3, #2147483648	; 0x80000000
    2c88:	6022      	str	r2, [r4, #0]
    2c8a:	9305      	str	r3, [sp, #20]
    2c8c:	e001      	b.n	2c92 <_dtoa_r+0x5a>
    2c8e:	2300      	movs	r3, #0
    2c90:	6023      	str	r3, [r4, #0]
    2c92:	9c05      	ldr	r4, [sp, #20]
    2c94:	4b9a      	ldr	r3, [pc, #616]	; (2f00 <_dtoa_r+0x2c8>)
    2c96:	4a9a      	ldr	r2, [pc, #616]	; (2f00 <_dtoa_r+0x2c8>)
    2c98:	ea04 0303 	and.w	r3, r4, r3
    2c9c:	4293      	cmp	r3, r2
    2c9e:	d11d      	bne.n	2cdc <_dtoa_r+0xa4>
    2ca0:	9926      	ldr	r1, [sp, #152]	; 0x98
    2ca2:	f242 730f 	movw	r3, #9999	; 0x270f
    2ca6:	9a04      	ldr	r2, [sp, #16]
    2ca8:	600b      	str	r3, [r1, #0]
    2caa:	b94a      	cbnz	r2, 2cc0 <_dtoa_r+0x88>
    2cac:	f024 447f 	bic.w	r4, r4, #4278190080	; 0xff000000
    2cb0:	4b94      	ldr	r3, [pc, #592]	; (2f04 <_dtoa_r+0x2cc>)
    2cb2:	4895      	ldr	r0, [pc, #596]	; (2f08 <_dtoa_r+0x2d0>)
    2cb4:	f424 0470 	bic.w	r4, r4, #15728640	; 0xf00000
    2cb8:	2c00      	cmp	r4, #0
    2cba:	bf18      	it	ne
    2cbc:	4618      	movne	r0, r3
    2cbe:	e000      	b.n	2cc2 <_dtoa_r+0x8a>
    2cc0:	4890      	ldr	r0, [pc, #576]	; (2f04 <_dtoa_r+0x2cc>)
    2cc2:	9b28      	ldr	r3, [sp, #160]	; 0xa0
    2cc4:	2b00      	cmp	r3, #0
    2cc6:	f000 85b3 	beq.w	3830 <_dtoa_r+0xbf8>
    2cca:	78c2      	ldrb	r2, [r0, #3]
    2ccc:	1cc3      	adds	r3, r0, #3
    2cce:	b10a      	cbz	r2, 2cd4 <_dtoa_r+0x9c>
    2cd0:	f100 0308 	add.w	r3, r0, #8
    2cd4:	9928      	ldr	r1, [sp, #160]	; 0xa0
    2cd6:	600b      	str	r3, [r1, #0]
    2cd8:	f000 bdaa 	b.w	3830 <_dtoa_r+0xbf8>
    2cdc:	e9dd ab04 	ldrd	sl, fp, [sp, #16]
    2ce0:	2200      	movs	r2, #0
    2ce2:	2300      	movs	r3, #0
    2ce4:	2601      	movs	r6, #1
    2ce6:	4650      	mov	r0, sl
    2ce8:	4659      	mov	r1, fp
    2cea:	f001 fd75 	bl	47d8 <__aeabi_dcmpeq>
    2cee:	b100      	cbz	r0, 2cf2 <_dtoa_r+0xba>
    2cf0:	2600      	movs	r6, #0
    2cf2:	f016 0fff 	tst.w	r6, #255	; 0xff
    2cf6:	d10b      	bne.n	2d10 <_dtoa_r+0xd8>
    2cf8:	9a26      	ldr	r2, [sp, #152]	; 0x98
    2cfa:	2301      	movs	r3, #1
    2cfc:	6013      	str	r3, [r2, #0]
    2cfe:	9b28      	ldr	r3, [sp, #160]	; 0xa0
    2d00:	2b00      	cmp	r3, #0
    2d02:	f000 8592 	beq.w	382a <_dtoa_r+0xbf2>
    2d06:	4881      	ldr	r0, [pc, #516]	; (2f0c <_dtoa_r+0x2d4>)
    2d08:	6018      	str	r0, [r3, #0]
    2d0a:	3801      	subs	r0, #1
    2d0c:	f000 bd90 	b.w	3830 <_dtoa_r+0xbf8>
    2d10:	ab18      	add	r3, sp, #96	; 0x60
    2d12:	4628      	mov	r0, r5
    2d14:	9300      	str	r3, [sp, #0]
    2d16:	4652      	mov	r2, sl
    2d18:	ab19      	add	r3, sp, #100	; 0x64
    2d1a:	9301      	str	r3, [sp, #4]
    2d1c:	465b      	mov	r3, fp
    2d1e:	0d26      	lsrs	r6, r4, #20
    2d20:	f001 f936 	bl	3f90 <__d2b>
    2d24:	0576      	lsls	r6, r6, #21
    2d26:	0d76      	lsrs	r6, r6, #21
    2d28:	4681      	mov	r9, r0
    2d2a:	b16e      	cbz	r6, 2d48 <_dtoa_r+0x110>
    2d2c:	f02b 437f 	bic.w	r3, fp, #4278190080	; 0xff000000
    2d30:	f5a6 767e 	sub.w	r6, r6, #1016	; 0x3f8
    2d34:	f423 0370 	bic.w	r3, r3, #15728640	; 0xf00000
    2d38:	4650      	mov	r0, sl
    2d3a:	f043 517e 	orr.w	r1, r3, #1065353216	; 0x3f800000
    2d3e:	3e07      	subs	r6, #7
    2d40:	f441 01e0 	orr.w	r1, r1, #7340032	; 0x700000
    2d44:	2200      	movs	r2, #0
    2d46:	e01e      	b.n	2d86 <_dtoa_r+0x14e>
    2d48:	9b18      	ldr	r3, [sp, #96]	; 0x60
    2d4a:	9819      	ldr	r0, [sp, #100]	; 0x64
    2d4c:	18c0      	adds	r0, r0, r3
    2d4e:	f500 6086 	add.w	r0, r0, #1072	; 0x430
    2d52:	1c86      	adds	r6, r0, #2
    2d54:	2e20      	cmp	r6, #32
    2d56:	dd08      	ble.n	2d6a <_dtoa_r+0x132>
    2d58:	9b04      	ldr	r3, [sp, #16]
    2d5a:	381e      	subs	r0, #30
    2d5c:	fa33 f000 	lsrs.w	r0, r3, r0
    2d60:	f1c6 0340 	rsb	r3, r6, #64	; 0x40
    2d64:	409c      	lsls	r4, r3
    2d66:	4320      	orrs	r0, r4
    2d68:	e005      	b.n	2d76 <_dtoa_r+0x13e>
    2d6a:	f8dd e010 	ldr.w	lr, [sp, #16]
    2d6e:	f1c6 0020 	rsb	r0, r6, #32
    2d72:	fa0e f000 	lsl.w	r0, lr, r0
    2d76:	f7fd fdfb 	bl	970 <__aeabi_ui2d>
    2d7a:	f5a6 6686 	sub.w	r6, r6, #1072	; 0x430
    2d7e:	3e03      	subs	r6, #3
    2d80:	2201      	movs	r2, #1
    2d82:	f1a1 71f8 	sub.w	r1, r1, #32505856	; 0x1f00000
    2d86:	9216      	str	r2, [sp, #88]	; 0x58
    2d88:	2200      	movs	r2, #0
    2d8a:	4b61      	ldr	r3, [pc, #388]	; (2f10 <_dtoa_r+0x2d8>)
    2d8c:	f7fd fcb2 	bl	6f4 <__aeabi_dsub>
    2d90:	a355      	add	r3, pc, #340	; (adr r3, 2ee8 <_dtoa_r+0x2b0>)
    2d92:	e9d3 2300 	ldrd	r2, r3, [r3]
    2d96:	f7fd fe61 	bl	a5c <__aeabi_dmul>
    2d9a:	a355      	add	r3, pc, #340	; (adr r3, 2ef0 <_dtoa_r+0x2b8>)
    2d9c:	e9d3 2300 	ldrd	r2, r3, [r3]
    2da0:	f7fd fcaa 	bl	6f8 <__adddf3>
    2da4:	4682      	mov	sl, r0
    2da6:	4630      	mov	r0, r6
    2da8:	468b      	mov	fp, r1
    2daa:	f7fd fdf1 	bl	990 <__aeabi_i2d>
    2dae:	a352      	add	r3, pc, #328	; (adr r3, 2ef8 <_dtoa_r+0x2c0>)
    2db0:	e9d3 2300 	ldrd	r2, r3, [r3]
    2db4:	f7fd fe52 	bl	a5c <__aeabi_dmul>
    2db8:	4602      	mov	r2, r0
    2dba:	460b      	mov	r3, r1
    2dbc:	4650      	mov	r0, sl
    2dbe:	4659      	mov	r1, fp
    2dc0:	f7fd fc9a 	bl	6f8 <__adddf3>
    2dc4:	4682      	mov	sl, r0
    2dc6:	468b      	mov	fp, r1
    2dc8:	f7fe f85a 	bl	e80 <__aeabi_d2iz>
    2dcc:	4659      	mov	r1, fp
    2dce:	2200      	movs	r2, #0
    2dd0:	2300      	movs	r3, #0
    2dd2:	4604      	mov	r4, r0
    2dd4:	4650      	mov	r0, sl
    2dd6:	f001 fd09 	bl	47ec <__aeabi_dcmplt>
    2dda:	b150      	cbz	r0, 2df2 <_dtoa_r+0x1ba>
    2ddc:	4620      	mov	r0, r4
    2dde:	f7fd fdd7 	bl	990 <__aeabi_i2d>
    2de2:	4602      	mov	r2, r0
    2de4:	460b      	mov	r3, r1
    2de6:	4650      	mov	r0, sl
    2de8:	4659      	mov	r1, fp
    2dea:	f001 fcf5 	bl	47d8 <__aeabi_dcmpeq>
    2dee:	b900      	cbnz	r0, 2df2 <_dtoa_r+0x1ba>
    2df0:	3c01      	subs	r4, #1
    2df2:	2c16      	cmp	r4, #22
    2df4:	d80d      	bhi.n	2e12 <_dtoa_r+0x1da>
    2df6:	4b47      	ldr	r3, [pc, #284]	; (2f14 <_dtoa_r+0x2dc>)
    2df8:	eb03 03c4 	add.w	r3, r3, r4, lsl #3
    2dfc:	e9d3 0100 	ldrd	r0, r1, [r3]
    2e00:	e9dd 2304 	ldrd	r2, r3, [sp, #16]
    2e04:	f001 fd10 	bl	4828 <__aeabi_dcmpgt>
    2e08:	b130      	cbz	r0, 2e18 <_dtoa_r+0x1e0>
    2e0a:	2300      	movs	r3, #0
    2e0c:	3c01      	subs	r4, #1
    2e0e:	9311      	str	r3, [sp, #68]	; 0x44
    2e10:	e004      	b.n	2e1c <_dtoa_r+0x1e4>
    2e12:	2001      	movs	r0, #1
    2e14:	9011      	str	r0, [sp, #68]	; 0x44
    2e16:	e001      	b.n	2e1c <_dtoa_r+0x1e4>
    2e18:	2100      	movs	r1, #0
    2e1a:	9111      	str	r1, [sp, #68]	; 0x44
    2e1c:	9b19      	ldr	r3, [sp, #100]	; 0x64
    2e1e:	f103 3bff 	add.w	fp, r3, #4294967295	; 0xffffffff
    2e22:	ebbb 0b06 	subs.w	fp, fp, r6
    2e26:	d504      	bpl.n	2e32 <_dtoa_r+0x1fa>
    2e28:	2200      	movs	r2, #0
    2e2a:	f1cb 0b00 	rsb	fp, fp, #0
    2e2e:	9206      	str	r2, [sp, #24]
    2e30:	e003      	b.n	2e3a <_dtoa_r+0x202>
    2e32:	f8cd b018 	str.w	fp, [sp, #24]
    2e36:	f04f 0b00 	mov.w	fp, #0
    2e3a:	2c00      	cmp	r4, #0
    2e3c:	db06      	blt.n	2e4c <_dtoa_r+0x214>
    2e3e:	9b06      	ldr	r3, [sp, #24]
    2e40:	f04f 0800 	mov.w	r8, #0
    2e44:	940f      	str	r4, [sp, #60]	; 0x3c
    2e46:	191b      	adds	r3, r3, r4
    2e48:	9306      	str	r3, [sp, #24]
    2e4a:	e005      	b.n	2e58 <_dtoa_r+0x220>
    2e4c:	ebc4 0b0b 	rsb	fp, r4, fp
    2e50:	f1c4 0800 	rsb	r8, r4, #0
    2e54:	2000      	movs	r0, #0
    2e56:	900f      	str	r0, [sp, #60]	; 0x3c
    2e58:	9924      	ldr	r1, [sp, #144]	; 0x90
    2e5a:	2909      	cmp	r1, #9
    2e5c:	d813      	bhi.n	2e86 <_dtoa_r+0x24e>
    2e5e:	2905      	cmp	r1, #5
    2e60:	dd03      	ble.n	2e6a <_dtoa_r+0x232>
    2e62:	3904      	subs	r1, #4
    2e64:	2700      	movs	r7, #0
    2e66:	9124      	str	r1, [sp, #144]	; 0x90
    2e68:	e000      	b.n	2e6c <_dtoa_r+0x234>
    2e6a:	2701      	movs	r7, #1
    2e6c:	9a24      	ldr	r2, [sp, #144]	; 0x90
    2e6e:	1e93      	subs	r3, r2, #2
    2e70:	2b03      	cmp	r3, #3
    2e72:	d80b      	bhi.n	2e8c <_dtoa_r+0x254>
    2e74:	e8df f003 	tbb	[pc, r3]
    2e78:	02051e15 	.word	0x02051e15
    2e7c:	2001      	movs	r0, #1
    2e7e:	900e      	str	r0, [sp, #56]	; 0x38
    2e80:	e01a      	b.n	2eb8 <_dtoa_r+0x280>
    2e82:	2101      	movs	r1, #1
    2e84:	e00e      	b.n	2ea4 <_dtoa_r+0x26c>
    2e86:	2701      	movs	r7, #1
    2e88:	2200      	movs	r2, #0
    2e8a:	9224      	str	r2, [sp, #144]	; 0x90
    2e8c:	2301      	movs	r3, #1
    2e8e:	f04f 3eff 	mov.w	lr, #4294967295	; 0xffffffff
    2e92:	930e      	str	r3, [sp, #56]	; 0x38
    2e94:	2000      	movs	r0, #0
    2e96:	f8cd e030 	str.w	lr, [sp, #48]	; 0x30
    2e9a:	46f2      	mov	sl, lr
    2e9c:	3311      	adds	r3, #17
    2e9e:	9025      	str	r0, [sp, #148]	; 0x94
    2ea0:	e01a      	b.n	2ed8 <_dtoa_r+0x2a0>
    2ea2:	2100      	movs	r1, #0
    2ea4:	9a25      	ldr	r2, [sp, #148]	; 0x94
    2ea6:	910e      	str	r1, [sp, #56]	; 0x38
    2ea8:	2a00      	cmp	r2, #0
    2eaa:	dd0d      	ble.n	2ec8 <_dtoa_r+0x290>
    2eac:	920c      	str	r2, [sp, #48]	; 0x30
    2eae:	4692      	mov	sl, r2
    2eb0:	4613      	mov	r3, r2
    2eb2:	e011      	b.n	2ed8 <_dtoa_r+0x2a0>
    2eb4:	2300      	movs	r3, #0
    2eb6:	930e      	str	r3, [sp, #56]	; 0x38
    2eb8:	9825      	ldr	r0, [sp, #148]	; 0x94
    2eba:	1820      	adds	r0, r4, r0
    2ebc:	900c      	str	r0, [sp, #48]	; 0x30
    2ebe:	1c43      	adds	r3, r0, #1
    2ec0:	2b00      	cmp	r3, #0
    2ec2:	dd07      	ble.n	2ed4 <_dtoa_r+0x29c>
    2ec4:	469a      	mov	sl, r3
    2ec6:	e007      	b.n	2ed8 <_dtoa_r+0x2a0>
    2ec8:	2101      	movs	r1, #1
    2eca:	910c      	str	r1, [sp, #48]	; 0x30
    2ecc:	468a      	mov	sl, r1
    2ece:	460b      	mov	r3, r1
    2ed0:	9125      	str	r1, [sp, #148]	; 0x94
    2ed2:	e001      	b.n	2ed8 <_dtoa_r+0x2a0>
    2ed4:	469a      	mov	sl, r3
    2ed6:	2301      	movs	r3, #1
    2ed8:	6a6e      	ldr	r6, [r5, #36]	; 0x24
    2eda:	2200      	movs	r2, #0
    2edc:	6072      	str	r2, [r6, #4]
    2ede:	3204      	adds	r2, #4
    2ee0:	e01e      	b.n	2f20 <_dtoa_r+0x2e8>
    2ee2:	bf00      	nop
    2ee4:	f3af 8000 	nop.w
    2ee8:	636f4361 	.word	0x636f4361
    2eec:	3fd287a7 	.word	0x3fd287a7
    2ef0:	8b60c8b3 	.word	0x8b60c8b3
    2ef4:	3fc68a28 	.word	0x3fc68a28
    2ef8:	509f79fb 	.word	0x509f79fb
    2efc:	3fd34413 	.word	0x3fd34413
    2f00:	7ff00000 	.word	0x7ff00000
    2f04:	00005196 	.word	0x00005196
    2f08:	0000518d 	.word	0x0000518d
    2f0c:	0000507b 	.word	0x0000507b
    2f10:	3ff80000 	.word	0x3ff80000
    2f14:	00005210 	.word	0x00005210
    2f18:	6871      	ldr	r1, [r6, #4]
    2f1a:	0052      	lsls	r2, r2, #1
    2f1c:	3101      	adds	r1, #1
    2f1e:	6071      	str	r1, [r6, #4]
    2f20:	f102 0114 	add.w	r1, r2, #20
    2f24:	4299      	cmp	r1, r3
    2f26:	d9f7      	bls.n	2f18 <_dtoa_r+0x2e0>
    2f28:	4628      	mov	r0, r5
    2f2a:	6871      	ldr	r1, [r6, #4]
    2f2c:	f000 fd9e 	bl	3a6c <_Balloc>
    2f30:	6a6b      	ldr	r3, [r5, #36]	; 0x24
    2f32:	f1ba 0f0e 	cmp.w	sl, #14
    2f36:	6030      	str	r0, [r6, #0]
    2f38:	681b      	ldr	r3, [r3, #0]
    2f3a:	930d      	str	r3, [sp, #52]	; 0x34
    2f3c:	f200 81ac 	bhi.w	3298 <_dtoa_r+0x660>
    2f40:	2f00      	cmp	r7, #0
    2f42:	f000 81a9 	beq.w	3298 <_dtoa_r+0x660>
    2f46:	e9dd 2304 	ldrd	r2, r3, [sp, #16]
    2f4a:	2c00      	cmp	r4, #0
    2f4c:	e9cd 2312 	strd	r2, r3, [sp, #72]	; 0x48
    2f50:	dd3f      	ble.n	2fd2 <_dtoa_r+0x39a>
    2f52:	f004 020f 	and.w	r2, r4, #15
    2f56:	4b92      	ldr	r3, [pc, #584]	; (31a0 <_dtoa_r+0x568>)
    2f58:	1127      	asrs	r7, r4, #4
    2f5a:	eb03 03c2 	add.w	r3, r3, r2, lsl #3
    2f5e:	f017 0f10 	tst.w	r7, #16
    2f62:	e9d3 0100 	ldrd	r0, r1, [r3]
    2f66:	e9cd 010a 	strd	r0, r1, [sp, #40]	; 0x28
    2f6a:	d00e      	beq.n	2f8a <_dtoa_r+0x352>
    2f6c:	4b8d      	ldr	r3, [pc, #564]	; (31a4 <_dtoa_r+0x56c>)
    2f6e:	f007 070f 	and.w	r7, r7, #15
    2f72:	e9dd 0112 	ldrd	r0, r1, [sp, #72]	; 0x48
    2f76:	2603      	movs	r6, #3
    2f78:	e9d3 2308 	ldrd	r2, r3, [r3, #32]
    2f7c:	f7fd fe98 	bl	cb0 <__aeabi_ddiv>
    2f80:	4602      	mov	r2, r0
    2f82:	460b      	mov	r3, r1
    2f84:	e9cd 2304 	strd	r2, r3, [sp, #16]
    2f88:	e000      	b.n	2f8c <_dtoa_r+0x354>
    2f8a:	2602      	movs	r6, #2
    2f8c:	f8df c214 	ldr.w	ip, [pc, #532]	; 31a4 <_dtoa_r+0x56c>
    2f90:	f8cd b020 	str.w	fp, [sp, #32]
    2f94:	46c3      	mov	fp, r8
    2f96:	e9dd 010a 	ldrd	r0, r1, [sp, #40]	; 0x28
    2f9a:	46a0      	mov	r8, r4
    2f9c:	4664      	mov	r4, ip
    2f9e:	e009      	b.n	2fb4 <_dtoa_r+0x37c>
    2fa0:	f017 0f01 	tst.w	r7, #1
    2fa4:	d004      	beq.n	2fb0 <_dtoa_r+0x378>
    2fa6:	e9d4 2300 	ldrd	r2, r3, [r4]
    2faa:	3601      	adds	r6, #1
    2fac:	f7fd fd56 	bl	a5c <__aeabi_dmul>
    2fb0:	107f      	asrs	r7, r7, #1
    2fb2:	3408      	adds	r4, #8
    2fb4:	2f00      	cmp	r7, #0
    2fb6:	d1f3      	bne.n	2fa0 <_dtoa_r+0x368>
    2fb8:	e9cd 010a 	strd	r0, r1, [sp, #40]	; 0x28
    2fbc:	4644      	mov	r4, r8
    2fbe:	e9dd 0104 	ldrd	r0, r1, [sp, #16]
    2fc2:	46d8      	mov	r8, fp
    2fc4:	e9dd 230a 	ldrd	r2, r3, [sp, #40]	; 0x28
    2fc8:	f8dd b020 	ldr.w	fp, [sp, #32]
    2fcc:	f7fd fe70 	bl	cb0 <__aeabi_ddiv>
    2fd0:	e026      	b.n	3020 <_dtoa_r+0x3e8>
    2fd2:	4267      	negs	r7, r4
    2fd4:	b34f      	cbz	r7, 302a <_dtoa_r+0x3f2>
    2fd6:	f007 020f 	and.w	r2, r7, #15
    2fda:	4b71      	ldr	r3, [pc, #452]	; (31a0 <_dtoa_r+0x568>)
    2fdc:	e9dd 0112 	ldrd	r0, r1, [sp, #72]	; 0x48
    2fe0:	113f      	asrs	r7, r7, #4
    2fe2:	eb03 03c2 	add.w	r3, r3, r2, lsl #3
    2fe6:	2602      	movs	r6, #2
    2fe8:	e9d3 2300 	ldrd	r2, r3, [r3]
    2fec:	f7fd fd36 	bl	a5c <__aeabi_dmul>
    2ff0:	f8df c1b0 	ldr.w	ip, [pc, #432]	; 31a4 <_dtoa_r+0x56c>
    2ff4:	f8cd b010 	str.w	fp, [sp, #16]
    2ff8:	46c3      	mov	fp, r8
    2ffa:	46a0      	mov	r8, r4
    2ffc:	4664      	mov	r4, ip
    2ffe:	e009      	b.n	3014 <_dtoa_r+0x3dc>
    3000:	f017 0f01 	tst.w	r7, #1
    3004:	d004      	beq.n	3010 <_dtoa_r+0x3d8>
    3006:	e9d4 2300 	ldrd	r2, r3, [r4]
    300a:	3601      	adds	r6, #1
    300c:	f7fd fd26 	bl	a5c <__aeabi_dmul>
    3010:	107f      	asrs	r7, r7, #1
    3012:	3408      	adds	r4, #8
    3014:	2f00      	cmp	r7, #0
    3016:	d1f3      	bne.n	3000 <_dtoa_r+0x3c8>
    3018:	4644      	mov	r4, r8
    301a:	46d8      	mov	r8, fp
    301c:	f8dd b010 	ldr.w	fp, [sp, #16]
    3020:	4602      	mov	r2, r0
    3022:	460b      	mov	r3, r1
    3024:	e9cd 2304 	strd	r2, r3, [sp, #16]
    3028:	e000      	b.n	302c <_dtoa_r+0x3f4>
    302a:	2602      	movs	r6, #2
    302c:	9b11      	ldr	r3, [sp, #68]	; 0x44
    302e:	b1f3      	cbz	r3, 306e <_dtoa_r+0x436>
    3030:	e9dd 0104 	ldrd	r0, r1, [sp, #16]
    3034:	2200      	movs	r2, #0
    3036:	4b5c      	ldr	r3, [pc, #368]	; (31a8 <_dtoa_r+0x570>)
    3038:	e9cd 0108 	strd	r0, r1, [sp, #32]
    303c:	f001 fbd6 	bl	47ec <__aeabi_dcmplt>
    3040:	b1a8      	cbz	r0, 306e <_dtoa_r+0x436>
    3042:	f1ba 0f00 	cmp.w	sl, #0
    3046:	d012      	beq.n	306e <_dtoa_r+0x436>
    3048:	990c      	ldr	r1, [sp, #48]	; 0x30
    304a:	2900      	cmp	r1, #0
    304c:	f340 8120 	ble.w	3290 <_dtoa_r+0x658>
    3050:	1e62      	subs	r2, r4, #1
    3052:	4b56      	ldr	r3, [pc, #344]	; (31ac <_dtoa_r+0x574>)
    3054:	920a      	str	r2, [sp, #40]	; 0x28
    3056:	2200      	movs	r2, #0
    3058:	e9dd 0108 	ldrd	r0, r1, [sp, #32]
    305c:	3601      	adds	r6, #1
    305e:	f7fd fcfd 	bl	a5c <__aeabi_dmul>
    3062:	9f0c      	ldr	r7, [sp, #48]	; 0x30
    3064:	4602      	mov	r2, r0
    3066:	460b      	mov	r3, r1
    3068:	e9cd 2304 	strd	r2, r3, [sp, #16]
    306c:	e001      	b.n	3072 <_dtoa_r+0x43a>
    306e:	4657      	mov	r7, sl
    3070:	940a      	str	r4, [sp, #40]	; 0x28
    3072:	4630      	mov	r0, r6
    3074:	f7fd fc8c 	bl	990 <__aeabi_i2d>
    3078:	e9dd 2304 	ldrd	r2, r3, [sp, #16]
    307c:	f7fd fcee 	bl	a5c <__aeabi_dmul>
    3080:	2200      	movs	r2, #0
    3082:	4b4b      	ldr	r3, [pc, #300]	; (31b0 <_dtoa_r+0x578>)
    3084:	f7fd fb38 	bl	6f8 <__adddf3>
    3088:	460b      	mov	r3, r1
    308a:	4602      	mov	r2, r0
    308c:	e9cd 2308 	strd	r2, r3, [sp, #32]
    3090:	9b09      	ldr	r3, [sp, #36]	; 0x24
    3092:	f1a3 7650 	sub.w	r6, r3, #54525952	; 0x3400000
    3096:	9609      	str	r6, [sp, #36]	; 0x24
    3098:	b9ef      	cbnz	r7, 30d6 <_dtoa_r+0x49e>
    309a:	e9dd 0104 	ldrd	r0, r1, [sp, #16]
    309e:	2200      	movs	r2, #0
    30a0:	4b44      	ldr	r3, [pc, #272]	; (31b4 <_dtoa_r+0x57c>)
    30a2:	f7fd fb27 	bl	6f4 <__aeabi_dsub>
    30a6:	f8dd e020 	ldr.w	lr, [sp, #32]
    30aa:	4633      	mov	r3, r6
    30ac:	4672      	mov	r2, lr
    30ae:	e9cd 0104 	strd	r0, r1, [sp, #16]
    30b2:	f001 fbb9 	bl	4828 <__aeabi_dcmpgt>
    30b6:	2800      	cmp	r0, #0
    30b8:	f040 8296 	bne.w	35e8 <_dtoa_r+0x9b0>
    30bc:	f8dd e020 	ldr.w	lr, [sp, #32]
    30c0:	f106 4300 	add.w	r3, r6, #2147483648	; 0x80000000
    30c4:	e9dd 0104 	ldrd	r0, r1, [sp, #16]
    30c8:	4672      	mov	r2, lr
    30ca:	f001 fb8f 	bl	47ec <__aeabi_dcmplt>
    30ce:	2800      	cmp	r0, #0
    30d0:	f040 827e 	bne.w	35d0 <_dtoa_r+0x998>
    30d4:	e0dc      	b.n	3290 <_dtoa_r+0x658>
    30d6:	980e      	ldr	r0, [sp, #56]	; 0x38
    30d8:	1e7a      	subs	r2, r7, #1
    30da:	4b31      	ldr	r3, [pc, #196]	; (31a0 <_dtoa_r+0x568>)
    30dc:	2800      	cmp	r0, #0
    30de:	d06d      	beq.n	31bc <_dtoa_r+0x584>
    30e0:	eb03 03c2 	add.w	r3, r3, r2, lsl #3
    30e4:	2000      	movs	r0, #0
    30e6:	4934      	ldr	r1, [pc, #208]	; (31b8 <_dtoa_r+0x580>)
    30e8:	e9d3 2300 	ldrd	r2, r3, [r3]
    30ec:	f7fd fde0 	bl	cb0 <__aeabi_ddiv>
    30f0:	e9dd 2308 	ldrd	r2, r3, [sp, #32]
    30f4:	f7fd fafe 	bl	6f4 <__aeabi_dsub>
    30f8:	e9dd 2304 	ldrd	r2, r3, [sp, #16]
    30fc:	f8cd b054 	str.w	fp, [sp, #84]	; 0x54
    3100:	46d3      	mov	fp, sl
    3102:	f8cd 805c 	str.w	r8, [sp, #92]	; 0x5c
    3106:	46a2      	mov	sl, r4
    3108:	46a8      	mov	r8, r5
    310a:	4614      	mov	r4, r2
    310c:	461d      	mov	r5, r3
    310e:	f04f 0e00 	mov.w	lr, #0
    3112:	f8cd e010 	str.w	lr, [sp, #16]
    3116:	e9cd 0108 	strd	r0, r1, [sp, #32]
    311a:	990d      	ldr	r1, [sp, #52]	; 0x34
    311c:	9110      	str	r1, [sp, #64]	; 0x40
    311e:	4629      	mov	r1, r5
    3120:	4620      	mov	r0, r4
    3122:	f7fd fead 	bl	e80 <__aeabi_d2iz>
    3126:	4606      	mov	r6, r0
    3128:	f7fd fc32 	bl	990 <__aeabi_i2d>
    312c:	3630      	adds	r6, #48	; 0x30
    312e:	4602      	mov	r2, r0
    3130:	460b      	mov	r3, r1
    3132:	4620      	mov	r0, r4
    3134:	4629      	mov	r1, r5
    3136:	f7fd fadd 	bl	6f4 <__aeabi_dsub>
    313a:	9a10      	ldr	r2, [sp, #64]	; 0x40
    313c:	f802 6b01 	strb.w	r6, [r2], #1
    3140:	4616      	mov	r6, r2
    3142:	9210      	str	r2, [sp, #64]	; 0x40
    3144:	e9dd 2308 	ldrd	r2, r3, [sp, #32]
    3148:	4604      	mov	r4, r0
    314a:	460d      	mov	r5, r1
    314c:	f001 fb4e 	bl	47ec <__aeabi_dcmplt>
    3150:	2800      	cmp	r0, #0
    3152:	f040 835b 	bne.w	380c <_dtoa_r+0xbd4>
    3156:	4622      	mov	r2, r4
    3158:	462b      	mov	r3, r5
    315a:	2000      	movs	r0, #0
    315c:	4912      	ldr	r1, [pc, #72]	; (31a8 <_dtoa_r+0x570>)
    315e:	f7fd fac9 	bl	6f4 <__aeabi_dsub>
    3162:	e9dd 2308 	ldrd	r2, r3, [sp, #32]
    3166:	f001 fb41 	bl	47ec <__aeabi_dcmplt>
    316a:	2800      	cmp	r0, #0
    316c:	f040 8102 	bne.w	3374 <_dtoa_r+0x73c>
    3170:	9b04      	ldr	r3, [sp, #16]
    3172:	3301      	adds	r3, #1
    3174:	9304      	str	r3, [sp, #16]
    3176:	42bb      	cmp	r3, r7
    3178:	f280 8083 	bge.w	3282 <_dtoa_r+0x64a>
    317c:	e9dd 0108 	ldrd	r0, r1, [sp, #32]
    3180:	2200      	movs	r2, #0
    3182:	4b0a      	ldr	r3, [pc, #40]	; (31ac <_dtoa_r+0x574>)
    3184:	f7fd fc6a 	bl	a5c <__aeabi_dmul>
    3188:	2200      	movs	r2, #0
    318a:	4b08      	ldr	r3, [pc, #32]	; (31ac <_dtoa_r+0x574>)
    318c:	e9cd 0108 	strd	r0, r1, [sp, #32]
    3190:	4620      	mov	r0, r4
    3192:	4629      	mov	r1, r5
    3194:	f7fd fc62 	bl	a5c <__aeabi_dmul>
    3198:	4604      	mov	r4, r0
    319a:	460d      	mov	r5, r1
    319c:	e7bf      	b.n	311e <_dtoa_r+0x4e6>
    319e:	bf00      	nop
    31a0:	00005210 	.word	0x00005210
    31a4:	000052d8 	.word	0x000052d8
    31a8:	3ff00000 	.word	0x3ff00000
    31ac:	40240000 	.word	0x40240000
    31b0:	401c0000 	.word	0x401c0000
    31b4:	40140000 	.word	0x40140000
    31b8:	3fe00000 	.word	0x3fe00000
    31bc:	eb03 03c2 	add.w	r3, r3, r2, lsl #3
    31c0:	e9d3 0100 	ldrd	r0, r1, [r3]
    31c4:	e9dd 2308 	ldrd	r2, r3, [sp, #32]
    31c8:	f7fd fc48 	bl	a5c <__aeabi_dmul>
    31cc:	e9dd 2304 	ldrd	r2, r3, [sp, #16]
    31d0:	9e0e      	ldr	r6, [sp, #56]	; 0x38
    31d2:	f8cd b040 	str.w	fp, [sp, #64]	; 0x40
    31d6:	46d3      	mov	fp, sl
    31d8:	f8cd 8054 	str.w	r8, [sp, #84]	; 0x54
    31dc:	46a2      	mov	sl, r4
    31de:	46a8      	mov	r8, r5
    31e0:	4614      	mov	r4, r2
    31e2:	461d      	mov	r5, r3
    31e4:	e9cd 0108 	strd	r0, r1, [sp, #32]
    31e8:	4629      	mov	r1, r5
    31ea:	4620      	mov	r0, r4
    31ec:	f7fd fe48 	bl	e80 <__aeabi_d2iz>
    31f0:	9003      	str	r0, [sp, #12]
    31f2:	f7fd fbcd 	bl	990 <__aeabi_i2d>
    31f6:	4602      	mov	r2, r0
    31f8:	460b      	mov	r3, r1
    31fa:	4620      	mov	r0, r4
    31fc:	4629      	mov	r1, r5
    31fe:	f7fd fa79 	bl	6f4 <__aeabi_dsub>
    3202:	f8dd e034 	ldr.w	lr, [sp, #52]	; 0x34
    3206:	f8dd c00c 	ldr.w	ip, [sp, #12]
    320a:	f10c 0c30 	add.w	ip, ip, #48	; 0x30
    320e:	e9cd 0104 	strd	r0, r1, [sp, #16]
    3212:	f80e c006 	strb.w	ip, [lr, r6]
    3216:	3601      	adds	r6, #1
    3218:	42be      	cmp	r6, r7
    321a:	d12b      	bne.n	3274 <_dtoa_r+0x63c>
    321c:	2200      	movs	r2, #0
    321e:	4b81      	ldr	r3, [pc, #516]	; (3424 <_dtoa_r+0x7ec>)
    3220:	e9dd 0108 	ldrd	r0, r1, [sp, #32]
    3224:	4476      	add	r6, lr
    3226:	f7fd fa67 	bl	6f8 <__adddf3>
    322a:	4654      	mov	r4, sl
    322c:	4645      	mov	r5, r8
    322e:	46da      	mov	sl, fp
    3230:	f8dd 8054 	ldr.w	r8, [sp, #84]	; 0x54
    3234:	f8dd b040 	ldr.w	fp, [sp, #64]	; 0x40
    3238:	4602      	mov	r2, r0
    323a:	460b      	mov	r3, r1
    323c:	e9dd 0104 	ldrd	r0, r1, [sp, #16]
    3240:	f001 faf2 	bl	4828 <__aeabi_dcmpgt>
    3244:	2800      	cmp	r0, #0
    3246:	f040 8096 	bne.w	3376 <_dtoa_r+0x73e>
    324a:	e9dd 2308 	ldrd	r2, r3, [sp, #32]
    324e:	2000      	movs	r0, #0
    3250:	4974      	ldr	r1, [pc, #464]	; (3424 <_dtoa_r+0x7ec>)
    3252:	f7fd fa4f 	bl	6f4 <__aeabi_dsub>
    3256:	4602      	mov	r2, r0
    3258:	460b      	mov	r3, r1
    325a:	e9dd 0104 	ldrd	r0, r1, [sp, #16]
    325e:	f001 fac5 	bl	47ec <__aeabi_dcmplt>
    3262:	b1a8      	cbz	r0, 3290 <_dtoa_r+0x658>
    3264:	4633      	mov	r3, r6
    3266:	f813 2c01 	ldrb.w	r2, [r3, #-1]
    326a:	461e      	mov	r6, r3
    326c:	3b01      	subs	r3, #1
    326e:	2a30      	cmp	r2, #48	; 0x30
    3270:	d0f9      	beq.n	3266 <_dtoa_r+0x62e>
    3272:	e2cc      	b.n	380e <_dtoa_r+0xbd6>
    3274:	2200      	movs	r2, #0
    3276:	4b6c      	ldr	r3, [pc, #432]	; (3428 <_dtoa_r+0x7f0>)
    3278:	f7fd fbf0 	bl	a5c <__aeabi_dmul>
    327c:	4604      	mov	r4, r0
    327e:	460d      	mov	r5, r1
    3280:	e7b2      	b.n	31e8 <_dtoa_r+0x5b0>
    3282:	4654      	mov	r4, sl
    3284:	4645      	mov	r5, r8
    3286:	46da      	mov	sl, fp
    3288:	f8dd 805c 	ldr.w	r8, [sp, #92]	; 0x5c
    328c:	f8dd b054 	ldr.w	fp, [sp, #84]	; 0x54
    3290:	e9dd 2312 	ldrd	r2, r3, [sp, #72]	; 0x48
    3294:	e9cd 2304 	strd	r2, r3, [sp, #16]
    3298:	9a18      	ldr	r2, [sp, #96]	; 0x60
    329a:	2a00      	cmp	r2, #0
    329c:	f2c0 808a 	blt.w	33b4 <_dtoa_r+0x77c>
    32a0:	2c0e      	cmp	r4, #14
    32a2:	f300 8087 	bgt.w	33b4 <_dtoa_r+0x77c>
    32a6:	4b61      	ldr	r3, [pc, #388]	; (342c <_dtoa_r+0x7f4>)
    32a8:	eb03 03c4 	add.w	r3, r3, r4, lsl #3
    32ac:	e9d3 0100 	ldrd	r0, r1, [r3]
    32b0:	e9cd 0106 	strd	r0, r1, [sp, #24]
    32b4:	9925      	ldr	r1, [sp, #148]	; 0x94
    32b6:	2900      	cmp	r1, #0
    32b8:	da14      	bge.n	32e4 <_dtoa_r+0x6ac>
    32ba:	f1ba 0f00 	cmp.w	sl, #0
    32be:	dc11      	bgt.n	32e4 <_dtoa_r+0x6ac>
    32c0:	f040 8188 	bne.w	35d4 <_dtoa_r+0x99c>
    32c4:	2200      	movs	r2, #0
    32c6:	4b5a      	ldr	r3, [pc, #360]	; (3430 <_dtoa_r+0x7f8>)
    32c8:	e9dd 0106 	ldrd	r0, r1, [sp, #24]
    32cc:	f7fd fbc6 	bl	a5c <__aeabi_dmul>
    32d0:	e9dd 2304 	ldrd	r2, r3, [sp, #16]
    32d4:	f001 fa9e 	bl	4814 <__aeabi_dcmpge>
    32d8:	2800      	cmp	r0, #0
    32da:	f040 817f 	bne.w	35dc <_dtoa_r+0x9a4>
    32de:	46d0      	mov	r8, sl
    32e0:	4657      	mov	r7, sl
    32e2:	e183      	b.n	35ec <_dtoa_r+0x9b4>
    32e4:	e9dd 2304 	ldrd	r2, r3, [sp, #16]
    32e8:	f8dd 8034 	ldr.w	r8, [sp, #52]	; 0x34
    32ec:	469b      	mov	fp, r3
    32ee:	9404      	str	r4, [sp, #16]
    32f0:	44c2      	add	sl, r8
    32f2:	f8cd a030 	str.w	sl, [sp, #48]	; 0x30
    32f6:	4692      	mov	sl, r2
    32f8:	e9dd 2306 	ldrd	r2, r3, [sp, #24]
    32fc:	4650      	mov	r0, sl
    32fe:	4659      	mov	r1, fp
    3300:	4646      	mov	r6, r8
    3302:	f7fd fcd5 	bl	cb0 <__aeabi_ddiv>
    3306:	f7fd fdbb 	bl	e80 <__aeabi_d2iz>
    330a:	4607      	mov	r7, r0
    330c:	f7fd fb40 	bl	990 <__aeabi_i2d>
    3310:	e9dd 2306 	ldrd	r2, r3, [sp, #24]
    3314:	f7fd fba2 	bl	a5c <__aeabi_dmul>
    3318:	4602      	mov	r2, r0
    331a:	460b      	mov	r3, r1
    331c:	4650      	mov	r0, sl
    331e:	4659      	mov	r1, fp
    3320:	f7fd f9e8 	bl	6f4 <__aeabi_dsub>
    3324:	f107 0330 	add.w	r3, r7, #48	; 0x30
    3328:	f806 3b01 	strb.w	r3, [r6], #1
    332c:	46b0      	mov	r8, r6
    332e:	9a0c      	ldr	r2, [sp, #48]	; 0x30
    3330:	4296      	cmp	r6, r2
    3332:	d12d      	bne.n	3390 <_dtoa_r+0x758>
    3334:	4602      	mov	r2, r0
    3336:	460b      	mov	r3, r1
    3338:	f7fd f9de 	bl	6f8 <__adddf3>
    333c:	e9dd 2306 	ldrd	r2, r3, [sp, #24]
    3340:	9c04      	ldr	r4, [sp, #16]
    3342:	4682      	mov	sl, r0
    3344:	468b      	mov	fp, r1
    3346:	f001 fa6f 	bl	4828 <__aeabi_dcmpgt>
    334a:	b9a8      	cbnz	r0, 3378 <_dtoa_r+0x740>
    334c:	4650      	mov	r0, sl
    334e:	4659      	mov	r1, fp
    3350:	e9dd 2306 	ldrd	r2, r3, [sp, #24]
    3354:	f001 fa40 	bl	47d8 <__aeabi_dcmpeq>
    3358:	2800      	cmp	r0, #0
    335a:	f000 8259 	beq.w	3810 <_dtoa_r+0xbd8>
    335e:	f017 0f01 	tst.w	r7, #1
    3362:	d109      	bne.n	3378 <_dtoa_r+0x740>
    3364:	e254      	b.n	3810 <_dtoa_r+0xbd8>
    3366:	980d      	ldr	r0, [sp, #52]	; 0x34
    3368:	4282      	cmp	r2, r0
    336a:	d106      	bne.n	337a <_dtoa_r+0x742>
    336c:	2230      	movs	r2, #48	; 0x30
    336e:	3401      	adds	r4, #1
    3370:	7002      	strb	r2, [r0, #0]
    3372:	e009      	b.n	3388 <_dtoa_r+0x750>
    3374:	4645      	mov	r5, r8
    3376:	9c0a      	ldr	r4, [sp, #40]	; 0x28
    3378:	4632      	mov	r2, r6
    337a:	f812 1c01 	ldrb.w	r1, [r2, #-1]
    337e:	1e53      	subs	r3, r2, #1
    3380:	4616      	mov	r6, r2
    3382:	461a      	mov	r2, r3
    3384:	2939      	cmp	r1, #57	; 0x39
    3386:	d0ee      	beq.n	3366 <_dtoa_r+0x72e>
    3388:	781a      	ldrb	r2, [r3, #0]
    338a:	3201      	adds	r2, #1
    338c:	701a      	strb	r2, [r3, #0]
    338e:	e23f      	b.n	3810 <_dtoa_r+0xbd8>
    3390:	2200      	movs	r2, #0
    3392:	4b25      	ldr	r3, [pc, #148]	; (3428 <_dtoa_r+0x7f0>)
    3394:	f7fd fb62 	bl	a5c <__aeabi_dmul>
    3398:	2200      	movs	r2, #0
    339a:	2300      	movs	r3, #0
    339c:	2401      	movs	r4, #1
    339e:	4682      	mov	sl, r0
    33a0:	468b      	mov	fp, r1
    33a2:	f001 fa19 	bl	47d8 <__aeabi_dcmpeq>
    33a6:	b100      	cbz	r0, 33aa <_dtoa_r+0x772>
    33a8:	2400      	movs	r4, #0
    33aa:	f014 0fff 	tst.w	r4, #255	; 0xff
    33ae:	d1a3      	bne.n	32f8 <_dtoa_r+0x6c0>
    33b0:	9c04      	ldr	r4, [sp, #16]
    33b2:	e22d      	b.n	3810 <_dtoa_r+0xbd8>
    33b4:	990e      	ldr	r1, [sp, #56]	; 0x38
    33b6:	2900      	cmp	r1, #0
    33b8:	d03c      	beq.n	3434 <_dtoa_r+0x7fc>
    33ba:	9b24      	ldr	r3, [sp, #144]	; 0x90
    33bc:	2b01      	cmp	r3, #1
    33be:	dc0b      	bgt.n	33d8 <_dtoa_r+0x7a0>
    33c0:	9816      	ldr	r0, [sp, #88]	; 0x58
    33c2:	b118      	cbz	r0, 33cc <_dtoa_r+0x794>
    33c4:	f502 6286 	add.w	r2, r2, #1072	; 0x430
    33c8:	3203      	adds	r2, #3
    33ca:	e002      	b.n	33d2 <_dtoa_r+0x79a>
    33cc:	9a19      	ldr	r2, [sp, #100]	; 0x64
    33ce:	f1c2 0236 	rsb	r2, r2, #54	; 0x36
    33d2:	4643      	mov	r3, r8
    33d4:	465e      	mov	r6, fp
    33d6:	e016      	b.n	3406 <_dtoa_r+0x7ce>
    33d8:	f10a 33ff 	add.w	r3, sl, #4294967295	; 0xffffffff
    33dc:	4598      	cmp	r8, r3
    33de:	db02      	blt.n	33e6 <_dtoa_r+0x7ae>
    33e0:	ebc3 0308 	rsb	r3, r3, r8
    33e4:	e006      	b.n	33f4 <_dtoa_r+0x7bc>
    33e6:	990f      	ldr	r1, [sp, #60]	; 0x3c
    33e8:	ebc8 0303 	rsb	r3, r8, r3
    33ec:	4498      	add	r8, r3
    33ee:	18c9      	adds	r1, r1, r3
    33f0:	2300      	movs	r3, #0
    33f2:	910f      	str	r1, [sp, #60]	; 0x3c
    33f4:	f1ba 0f00 	cmp.w	sl, #0
    33f8:	da03      	bge.n	3402 <_dtoa_r+0x7ca>
    33fa:	ebca 060b 	rsb	r6, sl, fp
    33fe:	2200      	movs	r2, #0
    3400:	e001      	b.n	3406 <_dtoa_r+0x7ce>
    3402:	465e      	mov	r6, fp
    3404:	4652      	mov	r2, sl
    3406:	f8dd e018 	ldr.w	lr, [sp, #24]
    340a:	4628      	mov	r0, r5
    340c:	2101      	movs	r1, #1
    340e:	9302      	str	r3, [sp, #8]
    3410:	4496      	add	lr, r2
    3412:	4493      	add	fp, r2
    3414:	f8cd e018 	str.w	lr, [sp, #24]
    3418:	f000 fc00 	bl	3c1c <__i2b>
    341c:	9b02      	ldr	r3, [sp, #8]
    341e:	4607      	mov	r7, r0
    3420:	e00b      	b.n	343a <_dtoa_r+0x802>
    3422:	bf00      	nop
    3424:	3fe00000 	.word	0x3fe00000
    3428:	40240000 	.word	0x40240000
    342c:	00005210 	.word	0x00005210
    3430:	40140000 	.word	0x40140000
    3434:	9f0e      	ldr	r7, [sp, #56]	; 0x38
    3436:	4643      	mov	r3, r8
    3438:	465e      	mov	r6, fp
    343a:	b15e      	cbz	r6, 3454 <_dtoa_r+0x81c>
    343c:	9806      	ldr	r0, [sp, #24]
    343e:	2800      	cmp	r0, #0
    3440:	dd08      	ble.n	3454 <_dtoa_r+0x81c>
    3442:	4602      	mov	r2, r0
    3444:	42b2      	cmp	r2, r6
    3446:	bfa8      	it	ge
    3448:	4632      	movge	r2, r6
    344a:	ebc2 0b0b 	rsb	fp, r2, fp
    344e:	1ab6      	subs	r6, r6, r2
    3450:	1a80      	subs	r0, r0, r2
    3452:	9006      	str	r0, [sp, #24]
    3454:	f1b8 0f00 	cmp.w	r8, #0
    3458:	dd24      	ble.n	34a4 <_dtoa_r+0x86c>
    345a:	990e      	ldr	r1, [sp, #56]	; 0x38
    345c:	b1e1      	cbz	r1, 3498 <_dtoa_r+0x860>
    345e:	2b00      	cmp	r3, #0
    3460:	dd14      	ble.n	348c <_dtoa_r+0x854>
    3462:	461a      	mov	r2, r3
    3464:	4639      	mov	r1, r7
    3466:	4628      	mov	r0, r5
    3468:	9302      	str	r3, [sp, #8]
    346a:	f000 fc73 	bl	3d54 <__pow5mult>
    346e:	464a      	mov	r2, r9
    3470:	4607      	mov	r7, r0
    3472:	4628      	mov	r0, r5
    3474:	4639      	mov	r1, r7
    3476:	f000 fbda 	bl	3c2e <__multiply>
    347a:	4649      	mov	r1, r9
    347c:	4602      	mov	r2, r0
    347e:	4628      	mov	r0, r5
    3480:	9203      	str	r2, [sp, #12]
    3482:	f000 fb24 	bl	3ace <_Bfree>
    3486:	9a03      	ldr	r2, [sp, #12]
    3488:	9b02      	ldr	r3, [sp, #8]
    348a:	4691      	mov	r9, r2
    348c:	ebb8 0203 	subs.w	r2, r8, r3
    3490:	d008      	beq.n	34a4 <_dtoa_r+0x86c>
    3492:	4628      	mov	r0, r5
    3494:	4649      	mov	r1, r9
    3496:	e002      	b.n	349e <_dtoa_r+0x866>
    3498:	4628      	mov	r0, r5
    349a:	4649      	mov	r1, r9
    349c:	4642      	mov	r2, r8
    349e:	f000 fc59 	bl	3d54 <__pow5mult>
    34a2:	4681      	mov	r9, r0
    34a4:	2101      	movs	r1, #1
    34a6:	4628      	mov	r0, r5
    34a8:	f000 fbb8 	bl	3c1c <__i2b>
    34ac:	9a0f      	ldr	r2, [sp, #60]	; 0x3c
    34ae:	2a00      	cmp	r2, #0
    34b0:	4680      	mov	r8, r0
    34b2:	dd04      	ble.n	34be <_dtoa_r+0x886>
    34b4:	4641      	mov	r1, r8
    34b6:	4628      	mov	r0, r5
    34b8:	f000 fc4c 	bl	3d54 <__pow5mult>
    34bc:	4680      	mov	r8, r0
    34be:	9b24      	ldr	r3, [sp, #144]	; 0x90
    34c0:	2b01      	cmp	r3, #1
    34c2:	dc13      	bgt.n	34ec <_dtoa_r+0x8b4>
    34c4:	9804      	ldr	r0, [sp, #16]
    34c6:	b998      	cbnz	r0, 34f0 <_dtoa_r+0x8b8>
    34c8:	9a05      	ldr	r2, [sp, #20]
    34ca:	f022 437f 	bic.w	r3, r2, #4278190080	; 0xff000000
    34ce:	f423 0370 	bic.w	r3, r3, #15728640	; 0xf00000
    34d2:	b983      	cbnz	r3, 34f6 <_dtoa_r+0x8be>
    34d4:	4b8c      	ldr	r3, [pc, #560]	; (3708 <_dtoa_r+0xad0>)
    34d6:	ea02 0303 	and.w	r3, r2, r3
    34da:	b17b      	cbz	r3, 34fc <_dtoa_r+0x8c4>
    34dc:	9906      	ldr	r1, [sp, #24]
    34de:	2201      	movs	r2, #1
    34e0:	f10b 0b01 	add.w	fp, fp, #1
    34e4:	920a      	str	r2, [sp, #40]	; 0x28
    34e6:	3101      	adds	r1, #1
    34e8:	9106      	str	r1, [sp, #24]
    34ea:	e008      	b.n	34fe <_dtoa_r+0x8c6>
    34ec:	2300      	movs	r3, #0
    34ee:	e005      	b.n	34fc <_dtoa_r+0x8c4>
    34f0:	2000      	movs	r0, #0
    34f2:	900a      	str	r0, [sp, #40]	; 0x28
    34f4:	e003      	b.n	34fe <_dtoa_r+0x8c6>
    34f6:	9904      	ldr	r1, [sp, #16]
    34f8:	910a      	str	r1, [sp, #40]	; 0x28
    34fa:	e000      	b.n	34fe <_dtoa_r+0x8c6>
    34fc:	930a      	str	r3, [sp, #40]	; 0x28
    34fe:	9a0f      	ldr	r2, [sp, #60]	; 0x3c
    3500:	b14a      	cbz	r2, 3516 <_dtoa_r+0x8de>
    3502:	f8d8 3010 	ldr.w	r3, [r8, #16]
    3506:	eb08 0383 	add.w	r3, r8, r3, lsl #2
    350a:	6918      	ldr	r0, [r3, #16]
    350c:	f000 fb34 	bl	3b78 <__hi0bits>
    3510:	f1c0 0320 	rsb	r3, r0, #32
    3514:	e000      	b.n	3518 <_dtoa_r+0x8e0>
    3516:	2301      	movs	r3, #1
    3518:	f8dd e018 	ldr.w	lr, [sp, #24]
    351c:	4473      	add	r3, lr
    351e:	f013 031f 	ands.w	r3, r3, #31
    3522:	d00b      	beq.n	353c <_dtoa_r+0x904>
    3524:	f1c3 0320 	rsb	r3, r3, #32
    3528:	2b04      	cmp	r3, #4
    352a:	dd06      	ble.n	353a <_dtoa_r+0x902>
    352c:	3b04      	subs	r3, #4
    352e:	449e      	add	lr, r3
    3530:	449b      	add	fp, r3
    3532:	18f6      	adds	r6, r6, r3
    3534:	f8cd e018 	str.w	lr, [sp, #24]
    3538:	e006      	b.n	3548 <_dtoa_r+0x910>
    353a:	d005      	beq.n	3548 <_dtoa_r+0x910>
    353c:	331c      	adds	r3, #28
    353e:	9806      	ldr	r0, [sp, #24]
    3540:	449b      	add	fp, r3
    3542:	18f6      	adds	r6, r6, r3
    3544:	18c0      	adds	r0, r0, r3
    3546:	9006      	str	r0, [sp, #24]
    3548:	f1bb 0f00 	cmp.w	fp, #0
    354c:	dd05      	ble.n	355a <_dtoa_r+0x922>
    354e:	4649      	mov	r1, r9
    3550:	4628      	mov	r0, r5
    3552:	465a      	mov	r2, fp
    3554:	f000 fc50 	bl	3df8 <__lshift>
    3558:	4681      	mov	r9, r0
    355a:	9906      	ldr	r1, [sp, #24]
    355c:	2900      	cmp	r1, #0
    355e:	dd05      	ble.n	356c <_dtoa_r+0x934>
    3560:	4641      	mov	r1, r8
    3562:	4628      	mov	r0, r5
    3564:	9a06      	ldr	r2, [sp, #24]
    3566:	f000 fc47 	bl	3df8 <__lshift>
    356a:	4680      	mov	r8, r0
    356c:	9a11      	ldr	r2, [sp, #68]	; 0x44
    356e:	b1c2      	cbz	r2, 35a2 <_dtoa_r+0x96a>
    3570:	4648      	mov	r0, r9
    3572:	4641      	mov	r1, r8
    3574:	f000 fc8c 	bl	3e90 <__mcmp>
    3578:	2800      	cmp	r0, #0
    357a:	da12      	bge.n	35a2 <_dtoa_r+0x96a>
    357c:	4649      	mov	r1, r9
    357e:	2300      	movs	r3, #0
    3580:	4628      	mov	r0, r5
    3582:	220a      	movs	r2, #10
    3584:	f000 faba 	bl	3afc <__multadd>
    3588:	9b0e      	ldr	r3, [sp, #56]	; 0x38
    358a:	3c01      	subs	r4, #1
    358c:	4681      	mov	r9, r0
    358e:	b133      	cbz	r3, 359e <_dtoa_r+0x966>
    3590:	4639      	mov	r1, r7
    3592:	4628      	mov	r0, r5
    3594:	220a      	movs	r2, #10
    3596:	2300      	movs	r3, #0
    3598:	f000 fab0 	bl	3afc <__multadd>
    359c:	4607      	mov	r7, r0
    359e:	f8dd a030 	ldr.w	sl, [sp, #48]	; 0x30
    35a2:	f1ba 0f00 	cmp.w	sl, #0
    35a6:	dc29      	bgt.n	35fc <_dtoa_r+0x9c4>
    35a8:	9824      	ldr	r0, [sp, #144]	; 0x90
    35aa:	2802      	cmp	r0, #2
    35ac:	dd26      	ble.n	35fc <_dtoa_r+0x9c4>
    35ae:	f1ba 0f00 	cmp.w	sl, #0
    35b2:	d115      	bne.n	35e0 <_dtoa_r+0x9a8>
    35b4:	4641      	mov	r1, r8
    35b6:	2205      	movs	r2, #5
    35b8:	4653      	mov	r3, sl
    35ba:	4628      	mov	r0, r5
    35bc:	f000 fa9e 	bl	3afc <__multadd>
    35c0:	4680      	mov	r8, r0
    35c2:	4648      	mov	r0, r9
    35c4:	4641      	mov	r1, r8
    35c6:	f000 fc63 	bl	3e90 <__mcmp>
    35ca:	2800      	cmp	r0, #0
    35cc:	dc0e      	bgt.n	35ec <_dtoa_r+0x9b4>
    35ce:	e007      	b.n	35e0 <_dtoa_r+0x9a8>
    35d0:	46b8      	mov	r8, r7
    35d2:	e005      	b.n	35e0 <_dtoa_r+0x9a8>
    35d4:	f04f 0800 	mov.w	r8, #0
    35d8:	4647      	mov	r7, r8
    35da:	e001      	b.n	35e0 <_dtoa_r+0x9a8>
    35dc:	46d0      	mov	r8, sl
    35de:	4657      	mov	r7, sl
    35e0:	9925      	ldr	r1, [sp, #148]	; 0x94
    35e2:	9e0d      	ldr	r6, [sp, #52]	; 0x34
    35e4:	43cc      	mvns	r4, r1
    35e6:	e006      	b.n	35f6 <_dtoa_r+0x9be>
    35e8:	9c0a      	ldr	r4, [sp, #40]	; 0x28
    35ea:	46b8      	mov	r8, r7
    35ec:	9e0d      	ldr	r6, [sp, #52]	; 0x34
    35ee:	3401      	adds	r4, #1
    35f0:	2331      	movs	r3, #49	; 0x31
    35f2:	f806 3b01 	strb.w	r3, [r6], #1
    35f6:	f04f 0a00 	mov.w	sl, #0
    35fa:	e0f4      	b.n	37e6 <_dtoa_r+0xbae>
    35fc:	9a0e      	ldr	r2, [sp, #56]	; 0x38
    35fe:	2a00      	cmp	r2, #0
    3600:	f000 80aa 	beq.w	3758 <_dtoa_r+0xb20>
    3604:	2e00      	cmp	r6, #0
    3606:	dd05      	ble.n	3614 <_dtoa_r+0x9dc>
    3608:	4639      	mov	r1, r7
    360a:	4628      	mov	r0, r5
    360c:	4632      	mov	r2, r6
    360e:	f000 fbf3 	bl	3df8 <__lshift>
    3612:	4607      	mov	r7, r0
    3614:	9b0a      	ldr	r3, [sp, #40]	; 0x28
    3616:	b193      	cbz	r3, 363e <_dtoa_r+0xa06>
    3618:	6879      	ldr	r1, [r7, #4]
    361a:	4628      	mov	r0, r5
    361c:	f000 fa26 	bl	3a6c <_Balloc>
    3620:	693a      	ldr	r2, [r7, #16]
    3622:	f107 010c 	add.w	r1, r7, #12
    3626:	3202      	adds	r2, #2
    3628:	0092      	lsls	r2, r2, #2
    362a:	4606      	mov	r6, r0
    362c:	300c      	adds	r0, #12
    362e:	f7fd febd 	bl	13ac <memcpy>
    3632:	4628      	mov	r0, r5
    3634:	4631      	mov	r1, r6
    3636:	2201      	movs	r2, #1
    3638:	f000 fbde 	bl	3df8 <__lshift>
    363c:	e000      	b.n	3640 <_dtoa_r+0xa08>
    363e:	4638      	mov	r0, r7
    3640:	9e0d      	ldr	r6, [sp, #52]	; 0x34
    3642:	9406      	str	r4, [sp, #24]
    3644:	44b2      	add	sl, r6
    3646:	f8cd a038 	str.w	sl, [sp, #56]	; 0x38
    364a:	46ba      	mov	sl, r7
    364c:	4607      	mov	r7, r0
    364e:	4641      	mov	r1, r8
    3650:	4648      	mov	r0, r9
    3652:	f7ff fa5f 	bl	2b14 <quorem>
    3656:	4651      	mov	r1, sl
    3658:	f100 0b30 	add.w	fp, r0, #48	; 0x30
    365c:	4648      	mov	r0, r9
    365e:	f000 fc17 	bl	3e90 <__mcmp>
    3662:	463a      	mov	r2, r7
    3664:	4641      	mov	r1, r8
    3666:	900c      	str	r0, [sp, #48]	; 0x30
    3668:	4628      	mov	r0, r5
    366a:	f000 fc2e 	bl	3eca <__mdiff>
    366e:	68c2      	ldr	r2, [r0, #12]
    3670:	4603      	mov	r3, r0
    3672:	b93a      	cbnz	r2, 3684 <_dtoa_r+0xa4c>
    3674:	4619      	mov	r1, r3
    3676:	4648      	mov	r0, r9
    3678:	9302      	str	r3, [sp, #8]
    367a:	f000 fc09 	bl	3e90 <__mcmp>
    367e:	9b02      	ldr	r3, [sp, #8]
    3680:	4604      	mov	r4, r0
    3682:	e000      	b.n	3686 <_dtoa_r+0xa4e>
    3684:	2401      	movs	r4, #1
    3686:	4628      	mov	r0, r5
    3688:	4619      	mov	r1, r3
    368a:	f000 fa20 	bl	3ace <_Bfree>
    368e:	b96c      	cbnz	r4, 36ac <_dtoa_r+0xa74>
    3690:	9824      	ldr	r0, [sp, #144]	; 0x90
    3692:	b958      	cbnz	r0, 36ac <_dtoa_r+0xa74>
    3694:	9904      	ldr	r1, [sp, #16]
    3696:	f001 0301 	and.w	r3, r1, #1
    369a:	b93b      	cbnz	r3, 36ac <_dtoa_r+0xa74>
    369c:	f1bb 0f39 	cmp.w	fp, #57	; 0x39
    36a0:	9c06      	ldr	r4, [sp, #24]
    36a2:	d027      	beq.n	36f4 <_dtoa_r+0xabc>
    36a4:	9a0c      	ldr	r2, [sp, #48]	; 0x30
    36a6:	2a00      	cmp	r2, #0
    36a8:	dc29      	bgt.n	36fe <_dtoa_r+0xac6>
    36aa:	e02a      	b.n	3702 <_dtoa_r+0xaca>
    36ac:	9b0c      	ldr	r3, [sp, #48]	; 0x30
    36ae:	2b00      	cmp	r3, #0
    36b0:	db06      	blt.n	36c0 <_dtoa_r+0xa88>
    36b2:	d119      	bne.n	36e8 <_dtoa_r+0xab0>
    36b4:	9824      	ldr	r0, [sp, #144]	; 0x90
    36b6:	b9b8      	cbnz	r0, 36e8 <_dtoa_r+0xab0>
    36b8:	9904      	ldr	r1, [sp, #16]
    36ba:	f001 0301 	and.w	r3, r1, #1
    36be:	b99b      	cbnz	r3, 36e8 <_dtoa_r+0xab0>
    36c0:	4622      	mov	r2, r4
    36c2:	9c06      	ldr	r4, [sp, #24]
    36c4:	2a00      	cmp	r2, #0
    36c6:	dd1c      	ble.n	3702 <_dtoa_r+0xaca>
    36c8:	4649      	mov	r1, r9
    36ca:	2201      	movs	r2, #1
    36cc:	4628      	mov	r0, r5
    36ce:	f000 fb93 	bl	3df8 <__lshift>
    36d2:	4641      	mov	r1, r8
    36d4:	4681      	mov	r9, r0
    36d6:	f000 fbdb 	bl	3e90 <__mcmp>
    36da:	2800      	cmp	r0, #0
    36dc:	dc07      	bgt.n	36ee <_dtoa_r+0xab6>
    36de:	d110      	bne.n	3702 <_dtoa_r+0xaca>
    36e0:	f01b 0f01 	tst.w	fp, #1
    36e4:	d00d      	beq.n	3702 <_dtoa_r+0xaca>
    36e6:	e002      	b.n	36ee <_dtoa_r+0xab6>
    36e8:	2c00      	cmp	r4, #0
    36ea:	dd0f      	ble.n	370c <_dtoa_r+0xad4>
    36ec:	9c06      	ldr	r4, [sp, #24]
    36ee:	f1bb 0f39 	cmp.w	fp, #57	; 0x39
    36f2:	d104      	bne.n	36fe <_dtoa_r+0xac6>
    36f4:	4633      	mov	r3, r6
    36f6:	2239      	movs	r2, #57	; 0x39
    36f8:	f803 2b01 	strb.w	r2, [r3], #1
    36fc:	e065      	b.n	37ca <_dtoa_r+0xb92>
    36fe:	f10b 0b01 	add.w	fp, fp, #1
    3702:	f806 bb01 	strb.w	fp, [r6], #1
    3706:	e06e      	b.n	37e6 <_dtoa_r+0xbae>
    3708:	7ff00000 	.word	0x7ff00000
    370c:	f806 bb01 	strb.w	fp, [r6], #1
    3710:	4633      	mov	r3, r6
    3712:	9a0e      	ldr	r2, [sp, #56]	; 0x38
    3714:	4296      	cmp	r6, r2
    3716:	d03e      	beq.n	3796 <_dtoa_r+0xb5e>
    3718:	4649      	mov	r1, r9
    371a:	220a      	movs	r2, #10
    371c:	2300      	movs	r3, #0
    371e:	4628      	mov	r0, r5
    3720:	f000 f9ec 	bl	3afc <__multadd>
    3724:	45ba      	cmp	sl, r7
    3726:	4681      	mov	r9, r0
    3728:	d107      	bne.n	373a <_dtoa_r+0xb02>
    372a:	4651      	mov	r1, sl
    372c:	4628      	mov	r0, r5
    372e:	220a      	movs	r2, #10
    3730:	2300      	movs	r3, #0
    3732:	f000 f9e3 	bl	3afc <__multadd>
    3736:	4682      	mov	sl, r0
    3738:	e00c      	b.n	3754 <_dtoa_r+0xb1c>
    373a:	4651      	mov	r1, sl
    373c:	220a      	movs	r2, #10
    373e:	2300      	movs	r3, #0
    3740:	4628      	mov	r0, r5
    3742:	f000 f9db 	bl	3afc <__multadd>
    3746:	4639      	mov	r1, r7
    3748:	220a      	movs	r2, #10
    374a:	2300      	movs	r3, #0
    374c:	4682      	mov	sl, r0
    374e:	4628      	mov	r0, r5
    3750:	f000 f9d4 	bl	3afc <__multadd>
    3754:	4607      	mov	r7, r0
    3756:	e77a      	b.n	364e <_dtoa_r+0xa16>
    3758:	f04f 0c01 	mov.w	ip, #1
    375c:	9e0d      	ldr	r6, [sp, #52]	; 0x34
    375e:	46cb      	mov	fp, r9
    3760:	46a1      	mov	r9, r4
    3762:	4664      	mov	r4, ip
    3764:	4658      	mov	r0, fp
    3766:	4641      	mov	r1, r8
    3768:	f7ff f9d4 	bl	2b14 <quorem>
    376c:	3030      	adds	r0, #48	; 0x30
    376e:	4554      	cmp	r4, sl
    3770:	f806 0b01 	strb.w	r0, [r6], #1
    3774:	4633      	mov	r3, r6
    3776:	da08      	bge.n	378a <_dtoa_r+0xb52>
    3778:	4659      	mov	r1, fp
    377a:	4628      	mov	r0, r5
    377c:	220a      	movs	r2, #10
    377e:	2300      	movs	r3, #0
    3780:	f000 f9bc 	bl	3afc <__multadd>
    3784:	3401      	adds	r4, #1
    3786:	4683      	mov	fp, r0
    3788:	e7ec      	b.n	3764 <_dtoa_r+0xb2c>
    378a:	464c      	mov	r4, r9
    378c:	f04f 0a00 	mov.w	sl, #0
    3790:	46d9      	mov	r9, fp
    3792:	4683      	mov	fp, r0
    3794:	e000      	b.n	3798 <_dtoa_r+0xb60>
    3796:	9c06      	ldr	r4, [sp, #24]
    3798:	4649      	mov	r1, r9
    379a:	2201      	movs	r2, #1
    379c:	4628      	mov	r0, r5
    379e:	9302      	str	r3, [sp, #8]
    37a0:	f000 fb2a 	bl	3df8 <__lshift>
    37a4:	4641      	mov	r1, r8
    37a6:	4681      	mov	r9, r0
    37a8:	f000 fb72 	bl	3e90 <__mcmp>
    37ac:	9b02      	ldr	r3, [sp, #8]
    37ae:	2800      	cmp	r0, #0
    37b0:	dc0b      	bgt.n	37ca <_dtoa_r+0xb92>
    37b2:	d113      	bne.n	37dc <_dtoa_r+0xba4>
    37b4:	f01b 0f01 	tst.w	fp, #1
    37b8:	d107      	bne.n	37ca <_dtoa_r+0xb92>
    37ba:	e00f      	b.n	37dc <_dtoa_r+0xba4>
    37bc:	980d      	ldr	r0, [sp, #52]	; 0x34
    37be:	4283      	cmp	r3, r0
    37c0:	d103      	bne.n	37ca <_dtoa_r+0xb92>
    37c2:	2331      	movs	r3, #49	; 0x31
    37c4:	3401      	adds	r4, #1
    37c6:	7003      	strb	r3, [r0, #0]
    37c8:	e00d      	b.n	37e6 <_dtoa_r+0xbae>
    37ca:	f813 2c01 	ldrb.w	r2, [r3, #-1]
    37ce:	461e      	mov	r6, r3
    37d0:	3b01      	subs	r3, #1
    37d2:	2a39      	cmp	r2, #57	; 0x39
    37d4:	d0f2      	beq.n	37bc <_dtoa_r+0xb84>
    37d6:	3201      	adds	r2, #1
    37d8:	701a      	strb	r2, [r3, #0]
    37da:	e004      	b.n	37e6 <_dtoa_r+0xbae>
    37dc:	461e      	mov	r6, r3
    37de:	f813 2d01 	ldrb.w	r2, [r3, #-1]!
    37e2:	2a30      	cmp	r2, #48	; 0x30
    37e4:	d0fa      	beq.n	37dc <_dtoa_r+0xba4>
    37e6:	4628      	mov	r0, r5
    37e8:	4641      	mov	r1, r8
    37ea:	f000 f970 	bl	3ace <_Bfree>
    37ee:	b17f      	cbz	r7, 3810 <_dtoa_r+0xbd8>
    37f0:	f1ba 0f00 	cmp.w	sl, #0
    37f4:	d005      	beq.n	3802 <_dtoa_r+0xbca>
    37f6:	45ba      	cmp	sl, r7
    37f8:	d003      	beq.n	3802 <_dtoa_r+0xbca>
    37fa:	4628      	mov	r0, r5
    37fc:	4651      	mov	r1, sl
    37fe:	f000 f966 	bl	3ace <_Bfree>
    3802:	4628      	mov	r0, r5
    3804:	4639      	mov	r1, r7
    3806:	f000 f962 	bl	3ace <_Bfree>
    380a:	e001      	b.n	3810 <_dtoa_r+0xbd8>
    380c:	4645      	mov	r5, r8
    380e:	9c0a      	ldr	r4, [sp, #40]	; 0x28
    3810:	4649      	mov	r1, r9
    3812:	4628      	mov	r0, r5
    3814:	f000 f95b 	bl	3ace <_Bfree>
    3818:	2300      	movs	r3, #0
    381a:	7033      	strb	r3, [r6, #0]
    381c:	3401      	adds	r4, #1
    381e:	9926      	ldr	r1, [sp, #152]	; 0x98
    3820:	9a28      	ldr	r2, [sp, #160]	; 0xa0
    3822:	600c      	str	r4, [r1, #0]
    3824:	b11a      	cbz	r2, 382e <_dtoa_r+0xbf6>
    3826:	6016      	str	r6, [r2, #0]
    3828:	e001      	b.n	382e <_dtoa_r+0xbf6>
    382a:	4803      	ldr	r0, [pc, #12]	; (3838 <_dtoa_r+0xc00>)
    382c:	e000      	b.n	3830 <_dtoa_r+0xbf8>
    382e:	980d      	ldr	r0, [sp, #52]	; 0x34
    3830:	b01b      	add	sp, #108	; 0x6c
    3832:	e8bd 8ff0 	ldmia.w	sp!, {r4, r5, r6, r7, r8, r9, sl, fp, pc}
    3836:	bf00      	nop
    3838:	0000507a 	.word	0x0000507a
    383c:	f3af 8000 	nop.w

00003840 <_malloc_trim_r>:
    3840:	b5f8      	push	{r3, r4, r5, r6, r7, lr}
    3842:	460d      	mov	r5, r1
    3844:	4e20      	ldr	r6, [pc, #128]	; (38c8 <_malloc_trim_r+0x88>)
    3846:	4604      	mov	r4, r0
    3848:	f7fd fdd3 	bl	13f2 <__malloc_lock>
    384c:	68b3      	ldr	r3, [r6, #8]
    384e:	685f      	ldr	r7, [r3, #4]
    3850:	f027 0703 	bic.w	r7, r7, #3
    3854:	f107 036f 	add.w	r3, r7, #111	; 0x6f
    3858:	1b5d      	subs	r5, r3, r5
    385a:	f025 057f 	bic.w	r5, r5, #127	; 0x7f
    385e:	3d80      	subs	r5, #128	; 0x80
    3860:	2d7f      	cmp	r5, #127	; 0x7f
    3862:	dd1e      	ble.n	38a2 <_malloc_trim_r+0x62>
    3864:	2100      	movs	r1, #0
    3866:	4620      	mov	r0, r4
    3868:	f7fd ff42 	bl	16f0 <_sbrk_r>
    386c:	68b3      	ldr	r3, [r6, #8]
    386e:	19db      	adds	r3, r3, r7
    3870:	4298      	cmp	r0, r3
    3872:	d116      	bne.n	38a2 <_malloc_trim_r+0x62>
    3874:	4269      	negs	r1, r5
    3876:	4620      	mov	r0, r4
    3878:	f7fd ff3a 	bl	16f0 <_sbrk_r>
    387c:	f1b0 3fff 	cmp.w	r0, #4294967295	; 0xffffffff
    3880:	d114      	bne.n	38ac <_malloc_trim_r+0x6c>
    3882:	2100      	movs	r1, #0
    3884:	4620      	mov	r0, r4
    3886:	f7fd ff33 	bl	16f0 <_sbrk_r>
    388a:	68b3      	ldr	r3, [r6, #8]
    388c:	1ac2      	subs	r2, r0, r3
    388e:	2a0f      	cmp	r2, #15
    3890:	dd07      	ble.n	38a2 <_malloc_trim_r+0x62>
    3892:	490e      	ldr	r1, [pc, #56]	; (38cc <_malloc_trim_r+0x8c>)
    3894:	f042 0201 	orr.w	r2, r2, #1
    3898:	605a      	str	r2, [r3, #4]
    389a:	6809      	ldr	r1, [r1, #0]
    389c:	1a40      	subs	r0, r0, r1
    389e:	490c      	ldr	r1, [pc, #48]	; (38d0 <_malloc_trim_r+0x90>)
    38a0:	6008      	str	r0, [r1, #0]
    38a2:	4620      	mov	r0, r4
    38a4:	f7fd fda6 	bl	13f4 <__malloc_unlock>
    38a8:	2000      	movs	r0, #0
    38aa:	bdf8      	pop	{r3, r4, r5, r6, r7, pc}
    38ac:	68b3      	ldr	r3, [r6, #8]
    38ae:	1b7f      	subs	r7, r7, r5
    38b0:	f047 0701 	orr.w	r7, r7, #1
    38b4:	4620      	mov	r0, r4
    38b6:	605f      	str	r7, [r3, #4]
    38b8:	4b05      	ldr	r3, [pc, #20]	; (38d0 <_malloc_trim_r+0x90>)
    38ba:	681a      	ldr	r2, [r3, #0]
    38bc:	1b55      	subs	r5, r2, r5
    38be:	601d      	str	r5, [r3, #0]
    38c0:	f7fd fd98 	bl	13f4 <__malloc_unlock>
    38c4:	2001      	movs	r0, #1
    38c6:	bdf8      	pop	{r3, r4, r5, r6, r7, pc}
    38c8:	10000118 	.word	0x10000118
    38cc:	10000524 	.word	0x10000524
    38d0:	100005b0 	.word	0x100005b0

000038d4 <_free_r>:
    38d4:	e92d 41f0 	stmdb	sp!, {r4, r5, r6, r7, r8, lr}
    38d8:	4604      	mov	r4, r0
    38da:	460d      	mov	r5, r1
    38dc:	2900      	cmp	r1, #0
    38de:	f000 80ae 	beq.w	3a3e <_free_r+0x16a>
    38e2:	f7fd fd86 	bl	13f2 <__malloc_lock>
    38e6:	f1a5 0308 	sub.w	r3, r5, #8
    38ea:	4856      	ldr	r0, [pc, #344]	; (3a44 <_free_r+0x170>)
    38ec:	685f      	ldr	r7, [r3, #4]
    38ee:	f027 0201 	bic.w	r2, r7, #1
    38f2:	f8d0 c008 	ldr.w	ip, [r0, #8]
    38f6:	1899      	adds	r1, r3, r2
    38f8:	f007 0701 	and.w	r7, r7, #1
    38fc:	4561      	cmp	r1, ip
    38fe:	684e      	ldr	r6, [r1, #4]
    3900:	f026 0603 	bic.w	r6, r6, #3
    3904:	d118      	bne.n	3938 <_free_r+0x64>
    3906:	18b2      	adds	r2, r6, r2
    3908:	b93f      	cbnz	r7, 391a <_free_r+0x46>
    390a:	f855 1c08 	ldr.w	r1, [r5, #-8]
    390e:	1a5b      	subs	r3, r3, r1
    3910:	1852      	adds	r2, r2, r1
    3912:	689d      	ldr	r5, [r3, #8]
    3914:	68d9      	ldr	r1, [r3, #12]
    3916:	60e9      	str	r1, [r5, #12]
    3918:	608d      	str	r5, [r1, #8]
    391a:	f042 0101 	orr.w	r1, r2, #1
    391e:	6083      	str	r3, [r0, #8]
    3920:	6059      	str	r1, [r3, #4]
    3922:	4b49      	ldr	r3, [pc, #292]	; (3a48 <_free_r+0x174>)
    3924:	681b      	ldr	r3, [r3, #0]
    3926:	429a      	cmp	r2, r3
    3928:	f0c0 8084 	bcc.w	3a34 <_free_r+0x160>
    392c:	4b47      	ldr	r3, [pc, #284]	; (3a4c <_free_r+0x178>)
    392e:	4620      	mov	r0, r4
    3930:	6819      	ldr	r1, [r3, #0]
    3932:	f7ff ff85 	bl	3840 <_malloc_trim_r>
    3936:	e07d      	b.n	3a34 <_free_r+0x160>
    3938:	604e      	str	r6, [r1, #4]
    393a:	b987      	cbnz	r7, 395e <_free_r+0x8a>
    393c:	f855 5c08 	ldr.w	r5, [r5, #-8]
    3940:	f100 0c08 	add.w	ip, r0, #8
    3944:	1b5b      	subs	r3, r3, r5
    3946:	1952      	adds	r2, r2, r5
    3948:	689d      	ldr	r5, [r3, #8]
    394a:	4565      	cmp	r5, ip
    394c:	d009      	beq.n	3962 <_free_r+0x8e>
    394e:	f8d3 c00c 	ldr.w	ip, [r3, #12]
    3952:	f8c5 c00c 	str.w	ip, [r5, #12]
    3956:	f8cc 5008 	str.w	r5, [ip, #8]
    395a:	463d      	mov	r5, r7
    395c:	e002      	b.n	3964 <_free_r+0x90>
    395e:	2500      	movs	r5, #0
    3960:	e000      	b.n	3964 <_free_r+0x90>
    3962:	2501      	movs	r5, #1
    3964:	198f      	adds	r7, r1, r6
    3966:	687f      	ldr	r7, [r7, #4]
    3968:	f017 0f01 	tst.w	r7, #1
    396c:	d10f      	bne.n	398e <_free_r+0xba>
    396e:	1992      	adds	r2, r2, r6
    3970:	b94d      	cbnz	r5, 3986 <_free_r+0xb2>
    3972:	688e      	ldr	r6, [r1, #8]
    3974:	4f36      	ldr	r7, [pc, #216]	; (3a50 <_free_r+0x17c>)
    3976:	42be      	cmp	r6, r7
    3978:	d105      	bne.n	3986 <_free_r+0xb2>
    397a:	60f3      	str	r3, [r6, #12]
    397c:	3501      	adds	r5, #1
    397e:	60b3      	str	r3, [r6, #8]
    3980:	60de      	str	r6, [r3, #12]
    3982:	609e      	str	r6, [r3, #8]
    3984:	e003      	b.n	398e <_free_r+0xba>
    3986:	68ce      	ldr	r6, [r1, #12]
    3988:	6889      	ldr	r1, [r1, #8]
    398a:	60ce      	str	r6, [r1, #12]
    398c:	60b1      	str	r1, [r6, #8]
    398e:	f042 0101 	orr.w	r1, r2, #1
    3992:	509a      	str	r2, [r3, r2]
    3994:	6059      	str	r1, [r3, #4]
    3996:	2d00      	cmp	r5, #0
    3998:	d14c      	bne.n	3a34 <_free_r+0x160>
    399a:	f5b2 7f00 	cmp.w	r2, #512	; 0x200
    399e:	d210      	bcs.n	39c2 <_free_r+0xee>
    39a0:	08d2      	lsrs	r2, r2, #3
    39a2:	3501      	adds	r5, #1
    39a4:	1091      	asrs	r1, r2, #2
    39a6:	fa15 f101 	lsls.w	r1, r5, r1
    39aa:	6845      	ldr	r5, [r0, #4]
    39ac:	ea45 0101 	orr.w	r1, r5, r1
    39b0:	6041      	str	r1, [r0, #4]
    39b2:	eb00 00c2 	add.w	r0, r0, r2, lsl #3
    39b6:	60d8      	str	r0, [r3, #12]
    39b8:	6882      	ldr	r2, [r0, #8]
    39ba:	609a      	str	r2, [r3, #8]
    39bc:	60d3      	str	r3, [r2, #12]
    39be:	6083      	str	r3, [r0, #8]
    39c0:	e038      	b.n	3a34 <_free_r+0x160>
    39c2:	0a55      	lsrs	r5, r2, #9
    39c4:	2d04      	cmp	r5, #4
    39c6:	d802      	bhi.n	39ce <_free_r+0xfa>
    39c8:	0995      	lsrs	r5, r2, #6
    39ca:	3538      	adds	r5, #56	; 0x38
    39cc:	e016      	b.n	39fc <_free_r+0x128>
    39ce:	2d14      	cmp	r5, #20
    39d0:	d801      	bhi.n	39d6 <_free_r+0x102>
    39d2:	355b      	adds	r5, #91	; 0x5b
    39d4:	e012      	b.n	39fc <_free_r+0x128>
    39d6:	2d54      	cmp	r5, #84	; 0x54
    39d8:	d802      	bhi.n	39e0 <_free_r+0x10c>
    39da:	0b15      	lsrs	r5, r2, #12
    39dc:	356e      	adds	r5, #110	; 0x6e
    39de:	e00d      	b.n	39fc <_free_r+0x128>
    39e0:	f5b5 7faa 	cmp.w	r5, #340	; 0x154
    39e4:	d802      	bhi.n	39ec <_free_r+0x118>
    39e6:	0bd5      	lsrs	r5, r2, #15
    39e8:	3577      	adds	r5, #119	; 0x77
    39ea:	e007      	b.n	39fc <_free_r+0x128>
    39ec:	f240 5154 	movw	r1, #1364	; 0x554
    39f0:	428d      	cmp	r5, r1
    39f2:	d802      	bhi.n	39fa <_free_r+0x126>
    39f4:	0c95      	lsrs	r5, r2, #18
    39f6:	357c      	adds	r5, #124	; 0x7c
    39f8:	e000      	b.n	39fc <_free_r+0x128>
    39fa:	257e      	movs	r5, #126	; 0x7e
    39fc:	eb00 06c5 	add.w	r6, r0, r5, lsl #3
    3a00:	68b1      	ldr	r1, [r6, #8]
    3a02:	42b1      	cmp	r1, r6
    3a04:	d10c      	bne.n	3a20 <_free_r+0x14c>
    3a06:	2201      	movs	r2, #1
    3a08:	10ad      	asrs	r5, r5, #2
    3a0a:	fa12 f505 	lsls.w	r5, r2, r5
    3a0e:	6842      	ldr	r2, [r0, #4]
    3a10:	ea42 0505 	orr.w	r5, r2, r5
    3a14:	460a      	mov	r2, r1
    3a16:	6045      	str	r5, [r0, #4]
    3a18:	e008      	b.n	3a2c <_free_r+0x158>
    3a1a:	6889      	ldr	r1, [r1, #8]
    3a1c:	42b1      	cmp	r1, r6
    3a1e:	d004      	beq.n	3a2a <_free_r+0x156>
    3a20:	6848      	ldr	r0, [r1, #4]
    3a22:	f020 0003 	bic.w	r0, r0, #3
    3a26:	4282      	cmp	r2, r0
    3a28:	d3f7      	bcc.n	3a1a <_free_r+0x146>
    3a2a:	68ca      	ldr	r2, [r1, #12]
    3a2c:	60da      	str	r2, [r3, #12]
    3a2e:	6099      	str	r1, [r3, #8]
    3a30:	60cb      	str	r3, [r1, #12]
    3a32:	6093      	str	r3, [r2, #8]
    3a34:	4620      	mov	r0, r4
    3a36:	e8bd 41f0 	ldmia.w	sp!, {r4, r5, r6, r7, r8, lr}
    3a3a:	f7fd bcdb 	b.w	13f4 <__malloc_unlock>
    3a3e:	e8bd 81f0 	ldmia.w	sp!, {r4, r5, r6, r7, r8, pc}
    3a42:	bf00      	nop
    3a44:	10000118 	.word	0x10000118
    3a48:	10000520 	.word	0x10000520
    3a4c:	100005ac 	.word	0x100005ac
    3a50:	10000120 	.word	0x10000120

00003a54 <_localeconv_r>:
    3a54:	4800      	ldr	r0, [pc, #0]	; (3a58 <_localeconv_r+0x4>)
    3a56:	4770      	bx	lr
    3a58:	1000052c 	.word	0x1000052c

00003a5c <memset>:
    3a5c:	1882      	adds	r2, r0, r2
    3a5e:	4603      	mov	r3, r0
    3a60:	e001      	b.n	3a66 <memset+0xa>
    3a62:	f803 1b01 	strb.w	r1, [r3], #1
    3a66:	4293      	cmp	r3, r2
    3a68:	d3fb      	bcc.n	3a62 <memset+0x6>
    3a6a:	4770      	bx	lr

00003a6c <_Balloc>:
    3a6c:	b570      	push	{r4, r5, r6, lr}
    3a6e:	4604      	mov	r4, r0
    3a70:	6a46      	ldr	r6, [r0, #36]	; 0x24
    3a72:	460d      	mov	r5, r1
    3a74:	b93e      	cbnz	r6, 3a86 <_Balloc+0x1a>
    3a76:	2010      	movs	r0, #16
    3a78:	f7fd fa76 	bl	f68 <malloc>
    3a7c:	6260      	str	r0, [r4, #36]	; 0x24
    3a7e:	6046      	str	r6, [r0, #4]
    3a80:	6086      	str	r6, [r0, #8]
    3a82:	6006      	str	r6, [r0, #0]
    3a84:	60c6      	str	r6, [r0, #12]
    3a86:	6a66      	ldr	r6, [r4, #36]	; 0x24
    3a88:	68f3      	ldr	r3, [r6, #12]
    3a8a:	b943      	cbnz	r3, 3a9e <_Balloc+0x32>
    3a8c:	4620      	mov	r0, r4
    3a8e:	2104      	movs	r1, #4
    3a90:	2221      	movs	r2, #33	; 0x21
    3a92:	f000 fb88 	bl	41a6 <_calloc_r>
    3a96:	6a63      	ldr	r3, [r4, #36]	; 0x24
    3a98:	60f0      	str	r0, [r6, #12]
    3a9a:	68d8      	ldr	r0, [r3, #12]
    3a9c:	b1b0      	cbz	r0, 3acc <_Balloc+0x60>
    3a9e:	6a63      	ldr	r3, [r4, #36]	; 0x24
    3aa0:	68db      	ldr	r3, [r3, #12]
    3aa2:	f853 0025 	ldr.w	r0, [r3, r5, lsl #2]
    3aa6:	b118      	cbz	r0, 3ab0 <_Balloc+0x44>
    3aa8:	6802      	ldr	r2, [r0, #0]
    3aaa:	f843 2025 	str.w	r2, [r3, r5, lsl #2]
    3aae:	e00a      	b.n	3ac6 <_Balloc+0x5a>
    3ab0:	2101      	movs	r1, #1
    3ab2:	4620      	mov	r0, r4
    3ab4:	fa11 f605 	lsls.w	r6, r1, r5
    3ab8:	1d72      	adds	r2, r6, #5
    3aba:	0092      	lsls	r2, r2, #2
    3abc:	f000 fb73 	bl	41a6 <_calloc_r>
    3ac0:	b120      	cbz	r0, 3acc <_Balloc+0x60>
    3ac2:	6045      	str	r5, [r0, #4]
    3ac4:	6086      	str	r6, [r0, #8]
    3ac6:	2300      	movs	r3, #0
    3ac8:	6103      	str	r3, [r0, #16]
    3aca:	60c3      	str	r3, [r0, #12]
    3acc:	bd70      	pop	{r4, r5, r6, pc}

00003ace <_Bfree>:
    3ace:	b570      	push	{r4, r5, r6, lr}
    3ad0:	4604      	mov	r4, r0
    3ad2:	6a45      	ldr	r5, [r0, #36]	; 0x24
    3ad4:	460e      	mov	r6, r1
    3ad6:	b93d      	cbnz	r5, 3ae8 <_Bfree+0x1a>
    3ad8:	2010      	movs	r0, #16
    3ada:	f7fd fa45 	bl	f68 <malloc>
    3ade:	6260      	str	r0, [r4, #36]	; 0x24
    3ae0:	6045      	str	r5, [r0, #4]
    3ae2:	6085      	str	r5, [r0, #8]
    3ae4:	6005      	str	r5, [r0, #0]
    3ae6:	60c5      	str	r5, [r0, #12]
    3ae8:	b13e      	cbz	r6, 3afa <_Bfree+0x2c>
    3aea:	6a63      	ldr	r3, [r4, #36]	; 0x24
    3aec:	6872      	ldr	r2, [r6, #4]
    3aee:	68db      	ldr	r3, [r3, #12]
    3af0:	f853 1022 	ldr.w	r1, [r3, r2, lsl #2]
    3af4:	6031      	str	r1, [r6, #0]
    3af6:	f843 6022 	str.w	r6, [r3, r2, lsl #2]
    3afa:	bd70      	pop	{r4, r5, r6, pc}

00003afc <__multadd>:
    3afc:	e92d 41f0 	stmdb	sp!, {r4, r5, r6, r7, r8, lr}
    3b00:	460c      	mov	r4, r1
    3b02:	461f      	mov	r7, r3
    3b04:	690e      	ldr	r6, [r1, #16]
    3b06:	4605      	mov	r5, r0
    3b08:	3114      	adds	r1, #20
    3b0a:	2300      	movs	r3, #0
    3b0c:	f8d1 c000 	ldr.w	ip, [r1]
    3b10:	3301      	adds	r3, #1
    3b12:	42b3      	cmp	r3, r6
    3b14:	fa1f f08c 	uxth.w	r0, ip
    3b18:	ea4f 4c1c 	mov.w	ip, ip, lsr #16
    3b1c:	fb00 7002 	mla	r0, r0, r2, r7
    3b20:	fb0c fc02 	mul.w	ip, ip, r2
    3b24:	eb0c 4c10 	add.w	ip, ip, r0, lsr #16
    3b28:	b280      	uxth	r0, r0
    3b2a:	ea4f 471c 	mov.w	r7, ip, lsr #16
    3b2e:	ea4f 4c0c 	mov.w	ip, ip, lsl #16
    3b32:	4460      	add	r0, ip
    3b34:	f841 0b04 	str.w	r0, [r1], #4
    3b38:	dbe8      	blt.n	3b0c <__multadd+0x10>
    3b3a:	b1d7      	cbz	r7, 3b72 <__multadd+0x76>
    3b3c:	68a3      	ldr	r3, [r4, #8]
    3b3e:	429e      	cmp	r6, r3
    3b40:	db12      	blt.n	3b68 <__multadd+0x6c>
    3b42:	6861      	ldr	r1, [r4, #4]
    3b44:	4628      	mov	r0, r5
    3b46:	3101      	adds	r1, #1
    3b48:	f7ff ff90 	bl	3a6c <_Balloc>
    3b4c:	6922      	ldr	r2, [r4, #16]
    3b4e:	f104 010c 	add.w	r1, r4, #12
    3b52:	3202      	adds	r2, #2
    3b54:	0092      	lsls	r2, r2, #2
    3b56:	4680      	mov	r8, r0
    3b58:	300c      	adds	r0, #12
    3b5a:	f7fd fc27 	bl	13ac <memcpy>
    3b5e:	4621      	mov	r1, r4
    3b60:	4628      	mov	r0, r5
    3b62:	4644      	mov	r4, r8
    3b64:	f7ff ffb3 	bl	3ace <_Bfree>
    3b68:	eb04 0386 	add.w	r3, r4, r6, lsl #2
    3b6c:	3601      	adds	r6, #1
    3b6e:	6126      	str	r6, [r4, #16]
    3b70:	615f      	str	r7, [r3, #20]
    3b72:	4620      	mov	r0, r4
    3b74:	e8bd 81f0 	ldmia.w	sp!, {r4, r5, r6, r7, r8, pc}

00003b78 <__hi0bits>:
    3b78:	0c02      	lsrs	r2, r0, #16
    3b7a:	4603      	mov	r3, r0
    3b7c:	0412      	lsls	r2, r2, #16
    3b7e:	b912      	cbnz	r2, 3b86 <__hi0bits+0xe>
    3b80:	0403      	lsls	r3, r0, #16
    3b82:	2010      	movs	r0, #16
    3b84:	e000      	b.n	3b88 <__hi0bits+0x10>
    3b86:	2000      	movs	r0, #0
    3b88:	f013 4f7f 	tst.w	r3, #4278190080	; 0xff000000
    3b8c:	d101      	bne.n	3b92 <__hi0bits+0x1a>
    3b8e:	3008      	adds	r0, #8
    3b90:	021b      	lsls	r3, r3, #8
    3b92:	f013 4f70 	tst.w	r3, #4026531840	; 0xf0000000
    3b96:	d101      	bne.n	3b9c <__hi0bits+0x24>
    3b98:	3004      	adds	r0, #4
    3b9a:	011b      	lsls	r3, r3, #4
    3b9c:	f013 4f40 	tst.w	r3, #3221225472	; 0xc0000000
    3ba0:	d101      	bne.n	3ba6 <__hi0bits+0x2e>
    3ba2:	3002      	adds	r0, #2
    3ba4:	009b      	lsls	r3, r3, #2
    3ba6:	2b00      	cmp	r3, #0
    3ba8:	db05      	blt.n	3bb6 <__hi0bits+0x3e>
    3baa:	f013 4f80 	tst.w	r3, #1073741824	; 0x40000000
    3bae:	d001      	beq.n	3bb4 <__hi0bits+0x3c>
    3bb0:	3001      	adds	r0, #1
    3bb2:	4770      	bx	lr
    3bb4:	2020      	movs	r0, #32
    3bb6:	4770      	bx	lr

00003bb8 <__lo0bits>:
    3bb8:	6803      	ldr	r3, [r0, #0]
    3bba:	4602      	mov	r2, r0
    3bbc:	f013 0007 	ands.w	r0, r3, #7
    3bc0:	d00d      	beq.n	3bde <__lo0bits+0x26>
    3bc2:	f013 0f01 	tst.w	r3, #1
    3bc6:	d125      	bne.n	3c14 <__lo0bits+0x5c>
    3bc8:	f013 0f02 	tst.w	r3, #2
    3bcc:	d003      	beq.n	3bd6 <__lo0bits+0x1e>
    3bce:	085b      	lsrs	r3, r3, #1
    3bd0:	2001      	movs	r0, #1
    3bd2:	6013      	str	r3, [r2, #0]
    3bd4:	4770      	bx	lr
    3bd6:	089b      	lsrs	r3, r3, #2
    3bd8:	2002      	movs	r0, #2
    3bda:	6013      	str	r3, [r2, #0]
    3bdc:	4770      	bx	lr
    3bde:	b299      	uxth	r1, r3
    3be0:	b909      	cbnz	r1, 3be6 <__lo0bits+0x2e>
    3be2:	0c1b      	lsrs	r3, r3, #16
    3be4:	2010      	movs	r0, #16
    3be6:	f013 0fff 	tst.w	r3, #255	; 0xff
    3bea:	d101      	bne.n	3bf0 <__lo0bits+0x38>
    3bec:	3008      	adds	r0, #8
    3bee:	0a1b      	lsrs	r3, r3, #8
    3bf0:	f013 0f0f 	tst.w	r3, #15
    3bf4:	d101      	bne.n	3bfa <__lo0bits+0x42>
    3bf6:	3004      	adds	r0, #4
    3bf8:	091b      	lsrs	r3, r3, #4
    3bfa:	f013 0f03 	tst.w	r3, #3
    3bfe:	d101      	bne.n	3c04 <__lo0bits+0x4c>
    3c00:	3002      	adds	r0, #2
    3c02:	089b      	lsrs	r3, r3, #2
    3c04:	f013 0f01 	tst.w	r3, #1
    3c08:	d102      	bne.n	3c10 <__lo0bits+0x58>
    3c0a:	085b      	lsrs	r3, r3, #1
    3c0c:	d004      	beq.n	3c18 <__lo0bits+0x60>
    3c0e:	3001      	adds	r0, #1
    3c10:	6013      	str	r3, [r2, #0]
    3c12:	4770      	bx	lr
    3c14:	2000      	movs	r0, #0
    3c16:	4770      	bx	lr
    3c18:	2020      	movs	r0, #32
    3c1a:	4770      	bx	lr

00003c1c <__i2b>:
    3c1c:	b510      	push	{r4, lr}
    3c1e:	460c      	mov	r4, r1
    3c20:	2101      	movs	r1, #1
    3c22:	f7ff ff23 	bl	3a6c <_Balloc>
    3c26:	2201      	movs	r2, #1
    3c28:	6144      	str	r4, [r0, #20]
    3c2a:	6102      	str	r2, [r0, #16]
    3c2c:	bd10      	pop	{r4, pc}

00003c2e <__multiply>:
    3c2e:	e92d 4ff0 	stmdb	sp!, {r4, r5, r6, r7, r8, r9, sl, fp, lr}
    3c32:	4616      	mov	r6, r2
    3c34:	690a      	ldr	r2, [r1, #16]
    3c36:	460d      	mov	r5, r1
    3c38:	6933      	ldr	r3, [r6, #16]
    3c3a:	b085      	sub	sp, #20
    3c3c:	429a      	cmp	r2, r3
    3c3e:	bfbc      	itt	lt
    3c40:	4635      	movlt	r5, r6
    3c42:	460e      	movlt	r6, r1
    3c44:	f8d5 8010 	ldr.w	r8, [r5, #16]
    3c48:	6937      	ldr	r7, [r6, #16]
    3c4a:	68ab      	ldr	r3, [r5, #8]
    3c4c:	6869      	ldr	r1, [r5, #4]
    3c4e:	eb07 0408 	add.w	r4, r7, r8
    3c52:	429c      	cmp	r4, r3
    3c54:	bfc8      	it	gt
    3c56:	3101      	addgt	r1, #1
    3c58:	f7ff ff08 	bl	3a6c <_Balloc>
    3c5c:	f100 0314 	add.w	r3, r0, #20
    3c60:	eb00 0284 	add.w	r2, r0, r4, lsl #2
    3c64:	3214      	adds	r2, #20
    3c66:	9201      	str	r2, [sp, #4]
    3c68:	461a      	mov	r2, r3
    3c6a:	e002      	b.n	3c72 <__multiply+0x44>
    3c6c:	2100      	movs	r1, #0
    3c6e:	f842 1b04 	str.w	r1, [r2], #4
    3c72:	9901      	ldr	r1, [sp, #4]
    3c74:	428a      	cmp	r2, r1
    3c76:	d3f9      	bcc.n	3c6c <__multiply+0x3e>
    3c78:	f105 0b14 	add.w	fp, r5, #20
    3c7c:	eb06 0787 	add.w	r7, r6, r7, lsl #2
    3c80:	eb05 0588 	add.w	r5, r5, r8, lsl #2
    3c84:	3714      	adds	r7, #20
    3c86:	3514      	adds	r5, #20
    3c88:	9703      	str	r7, [sp, #12]
    3c8a:	9502      	str	r5, [sp, #8]
    3c8c:	f106 0214 	add.w	r2, r6, #20
    3c90:	e04e      	b.n	3d30 <__multiply+0x102>
    3c92:	f852 7b04 	ldr.w	r7, [r2], #4
    3c96:	b2bf      	uxth	r7, r7
    3c98:	b317      	cbz	r7, 3ce0 <__multiply+0xb2>
    3c9a:	465e      	mov	r6, fp
    3c9c:	4619      	mov	r1, r3
    3c9e:	2500      	movs	r5, #0
    3ca0:	f856 cb04 	ldr.w	ip, [r6], #4
    3ca4:	f8d1 a000 	ldr.w	sl, [r1]
    3ca8:	fa1f f98c 	uxth.w	r9, ip
    3cac:	ea4f 4c1c 	mov.w	ip, ip, lsr #16
    3cb0:	fa1f f88a 	uxth.w	r8, sl
    3cb4:	ea4f 4a1a 	mov.w	sl, sl, lsr #16
    3cb8:	fb07 8809 	mla	r8, r7, r9, r8
    3cbc:	f8dd 9008 	ldr.w	r9, [sp, #8]
    3cc0:	fb07 ac0c 	mla	ip, r7, ip, sl
    3cc4:	45b1      	cmp	r9, r6
    3cc6:	44a8      	add	r8, r5
    3cc8:	eb0c 4c18 	add.w	ip, ip, r8, lsr #16
    3ccc:	fa1f f888 	uxth.w	r8, r8
    3cd0:	ea48 480c 	orr.w	r8, r8, ip, lsl #16
    3cd4:	ea4f 451c 	mov.w	r5, ip, lsr #16
    3cd8:	f841 8b04 	str.w	r8, [r1], #4
    3cdc:	d8e0      	bhi.n	3ca0 <__multiply+0x72>
    3cde:	600d      	str	r5, [r1, #0]
    3ce0:	f832 7c02 	ldrh.w	r7, [r2, #-2]
    3ce4:	b31f      	cbz	r7, 3d2e <__multiply+0x100>
    3ce6:	681d      	ldr	r5, [r3, #0]
    3ce8:	465e      	mov	r6, fp
    3cea:	4698      	mov	r8, r3
    3cec:	4619      	mov	r1, r3
    3cee:	f04f 0c00 	mov.w	ip, #0
    3cf2:	f8b6 a000 	ldrh.w	sl, [r6]
    3cf6:	b2ad      	uxth	r5, r5
    3cf8:	f8b1 9002 	ldrh.w	r9, [r1, #2]
    3cfc:	fb07 990a 	mla	r9, r7, sl, r9
    3d00:	44cc      	add	ip, r9
    3d02:	ea45 450c 	orr.w	r5, r5, ip, lsl #16
    3d06:	f841 5b04 	str.w	r5, [r1], #4
    3d0a:	f856 9b04 	ldr.w	r9, [r6], #4
    3d0e:	f858 5f04 	ldr.w	r5, [r8, #4]!
    3d12:	ea4f 4919 	mov.w	r9, r9, lsr #16
    3d16:	b2ad      	uxth	r5, r5
    3d18:	fb07 5509 	mla	r5, r7, r9, r5
    3d1c:	f8dd 9008 	ldr.w	r9, [sp, #8]
    3d20:	45b1      	cmp	r9, r6
    3d22:	eb05 451c 	add.w	r5, r5, ip, lsr #16
    3d26:	ea4f 4c15 	mov.w	ip, r5, lsr #16
    3d2a:	d8e2      	bhi.n	3cf2 <__multiply+0xc4>
    3d2c:	600d      	str	r5, [r1, #0]
    3d2e:	3304      	adds	r3, #4
    3d30:	f8dd c00c 	ldr.w	ip, [sp, #12]
    3d34:	4594      	cmp	ip, r2
    3d36:	d8ac      	bhi.n	3c92 <__multiply+0x64>
    3d38:	9b01      	ldr	r3, [sp, #4]
    3d3a:	e000      	b.n	3d3e <__multiply+0x110>
    3d3c:	3c01      	subs	r4, #1
    3d3e:	2c00      	cmp	r4, #0
    3d40:	dd03      	ble.n	3d4a <__multiply+0x11c>
    3d42:	f853 2d04 	ldr.w	r2, [r3, #-4]!
    3d46:	2a00      	cmp	r2, #0
    3d48:	d0f8      	beq.n	3d3c <__multiply+0x10e>
    3d4a:	6104      	str	r4, [r0, #16]
    3d4c:	b005      	add	sp, #20
    3d4e:	e8bd 8ff0 	ldmia.w	sp!, {r4, r5, r6, r7, r8, r9, sl, fp, pc}
	...

00003d54 <__pow5mult>:
    3d54:	f012 0303 	ands.w	r3, r2, #3
    3d58:	e92d 41f0 	stmdb	sp!, {r4, r5, r6, r7, r8, lr}
    3d5c:	4604      	mov	r4, r0
    3d5e:	460f      	mov	r7, r1
    3d60:	4615      	mov	r5, r2
    3d62:	d007      	beq.n	3d74 <__pow5mult+0x20>
    3d64:	4a23      	ldr	r2, [pc, #140]	; (3df4 <__pow5mult+0xa0>)
    3d66:	3b01      	subs	r3, #1
    3d68:	f852 2023 	ldr.w	r2, [r2, r3, lsl #2]
    3d6c:	2300      	movs	r3, #0
    3d6e:	f7ff fec5 	bl	3afc <__multadd>
    3d72:	4607      	mov	r7, r0
    3d74:	10ad      	asrs	r5, r5, #2
    3d76:	d039      	beq.n	3dec <__pow5mult+0x98>
    3d78:	6a66      	ldr	r6, [r4, #36]	; 0x24
    3d7a:	b93e      	cbnz	r6, 3d8c <__pow5mult+0x38>
    3d7c:	2010      	movs	r0, #16
    3d7e:	f7fd f8f3 	bl	f68 <malloc>
    3d82:	6260      	str	r0, [r4, #36]	; 0x24
    3d84:	6046      	str	r6, [r0, #4]
    3d86:	6086      	str	r6, [r0, #8]
    3d88:	6006      	str	r6, [r0, #0]
    3d8a:	60c6      	str	r6, [r0, #12]
    3d8c:	f8d4 8024 	ldr.w	r8, [r4, #36]	; 0x24
    3d90:	f8d8 6008 	ldr.w	r6, [r8, #8]
    3d94:	b966      	cbnz	r6, 3db0 <__pow5mult+0x5c>
    3d96:	4620      	mov	r0, r4
    3d98:	f240 2171 	movw	r1, #625	; 0x271
    3d9c:	f7ff ff3e 	bl	3c1c <__i2b>
    3da0:	2300      	movs	r3, #0
    3da2:	f8c8 0008 	str.w	r0, [r8, #8]
    3da6:	4606      	mov	r6, r0
    3da8:	6003      	str	r3, [r0, #0]
    3daa:	e001      	b.n	3db0 <__pow5mult+0x5c>
    3dac:	4640      	mov	r0, r8
    3dae:	4606      	mov	r6, r0
    3db0:	f015 0f01 	tst.w	r5, #1
    3db4:	d00a      	beq.n	3dcc <__pow5mult+0x78>
    3db6:	4639      	mov	r1, r7
    3db8:	4632      	mov	r2, r6
    3dba:	4620      	mov	r0, r4
    3dbc:	f7ff ff37 	bl	3c2e <__multiply>
    3dc0:	4639      	mov	r1, r7
    3dc2:	4680      	mov	r8, r0
    3dc4:	4620      	mov	r0, r4
    3dc6:	f7ff fe82 	bl	3ace <_Bfree>
    3dca:	4647      	mov	r7, r8
    3dcc:	106d      	asrs	r5, r5, #1
    3dce:	d00d      	beq.n	3dec <__pow5mult+0x98>
    3dd0:	f8d6 8000 	ldr.w	r8, [r6]
    3dd4:	f1b8 0f00 	cmp.w	r8, #0
    3dd8:	d1e8      	bne.n	3dac <__pow5mult+0x58>
    3dda:	4620      	mov	r0, r4
    3ddc:	4631      	mov	r1, r6
    3dde:	4632      	mov	r2, r6
    3de0:	f7ff ff25 	bl	3c2e <__multiply>
    3de4:	6030      	str	r0, [r6, #0]
    3de6:	f8c0 8000 	str.w	r8, [r0]
    3dea:	e7e0      	b.n	3dae <__pow5mult+0x5a>
    3dec:	4638      	mov	r0, r7
    3dee:	e8bd 81f0 	ldmia.w	sp!, {r4, r5, r6, r7, r8, pc}
    3df2:	bf00      	nop
    3df4:	00005204 	.word	0x00005204

00003df8 <__lshift>:
    3df8:	e92d 43f8 	stmdb	sp!, {r3, r4, r5, r6, r7, r8, r9, lr}
    3dfc:	460c      	mov	r4, r1
    3dfe:	ea4f 1962 	mov.w	r9, r2, asr #5
    3e02:	4605      	mov	r5, r0
    3e04:	6926      	ldr	r6, [r4, #16]
    3e06:	4690      	mov	r8, r2
    3e08:	6849      	ldr	r1, [r1, #4]
    3e0a:	3601      	adds	r6, #1
    3e0c:	68a3      	ldr	r3, [r4, #8]
    3e0e:	444e      	add	r6, r9
    3e10:	e001      	b.n	3e16 <__lshift+0x1e>
    3e12:	3101      	adds	r1, #1
    3e14:	005b      	lsls	r3, r3, #1
    3e16:	429e      	cmp	r6, r3
    3e18:	dcfb      	bgt.n	3e12 <__lshift+0x1a>
    3e1a:	4628      	mov	r0, r5
    3e1c:	f7ff fe26 	bl	3a6c <_Balloc>
    3e20:	2200      	movs	r2, #0
    3e22:	4607      	mov	r7, r0
    3e24:	f100 0314 	add.w	r3, r0, #20
    3e28:	e003      	b.n	3e32 <__lshift+0x3a>
    3e2a:	3201      	adds	r2, #1
    3e2c:	2100      	movs	r1, #0
    3e2e:	f843 1b04 	str.w	r1, [r3], #4
    3e32:	454a      	cmp	r2, r9
    3e34:	dbf9      	blt.n	3e2a <__lshift+0x32>
    3e36:	6920      	ldr	r0, [r4, #16]
    3e38:	f104 0114 	add.w	r1, r4, #20
    3e3c:	eb04 0080 	add.w	r0, r4, r0, lsl #2
    3e40:	3014      	adds	r0, #20
    3e42:	f018 081f 	ands.w	r8, r8, #31
    3e46:	d014      	beq.n	3e72 <__lshift+0x7a>
    3e48:	f1c8 0e20 	rsb	lr, r8, #32
    3e4c:	2200      	movs	r2, #0
    3e4e:	f8d1 c000 	ldr.w	ip, [r1]
    3e52:	fa0c fc08 	lsl.w	ip, ip, r8
    3e56:	ea42 020c 	orr.w	r2, r2, ip
    3e5a:	f843 2b04 	str.w	r2, [r3], #4
    3e5e:	f851 2b04 	ldr.w	r2, [r1], #4
    3e62:	4288      	cmp	r0, r1
    3e64:	fa22 f20e 	lsr.w	r2, r2, lr
    3e68:	d8f1      	bhi.n	3e4e <__lshift+0x56>
    3e6a:	601a      	str	r2, [r3, #0]
    3e6c:	b13a      	cbz	r2, 3e7e <__lshift+0x86>
    3e6e:	3601      	adds	r6, #1
    3e70:	e005      	b.n	3e7e <__lshift+0x86>
    3e72:	f851 2b04 	ldr.w	r2, [r1], #4
    3e76:	4288      	cmp	r0, r1
    3e78:	f843 2b04 	str.w	r2, [r3], #4
    3e7c:	d8f9      	bhi.n	3e72 <__lshift+0x7a>
    3e7e:	4628      	mov	r0, r5
    3e80:	3e01      	subs	r6, #1
    3e82:	4621      	mov	r1, r4
    3e84:	613e      	str	r6, [r7, #16]
    3e86:	f7ff fe22 	bl	3ace <_Bfree>
    3e8a:	4638      	mov	r0, r7
    3e8c:	e8bd 83f8 	ldmia.w	sp!, {r3, r4, r5, r6, r7, r8, r9, pc}

00003e90 <__mcmp>:
    3e90:	4603      	mov	r3, r0
    3e92:	690a      	ldr	r2, [r1, #16]
    3e94:	6900      	ldr	r0, [r0, #16]
    3e96:	b530      	push	{r4, r5, lr}
    3e98:	1a80      	subs	r0, r0, r2
    3e9a:	d115      	bne.n	3ec8 <__mcmp+0x38>
    3e9c:	3204      	adds	r2, #4
    3e9e:	f103 0414 	add.w	r4, r3, #20
    3ea2:	0092      	lsls	r2, r2, #2
    3ea4:	189b      	adds	r3, r3, r2
    3ea6:	188a      	adds	r2, r1, r2
    3ea8:	3304      	adds	r3, #4
    3eaa:	3204      	adds	r2, #4
    3eac:	f853 5d04 	ldr.w	r5, [r3, #-4]!
    3eb0:	f852 1d04 	ldr.w	r1, [r2, #-4]!
    3eb4:	428d      	cmp	r5, r1
    3eb6:	d003      	beq.n	3ec0 <__mcmp+0x30>
    3eb8:	d205      	bcs.n	3ec6 <__mcmp+0x36>
    3eba:	f04f 30ff 	mov.w	r0, #4294967295	; 0xffffffff
    3ebe:	bd30      	pop	{r4, r5, pc}
    3ec0:	429c      	cmp	r4, r3
    3ec2:	d3f3      	bcc.n	3eac <__mcmp+0x1c>
    3ec4:	bd30      	pop	{r4, r5, pc}
    3ec6:	2001      	movs	r0, #1
    3ec8:	bd30      	pop	{r4, r5, pc}

00003eca <__mdiff>:
    3eca:	e92d 47f0 	stmdb	sp!, {r4, r5, r6, r7, r8, r9, sl, lr}
    3ece:	4605      	mov	r5, r0
    3ed0:	460c      	mov	r4, r1
    3ed2:	4608      	mov	r0, r1
    3ed4:	4611      	mov	r1, r2
    3ed6:	4616      	mov	r6, r2
    3ed8:	f7ff ffda 	bl	3e90 <__mcmp>
    3edc:	1e07      	subs	r7, r0, #0
