
LEDBlink.elf:     file format elf32-littlearm


Disassembly of section .text:

00000000 <__Vectors>:
       0:	00 80 00 10 61 09 00 00 69 09 00 00 6b 09 00 00     ....a...i...k...
      10:	6d 09 00 00 6f 09 00 00 71 09 00 00 00 00 00 00     m...o...q.......
	...
      2c:	d2 08 00 00 75 09 00 00 00 00 00 00 77 09 00 00     ....u.......w...
      3c:	79 09 00 00 7b 09 00 00 7b 09 00 00 7b 09 00 00     y...{...{...{...
      4c:	7b 09 00 00 7b 09 00 00 7b 09 00 00 7b 09 00 00     {...{...{...{...
      5c:	7b 09 00 00 7b 09 00 00 7b 09 00 00 7b 09 00 00     {...{...{...{...
      6c:	7b 09 00 00 7b 09 00 00 7b 09 00 00 7b 09 00 00     {...{...{...{...
      7c:	7b 09 00 00 7b 09 00 00 7b 09 00 00 7b 09 00 00     {...{...{...{...
      8c:	7b 09 00 00 7b 09 00 00 7b 09 00 00 7b 09 00 00     {...{...{...{...
      9c:	7b 09 00 00 7b 09 00 00 7b 09 00 00 7b 09 00 00     {...{...{...{...
      ac:	7b 09 00 00 7b 09 00 00 7b 09 00 00 7b 09 00 00     {...{...{...{...
      bc:	7b 09 00 00 7b 09 00 00                             {...{...

000000c4 <__main>:
      c4:	4839      	ldr	r0, [pc, #228]	; (1ac <__main+0xe8>)
      c6:	493a      	ldr	r1, [pc, #232]	; (1b0 <__main+0xec>)
      c8:	b570      	push	{r4, r5, r6, lr}
      ca:	4288      	cmp	r0, r1
      cc:	d023      	beq.n	116 <__main+0x52>
      ce:	4c39      	ldr	r4, [pc, #228]	; (1b4 <__main+0xf0>)
      d0:	42a1      	cmp	r1, r4
      d2:	d220      	bcs.n	116 <__main+0x52>
      d4:	4602      	mov	r2, r0
      d6:	f852 6b04 	ldr.w	r6, [r2], #4
      da:	460b      	mov	r3, r1
      dc:	43cd      	mvns	r5, r1
      de:	f843 6b04 	str.w	r6, [r3], #4
      e2:	1965      	adds	r5, r4, r5
      e4:	42a3      	cmp	r3, r4
      e6:	f3c5 0580 	ubfx	r5, r5, #2, #1
      ea:	d214      	bcs.n	116 <__main+0x52>
      ec:	b13d      	cbz	r5, fe <__main+0x3a>
      ee:	6816      	ldr	r6, [r2, #0]
      f0:	f100 0208 	add.w	r2, r0, #8
      f4:	601e      	str	r6, [r3, #0]
      f6:	f101 0308 	add.w	r3, r1, #8
      fa:	42a3      	cmp	r3, r4
      fc:	d20b      	bcs.n	116 <__main+0x52>
      fe:	4610      	mov	r0, r2
     100:	f850 5b04 	ldr.w	r5, [r0], #4
     104:	4619      	mov	r1, r3
     106:	f841 5b04 	str.w	r5, [r1], #4
     10a:	6856      	ldr	r6, [r2, #4]
     10c:	1d02      	adds	r2, r0, #4
     10e:	605e      	str	r6, [r3, #4]
     110:	1d0b      	adds	r3, r1, #4
     112:	42a3      	cmp	r3, r4
     114:	d3f3      	bcc.n	fe <__main+0x3a>
     116:	4828      	ldr	r0, [pc, #160]	; (1b8 <__main+0xf4>)
     118:	4928      	ldr	r1, [pc, #160]	; (1bc <__main+0xf8>)
     11a:	4288      	cmp	r0, r1
     11c:	d024      	beq.n	168 <__main+0xa4>
     11e:	4c28      	ldr	r4, [pc, #160]	; (1c0 <__main+0xfc>)
     120:	42a1      	cmp	r1, r4
     122:	d221      	bcs.n	168 <__main+0xa4>
     124:	4602      	mov	r2, r0
     126:	f852 6b04 	ldr.w	r6, [r2], #4
     12a:	460b      	mov	r3, r1
     12c:	43cd      	mvns	r5, r1
     12e:	f843 6b04 	str.w	r6, [r3], #4
     132:	eb04 0c05 	add.w	ip, r4, r5
     136:	42a3      	cmp	r3, r4
     138:	f3cc 0580 	ubfx	r5, ip, #2, #1
     13c:	d214      	bcs.n	168 <__main+0xa4>
     13e:	b13d      	cbz	r5, 150 <__main+0x8c>
     140:	6815      	ldr	r5, [r2, #0]
     142:	f100 0208 	add.w	r2, r0, #8
     146:	601d      	str	r5, [r3, #0]
     148:	f101 0308 	add.w	r3, r1, #8
     14c:	42a3      	cmp	r3, r4
     14e:	d20b      	bcs.n	168 <__main+0xa4>
     150:	4610      	mov	r0, r2
     152:	f850 5b04 	ldr.w	r5, [r0], #4
     156:	4619      	mov	r1, r3
     158:	f841 5b04 	str.w	r5, [r1], #4
     15c:	6856      	ldr	r6, [r2, #4]
     15e:	1d02      	adds	r2, r0, #4
     160:	605e      	str	r6, [r3, #4]
     162:	1d0b      	adds	r3, r1, #4
     164:	42a3      	cmp	r3, r4
     166:	d3f3      	bcc.n	150 <__main+0x8c>
     168:	4a16      	ldr	r2, [pc, #88]	; (1c4 <__main+0x100>)
     16a:	4817      	ldr	r0, [pc, #92]	; (1c8 <__main+0x104>)
     16c:	4282      	cmp	r2, r0
     16e:	d216      	bcs.n	19e <__main+0xda>
     170:	2100      	movs	r1, #0
     172:	4613      	mov	r3, r2
     174:	43d6      	mvns	r6, r2
     176:	f843 1b04 	str.w	r1, [r3], #4
     17a:	1984      	adds	r4, r0, r6
     17c:	4283      	cmp	r3, r0
     17e:	f3c4 0480 	ubfx	r4, r4, #2, #1
     182:	d20c      	bcs.n	19e <__main+0xda>
     184:	b124      	cbz	r4, 190 <__main+0xcc>
     186:	6019      	str	r1, [r3, #0]
     188:	f102 0308 	add.w	r3, r2, #8
     18c:	4283      	cmp	r3, r0
     18e:	d206      	bcs.n	19e <__main+0xda>
     190:	461a      	mov	r2, r3
     192:	f842 1b04 	str.w	r1, [r2], #4
     196:	6059      	str	r1, [r3, #4]
     198:	1d13      	adds	r3, r2, #4
     19a:	4283      	cmp	r3, r0
     19c:	d3f8      	bcc.n	190 <__main+0xcc>
     19e:	f002 fe75 	bl	2e8c <__libc_init_array>
     1a2:	f000 fba3 	bl	8ec <main>
     1a6:	f00c f805 	bl	c1b4 <exit>
     1aa:	bf00      	nop
     1ac:	0000c85c 	.word	0x0000c85c
     1b0:	10000000 	.word	0x10000000
     1b4:	100005b4 	.word	0x100005b4
     1b8:	0000ce10 	.word	0x0000ce10
     1bc:	10000784 	.word	0x10000784
     1c0:	10000784 	.word	0x10000784
     1c4:	100005b4 	.word	0x100005b4
     1c8:	10000784 	.word	0x10000784

000001cc <SystemInit>:
     1cc:	481b      	ldr	r0, [pc, #108]	; (23c <SystemInit+0x70>)
     1ce:	2120      	movs	r1, #32
     1d0:	f8c0 11a0 	str.w	r1, [r0, #416]	; 0x1a0
     1d4:	f8d0 11a0 	ldr.w	r1, [r0, #416]	; 0x1a0
     1d8:	f011 0f40 	tst.w	r1, #64	; 0x40
     1dc:	d0fa      	beq.n	1d4 <SystemInit+0x8>
     1de:	2102      	movs	r1, #2
     1e0:	f8c0 1104 	str.w	r1, [r0, #260]	; 0x104
     1e4:	2101      	movs	r1, #1
     1e6:	f8c0 110c 	str.w	r1, [r0, #268]	; 0x10c
     1ea:	220b      	movs	r2, #11
     1ec:	f8c0 2084 	str.w	r2, [r0, #132]	; 0x84
     1f0:	f8c0 1080 	str.w	r1, [r0, #128]	; 0x80
     1f4:	22aa      	movs	r2, #170	; 0xaa
     1f6:	f8c0 208c 	str.w	r2, [r0, #140]	; 0x8c
     1fa:	2355      	movs	r3, #85	; 0x55
     1fc:	f8c0 308c 	str.w	r3, [r0, #140]	; 0x8c
     200:	f8d0 1088 	ldr.w	r1, [r0, #136]	; 0x88
     204:	f011 6f80 	tst.w	r1, #67108864	; 0x4000000
     208:	d0fa      	beq.n	200 <SystemInit+0x34>
     20a:	2103      	movs	r1, #3
     20c:	f8c0 1080 	str.w	r1, [r0, #128]	; 0x80
     210:	f8c0 208c 	str.w	r2, [r0, #140]	; 0x8c
     214:	f8c0 308c 	str.w	r3, [r0, #140]	; 0x8c
     218:	2105      	movs	r1, #5
     21a:	f8c0 1108 	str.w	r1, [r0, #264]	; 0x108
     21e:	2100      	movs	r1, #0
     220:	f8c0 11a8 	str.w	r1, [r0, #424]	; 0x1a8
     224:	f8c0 11ac 	str.w	r1, [r0, #428]	; 0x1ac
     228:	4a05      	ldr	r2, [pc, #20]	; (240 <SystemInit+0x74>)
     22a:	f8c0 20c4 	str.w	r2, [r0, #196]	; 0xc4
     22e:	f8c0 11c8 	str.w	r1, [r0, #456]	; 0x1c8
     232:	f243 013a 	movw	r1, #12346	; 0x303a
     236:	6001      	str	r1, [r0, #0]
     238:	4770      	bx	lr
     23a:	0000      	.short	0x0000
     23c:	400fc000 	.word	0x400fc000
     240:	042887de 	.word	0x042887de
	...

00000300 <__do_global_dtors_aux>:
     300:	f240 53b4 	movw	r3, #1460	; 0x5b4
     304:	f2c1 0300 	movt	r3, #4096	; 0x1000
     308:	781a      	ldrb	r2, [r3, #0]
     30a:	b90a      	cbnz	r2, 310 <__do_global_dtors_aux+0x10>
     30c:	2001      	movs	r0, #1
     30e:	7018      	strb	r0, [r3, #0]
     310:	4770      	bx	lr
     312:	bf00      	nop

00000314 <frame_dummy>:
     314:	f240 50b4 	movw	r0, #1460	; 0x5b4
     318:	f2c1 0000 	movt	r0, #4096	; 0x1000
     31c:	b508      	push	{r3, lr}
     31e:	6803      	ldr	r3, [r0, #0]
     320:	b12b      	cbz	r3, 32e <frame_dummy+0x1a>
     322:	f240 0300 	movw	r3, #0
     326:	f2c0 0300 	movt	r3, #0
     32a:	b103      	cbz	r3, 32e <frame_dummy+0x1a>
     32c:	4798      	blx	r3
     32e:	bd08      	pop	{r3, pc}

00000330 <__GCC4MBEDOpenStandardHandles>:
     330:	b508      	push	{r3, lr}
     332:	2100      	movs	r1, #0
     334:	4807      	ldr	r0, [pc, #28]	; (354 <__GCC4MBEDOpenStandardHandles+0x24>)
     336:	f00b fc5f 	bl	bbf8 <_sys_open>
     33a:	2104      	movs	r1, #4
     33c:	4806      	ldr	r0, [pc, #24]	; (358 <__GCC4MBEDOpenStandardHandles+0x28>)
     33e:	f00b fc5b 	bl	bbf8 <_sys_open>
     342:	4806      	ldr	r0, [pc, #24]	; (35c <__GCC4MBEDOpenStandardHandles+0x2c>)
     344:	2104      	movs	r1, #4
     346:	f00b fc57 	bl	bbf8 <_sys_open>
     34a:	4b05      	ldr	r3, [pc, #20]	; (360 <__GCC4MBEDOpenStandardHandles+0x30>)
     34c:	2201      	movs	r2, #1
     34e:	601a      	str	r2, [r3, #0]
     350:	bd08      	pop	{r3, pc}
     352:	bf00      	nop
     354:	0000b198 	.word	0x0000b198
     358:	0000b1a0 	.word	0x0000b1a0
     35c:	0000b1a8 	.word	0x0000b1a8
     360:	100005c0 	.word	0x100005c0

00000364 <_kill>:
     364:	4b02      	ldr	r3, [pc, #8]	; (370 <_kill+0xc>)
     366:	2216      	movs	r2, #22
     368:	601a      	str	r2, [r3, #0]
     36a:	f04f 30ff 	mov.w	r0, #4294967295	; 0xffffffff
     36e:	4770      	bx	lr
     370:	10000680 	.word	0x10000680

00000374 <_exit>:
     374:	b508      	push	{r3, lr}
     376:	f00b ff1d 	bl	c1b4 <exit>
     37a:	bf00      	nop

0000037c <_getpid>:
     37c:	2001      	movs	r0, #1
     37e:	4770      	bx	lr

00000380 <_sbrk>:
     380:	b570      	push	{r4, r5, r6, lr}
     382:	4d09      	ldr	r5, [pc, #36]	; (3a8 <_sbrk+0x28>)
     384:	4606      	mov	r6, r0
     386:	682c      	ldr	r4, [r5, #0]
     388:	b14c      	cbz	r4, 39e <_sbrk+0x1e>
     38a:	f00b fd5d 	bl	be48 <__get_MSP>
     38e:	19a3      	adds	r3, r4, r6
     390:	4283      	cmp	r3, r0
     392:	d807      	bhi.n	3a4 <_sbrk+0x24>
     394:	6829      	ldr	r1, [r5, #0]
     396:	4620      	mov	r0, r4
     398:	198e      	adds	r6, r1, r6
     39a:	602e      	str	r6, [r5, #0]
     39c:	bd70      	pop	{r4, r5, r6, pc}
     39e:	4c03      	ldr	r4, [pc, #12]	; (3ac <_sbrk+0x2c>)
     3a0:	602c      	str	r4, [r5, #0]
     3a2:	e7f2      	b.n	38a <_sbrk+0xa>
     3a4:	f002 fb90 	bl	2ac8 <abort>
     3a8:	100005bc 	.word	0x100005bc
     3ac:	10000788 	.word	0x10000788

000003b0 <_close>:
     3b0:	f00b bbf8 	b.w	bba4 <_sys_close>

000003b4 <_isatty>:
     3b4:	2802      	cmp	r0, #2
     3b6:	dc01      	bgt.n	3bc <_isatty+0x8>
     3b8:	2001      	movs	r0, #1
     3ba:	4770      	bx	lr
     3bc:	f00b bc08 	b.w	bbd0 <_sys_istty>

000003c0 <_lseek>:
     3c0:	2802      	cmp	r0, #2
     3c2:	e92d 47f0 	stmdb	sp!, {r4, r5, r6, r7, r8, r9, sl, lr}
     3c6:	dd6e      	ble.n	4a6 <_lseek+0xe6>
     3c8:	4f40      	ldr	r7, [pc, #256]	; (4cc <_lseek+0x10c>)
     3ca:	683b      	ldr	r3, [r7, #0]
     3cc:	2b00      	cmp	r3, #0
     3ce:	d161      	bne.n	494 <_lseek+0xd4>
     3d0:	4d3f      	ldr	r5, [pc, #252]	; (4d0 <_lseek+0x110>)
     3d2:	4c40      	ldr	r4, [pc, #256]	; (4d4 <_lseek+0x114>)
     3d4:	f025 0c01 	bic.w	ip, r5, #1
     3d8:	4665      	mov	r5, ip
     3da:	f10c 0628 	add.w	r6, ip, #40	; 0x28
     3de:	f815 ab01 	ldrb.w	sl, [r5], #1
     3e2:	f3c3 084f 	ubfx	r8, r3, #1, #16
     3e6:	ea83 030a 	eor.w	r3, r3, sl
     3ea:	f013 0f01 	tst.w	r3, #1
     3ee:	bf1c      	itt	ne
     3f0:	ea88 0804 	eorne.w	r8, r8, r4
     3f4:	fa1f f888 	uxthne.w	r8, r8
     3f8:	ea4f 095a 	mov.w	r9, sl, lsr #1
     3fc:	ea88 0a09 	eor.w	sl, r8, r9
     400:	ea4f 0358 	mov.w	r3, r8, lsr #1
     404:	f01a 0f01 	tst.w	sl, #1
     408:	bf1c      	itt	ne
     40a:	4063      	eorne	r3, r4
     40c:	b29b      	uxthne	r3, r3
     40e:	ea4f 0859 	mov.w	r8, r9, lsr #1
     412:	ea83 0908 	eor.w	r9, r3, r8
     416:	085b      	lsrs	r3, r3, #1
     418:	f019 0f01 	tst.w	r9, #1
     41c:	bf1c      	itt	ne
     41e:	4063      	eorne	r3, r4
     420:	b29b      	uxthne	r3, r3
     422:	ea4f 0858 	mov.w	r8, r8, lsr #1
     426:	ea83 0908 	eor.w	r9, r3, r8
     42a:	085b      	lsrs	r3, r3, #1
     42c:	f019 0f01 	tst.w	r9, #1
     430:	bf1c      	itt	ne
     432:	4063      	eorne	r3, r4
     434:	b29b      	uxthne	r3, r3
     436:	ea4f 0858 	mov.w	r8, r8, lsr #1
     43a:	ea83 0908 	eor.w	r9, r3, r8
     43e:	085b      	lsrs	r3, r3, #1
     440:	f019 0f01 	tst.w	r9, #1
     444:	bf1c      	itt	ne
     446:	4063      	eorne	r3, r4
     448:	b29b      	uxthne	r3, r3
     44a:	ea4f 0858 	mov.w	r8, r8, lsr #1
     44e:	ea83 0908 	eor.w	r9, r3, r8
     452:	085b      	lsrs	r3, r3, #1
     454:	f019 0f01 	tst.w	r9, #1
     458:	bf1c      	itt	ne
     45a:	4063      	eorne	r3, r4
     45c:	b29b      	uxthne	r3, r3
     45e:	ea4f 0858 	mov.w	r8, r8, lsr #1
     462:	ea83 0908 	eor.w	r9, r3, r8
     466:	085b      	lsrs	r3, r3, #1
     468:	f019 0f01 	tst.w	r9, #1
     46c:	bf1c      	itt	ne
     46e:	4063      	eorne	r3, r4
     470:	b29b      	uxthne	r3, r3
     472:	ea83 0858 	eor.w	r8, r3, r8, lsr #1
     476:	085b      	lsrs	r3, r3, #1
     478:	f018 0f01 	tst.w	r8, #1
     47c:	bf1c      	itt	ne
     47e:	4063      	eorne	r3, r4
     480:	b29b      	uxthne	r3, r3
     482:	42b5      	cmp	r5, r6
     484:	d1ab      	bne.n	3de <_lseek+0x1e>
     486:	f242 043f 	movw	r4, #8255	; 0x203f
     48a:	42a3      	cmp	r3, r4
     48c:	d112      	bne.n	4b4 <_lseek+0xf4>
     48e:	f8dc 3028 	ldr.w	r3, [ip, #40]	; 0x28
     492:	603b      	str	r3, [r7, #0]
     494:	3803      	subs	r0, #3
     496:	f853 0020 	ldr.w	r0, [r3, r0, lsl #2]
     49a:	b138      	cbz	r0, 4ac <_lseek+0xec>
     49c:	6803      	ldr	r3, [r0, #0]
     49e:	691b      	ldr	r3, [r3, #16]
     4a0:	4798      	blx	r3
     4a2:	e8bd 87f0 	ldmia.w	sp!, {r4, r5, r6, r7, r8, r9, sl, pc}
     4a6:	2000      	movs	r0, #0
     4a8:	e8bd 87f0 	ldmia.w	sp!, {r4, r5, r6, r7, r8, r9, sl, pc}
     4ac:	f04f 30ff 	mov.w	r0, #4294967295	; 0xffffffff
     4b0:	e8bd 87f0 	ldmia.w	sp!, {r4, r5, r6, r7, r8, r9, sl, pc}
     4b4:	4908      	ldr	r1, [pc, #32]	; (4d8 <_lseek+0x118>)
     4b6:	4809      	ldr	r0, [pc, #36]	; (4dc <_lseek+0x11c>)
     4b8:	680c      	ldr	r4, [r1, #0]
     4ba:	226b      	movs	r2, #107	; 0x6b
     4bc:	2101      	movs	r1, #1
     4be:	68e3      	ldr	r3, [r4, #12]
     4c0:	f002 fcd4 	bl	2e6c <fwrite>
     4c4:	2001      	movs	r0, #1
     4c6:	f00b fe75 	bl	c1b4 <exit>
     4ca:	bf00      	nop
     4cc:	100005b8 	.word	0x100005b8
     4d0:	0000bdbd 	.word	0x0000bdbd
     4d4:	ffffa001 	.word	0xffffa001
     4d8:	10000110 	.word	0x10000110
     4dc:	0000b1b0 	.word	0x0000b1b0

000004e0 <_read>:
     4e0:	b510      	push	{r4, lr}
     4e2:	4c0b      	ldr	r4, [pc, #44]	; (510 <_read+0x30>)
     4e4:	b082      	sub	sp, #8
     4e6:	6823      	ldr	r3, [r4, #0]
     4e8:	4614      	mov	r4, r2
     4ea:	b90b      	cbnz	r3, 4f0 <_read+0x10>
     4ec:	2802      	cmp	r0, #2
     4ee:	dd08      	ble.n	502 <_read+0x22>
     4f0:	4622      	mov	r2, r4
     4f2:	2300      	movs	r3, #0
     4f4:	f00b fc42 	bl	bd7c <_sys_read>
     4f8:	f020 4000 	bic.w	r0, r0, #2147483648	; 0x80000000
     4fc:	1a20      	subs	r0, r4, r0
     4fe:	b002      	add	sp, #8
     500:	bd10      	pop	{r4, pc}
     502:	9001      	str	r0, [sp, #4]
     504:	9100      	str	r1, [sp, #0]
     506:	f7ff ff13 	bl	330 <__GCC4MBEDOpenStandardHandles>
     50a:	9900      	ldr	r1, [sp, #0]
     50c:	9801      	ldr	r0, [sp, #4]
     50e:	e7ef      	b.n	4f0 <_read+0x10>
     510:	100005c0 	.word	0x100005c0

00000514 <_write>:
     514:	b510      	push	{r4, lr}
     516:	4c0c      	ldr	r4, [pc, #48]	; (548 <_write+0x34>)
     518:	b082      	sub	sp, #8
     51a:	6823      	ldr	r3, [r4, #0]
     51c:	4614      	mov	r4, r2
     51e:	b90b      	cbnz	r3, 524 <_write+0x10>
     520:	2802      	cmp	r0, #2
     522:	dd09      	ble.n	538 <_write+0x24>
     524:	2300      	movs	r3, #0
     526:	4622      	mov	r2, r4
     528:	f00b fc5e 	bl	bde8 <_sys_write>
     52c:	2800      	cmp	r0, #0
     52e:	bfa8      	it	ge
     530:	ebc0 0004 	rsbge	r0, r0, r4
     534:	b002      	add	sp, #8
     536:	bd10      	pop	{r4, pc}
     538:	9001      	str	r0, [sp, #4]
     53a:	9100      	str	r1, [sp, #0]
     53c:	f7ff fef8 	bl	330 <__GCC4MBEDOpenStandardHandles>
     540:	9900      	ldr	r1, [sp, #0]
     542:	9801      	ldr	r0, [sp, #4]
     544:	e7ee      	b.n	524 <_write+0x10>
     546:	bf00      	nop
     548:	100005c0 	.word	0x100005c0

0000054c <_fstat>:
     54c:	f44f 5300 	mov.w	r3, #8192	; 0x2000
     550:	604b      	str	r3, [r1, #4]
     552:	2000      	movs	r0, #0
     554:	4770      	bx	lr
     556:	bf00      	nop

00000558 <_Z11set_PinFunchhh>:
     558:	0040      	lsls	r0, r0, #1
     55a:	290f      	cmp	r1, #15
     55c:	b410      	push	{r4}
     55e:	d901      	bls.n	564 <_Z11set_PinFunchhh+0xc>
     560:	3910      	subs	r1, #16
     562:	3001      	adds	r0, #1
     564:	004b      	lsls	r3, r1, #1
     566:	2403      	movs	r4, #3
     568:	409c      	lsls	r4, r3
     56a:	409a      	lsls	r2, r3
     56c:	0080      	lsls	r0, r0, #2
     56e:	f100 4c80 	add.w	ip, r0, #1073741824	; 0x40000000
     572:	f50c 3030 	add.w	r0, ip, #180224	; 0x2c000
     576:	6801      	ldr	r1, [r0, #0]
     578:	ea21 0304 	bic.w	r3, r1, r4
     57c:	ea43 0102 	orr.w	r1, r3, r2
     580:	6001      	str	r1, [r0, #0]
     582:	bc10      	pop	{r4}
     584:	4770      	bx	lr
     586:	bf00      	nop

00000588 <_Z16set_ResistorModehhh>:
     588:	0040      	lsls	r0, r0, #1
     58a:	290f      	cmp	r1, #15
     58c:	b430      	push	{r4, r5}
     58e:	d901      	bls.n	594 <_Z16set_ResistorModehhh+0xc>
     590:	3910      	subs	r1, #16
     592:	3001      	adds	r0, #1
     594:	004c      	lsls	r4, r1, #1
     596:	2503      	movs	r5, #3
     598:	40a5      	lsls	r5, r4
     59a:	40a2      	lsls	r2, r4
     59c:	4b05      	ldr	r3, [pc, #20]	; (5b4 <_Z16set_ResistorModehhh+0x2c>)
     59e:	f853 4020 	ldr.w	r4, [r3, r0, lsl #2]
     5a2:	ea24 0c05 	bic.w	ip, r4, r5
     5a6:	ea4c 0102 	orr.w	r1, ip, r2
     5aa:	f843 1020 	str.w	r1, [r3, r0, lsl #2]
     5ae:	bc30      	pop	{r4, r5}
     5b0:	4770      	bx	lr
     5b2:	bf00      	nop
     5b4:	4002c040 	.word	0x4002c040

000005b8 <_Z17set_OpenDrainModehhh>:
     5b8:	2a01      	cmp	r2, #1
     5ba:	b410      	push	{r4}
     5bc:	d00b      	beq.n	5d6 <_Z17set_OpenDrainModehhh+0x1e>
     5be:	2401      	movs	r4, #1
     5c0:	fa14 f101 	lsls.w	r1, r4, r1
     5c4:	4b08      	ldr	r3, [pc, #32]	; (5e8 <_Z17set_OpenDrainModehhh+0x30>)
     5c6:	f853 4020 	ldr.w	r4, [r3, r0, lsl #2]
     5ca:	ea24 0201 	bic.w	r2, r4, r1
     5ce:	f843 2020 	str.w	r2, [r3, r0, lsl #2]
     5d2:	bc10      	pop	{r4}
     5d4:	4770      	bx	lr
     5d6:	408a      	lsls	r2, r1
     5d8:	4b03      	ldr	r3, [pc, #12]	; (5e8 <_Z17set_OpenDrainModehhh+0x30>)
     5da:	f853 1020 	ldr.w	r1, [r3, r0, lsl #2]
     5de:	ea41 0202 	orr.w	r2, r1, r2
     5e2:	f843 2020 	str.w	r2, [r3, r0, lsl #2]
     5e6:	e7f4      	b.n	5d2 <_Z17set_OpenDrainModehhh+0x1a>
     5e8:	4002c068 	.word	0x4002c068

000005ec <_Z16PINSEL_ConfigPinP15PINSEL_CFG_Type>:
     5ec:	b510      	push	{r4, lr}
     5ee:	4604      	mov	r4, r0
     5f0:	7861      	ldrb	r1, [r4, #1]
     5f2:	78a2      	ldrb	r2, [r4, #2]
     5f4:	7800      	ldrb	r0, [r0, #0]
     5f6:	f7ff ffaf 	bl	558 <_Z11set_PinFunchhh>
     5fa:	7820      	ldrb	r0, [r4, #0]
     5fc:	7861      	ldrb	r1, [r4, #1]
     5fe:	78e2      	ldrb	r2, [r4, #3]
     600:	f7ff ffc2 	bl	588 <_Z16set_ResistorModehhh>
     604:	7820      	ldrb	r0, [r4, #0]
     606:	7861      	ldrb	r1, [r4, #1]
     608:	7922      	ldrb	r2, [r4, #4]
     60a:	e8bd 4010 	ldmia.w	sp!, {r4, lr}
     60e:	f7ff bfd3 	b.w	5b8 <_Z17set_OpenDrainModehhh>
     612:	bf00      	nop

00000614 <_Z12setupSPIPinsv>:
     614:	b500      	push	{lr}
     616:	b083      	sub	sp, #12
     618:	2100      	movs	r1, #0
     61a:	2310      	movs	r3, #16
     61c:	2203      	movs	r2, #3
     61e:	4668      	mov	r0, sp
     620:	f88d 3001 	strb.w	r3, [sp, #1]
     624:	f88d 1004 	strb.w	r1, [sp, #4]
     628:	f88d 1003 	strb.w	r1, [sp, #3]
     62c:	f88d 1000 	strb.w	r1, [sp]
     630:	f88d 2002 	strb.w	r2, [sp, #2]
     634:	f7ff ffda 	bl	5ec <_Z16PINSEL_ConfigPinP15PINSEL_CFG_Type>
     638:	2212      	movs	r2, #18
     63a:	4668      	mov	r0, sp
     63c:	f88d 2001 	strb.w	r2, [sp, #1]
     640:	f7ff ffd4 	bl	5ec <_Z16PINSEL_ConfigPinP15PINSEL_CFG_Type>
     644:	4668      	mov	r0, sp
     646:	2111      	movs	r1, #17
     648:	f88d 1001 	strb.w	r1, [sp, #1]
     64c:	f7ff ffce 	bl	5ec <_Z16PINSEL_ConfigPinP15PINSEL_CFG_Type>
     650:	230f      	movs	r3, #15
     652:	4668      	mov	r0, sp
     654:	f88d 3001 	strb.w	r3, [sp, #1]
     658:	f7ff ffc8 	bl	5ec <_Z16PINSEL_ConfigPinP15PINSEL_CFG_Type>
     65c:	b003      	add	sp, #12
     65e:	bd00      	pop	{pc}

00000660 <_Z14setup_uartPinsv>:
     660:	b510      	push	{r4, lr}
     662:	b082      	sub	sp, #8
     664:	2302      	movs	r3, #2
     666:	2400      	movs	r4, #0
     668:	2201      	movs	r2, #1
     66a:	4668      	mov	r0, sp
     66c:	f88d 3002 	strb.w	r3, [sp, #2]
     670:	f88d 2001 	strb.w	r2, [sp, #1]
     674:	f88d 4004 	strb.w	r4, [sp, #4]
     678:	f88d 4003 	strb.w	r4, [sp, #3]
     67c:	f88d 4000 	strb.w	r4, [sp]
     680:	f7ff ffb4 	bl	5ec <_Z16PINSEL_ConfigPinP15PINSEL_CFG_Type>
     684:	4668      	mov	r0, sp
     686:	f88d 4001 	strb.w	r4, [sp, #1]
     68a:	f7ff ffaf 	bl	5ec <_Z16PINSEL_ConfigPinP15PINSEL_CFG_Type>
     68e:	4668      	mov	r0, sp
     690:	210b      	movs	r1, #11
     692:	f88d 1001 	strb.w	r1, [sp, #1]
     696:	f7ff ffa9 	bl	5ec <_Z16PINSEL_ConfigPinP15PINSEL_CFG_Type>
     69a:	230a      	movs	r3, #10
     69c:	4668      	mov	r0, sp
     69e:	f88d 3001 	strb.w	r3, [sp, #1]
     6a2:	f7ff ffa3 	bl	5ec <_Z16PINSEL_ConfigPinP15PINSEL_CFG_Type>
     6a6:	b002      	add	sp, #8
     6a8:	bd10      	pop	{r4, pc}
     6aa:	bf00      	nop

000006ac <_Z11GPIO_SetDirhmh>:
     6ac:	2804      	cmp	r0, #4
     6ae:	d80a      	bhi.n	6c6 <_Z11GPIO_SetDirhmh+0x1a>
     6b0:	4b09      	ldr	r3, [pc, #36]	; (6d8 <_Z11GPIO_SetDirhmh+0x2c>)
     6b2:	f853 3020 	ldr.w	r3, [r3, r0, lsl #2]
     6b6:	b133      	cbz	r3, 6c6 <_Z11GPIO_SetDirhmh+0x1a>
     6b8:	b932      	cbnz	r2, 6c8 <_Z11GPIO_SetDirhmh+0x1c>
     6ba:	2001      	movs	r0, #1
     6bc:	4088      	lsls	r0, r1
     6be:	681a      	ldr	r2, [r3, #0]
     6c0:	ea22 0100 	bic.w	r1, r2, r0
     6c4:	6019      	str	r1, [r3, #0]
     6c6:	4770      	bx	lr
     6c8:	2001      	movs	r0, #1
     6ca:	4088      	lsls	r0, r1
     6cc:	681a      	ldr	r2, [r3, #0]
     6ce:	ea40 0102 	orr.w	r1, r0, r2
     6d2:	6019      	str	r1, [r3, #0]
     6d4:	4770      	bx	lr
     6d6:	bf00      	nop
     6d8:	0000b21c 	.word	0x0000b21c

000006dc <_Z7initLEDv>:
     6dc:	e92d 41f0 	stmdb	sp!, {r4, r5, r6, r7, r8, lr}
     6e0:	4f27      	ldr	r7, [pc, #156]	; (780 <_Z7initLEDv+0xa4>)
     6e2:	b082      	sub	sp, #8
     6e4:	f8d7 30c4 	ldr.w	r3, [r7, #196]	; 0xc4
     6e8:	2401      	movs	r4, #1
     6ea:	f443 4600 	orr.w	r6, r3, #32768	; 0x8000
     6ee:	f8c7 60c4 	str.w	r6, [r7, #196]	; 0xc4
     6f2:	2500      	movs	r5, #0
     6f4:	f04f 0812 	mov.w	r8, #18
     6f8:	4668      	mov	r0, sp
     6fa:	2714      	movs	r7, #20
     6fc:	f88d 5004 	strb.w	r5, [sp, #4]
     700:	f88d 5003 	strb.w	r5, [sp, #3]
     704:	f88d 5002 	strb.w	r5, [sp, #2]
     708:	f88d 4000 	strb.w	r4, [sp]
     70c:	f88d 8001 	strb.w	r8, [sp, #1]
     710:	f7ff ff6c 	bl	5ec <_Z16PINSEL_ConfigPinP15PINSEL_CFG_Type>
     714:	4668      	mov	r0, sp
     716:	2615      	movs	r6, #21
     718:	f88d 7001 	strb.w	r7, [sp, #1]
     71c:	f7ff ff66 	bl	5ec <_Z16PINSEL_ConfigPinP15PINSEL_CFG_Type>
     720:	4668      	mov	r0, sp
     722:	2517      	movs	r5, #23
     724:	f88d 6001 	strb.w	r6, [sp, #1]
     728:	f7ff ff60 	bl	5ec <_Z16PINSEL_ConfigPinP15PINSEL_CFG_Type>
     72c:	4668      	mov	r0, sp
     72e:	f88d 5001 	strb.w	r5, [sp, #1]
     732:	f7ff ff5b 	bl	5ec <_Z16PINSEL_ConfigPinP15PINSEL_CFG_Type>
     736:	4620      	mov	r0, r4
     738:	4641      	mov	r1, r8
     73a:	4622      	mov	r2, r4
     73c:	f7ff ffb6 	bl	6ac <_Z11GPIO_SetDirhmh>
     740:	4620      	mov	r0, r4
     742:	4639      	mov	r1, r7
     744:	4622      	mov	r2, r4
     746:	f7ff ffb1 	bl	6ac <_Z11GPIO_SetDirhmh>
     74a:	4620      	mov	r0, r4
     74c:	4631      	mov	r1, r6
     74e:	4622      	mov	r2, r4
     750:	f7ff ffac 	bl	6ac <_Z11GPIO_SetDirhmh>
     754:	4620      	mov	r0, r4
     756:	4629      	mov	r1, r5
     758:	4622      	mov	r2, r4
     75a:	f7ff ffa7 	bl	6ac <_Z11GPIO_SetDirhmh>
     75e:	4b09      	ldr	r3, [pc, #36]	; (784 <_Z7initLEDv+0xa8>)
     760:	f44f 2280 	mov.w	r2, #262144	; 0x40000
     764:	61da      	str	r2, [r3, #28]
     766:	f44f 1180 	mov.w	r1, #1048576	; 0x100000
     76a:	f44f 1000 	mov.w	r0, #2097152	; 0x200000
     76e:	f44f 0200 	mov.w	r2, #8388608	; 0x800000
     772:	61d9      	str	r1, [r3, #28]
     774:	61d8      	str	r0, [r3, #28]
     776:	61da      	str	r2, [r3, #28]
     778:	b002      	add	sp, #8
     77a:	e8bd 81f0 	ldmia.w	sp!, {r4, r5, r6, r7, r8, pc}
     77e:	bf00      	nop
     780:	400fc000 	.word	0x400fc000
     784:	2009c020 	.word	0x2009c020

00000788 <_Z9PORT_INITv>:
     788:	b510      	push	{r4, lr}
     78a:	f7ff ffa7 	bl	6dc <_Z7initLEDv>
     78e:	f7ff ff41 	bl	614 <_Z12setupSPIPinsv>
     792:	e8bd 4010 	ldmia.w	sp!, {r4, lr}
     796:	f7ff bf63 	b.w	660 <_Z14setup_uartPinsv>
     79a:	bf00      	nop

0000079c <_Z15nrk_setup_portsv>:
     79c:	f7ff bff4 	b.w	788 <_Z9PORT_INITv>

000007a0 <_Z12nrk_gpio_setm>:
     7a0:	28ff      	cmp	r0, #255	; 0xff
     7a2:	d101      	bne.n	7a8 <_Z12nrk_gpio_setm+0x8>
     7a4:	b240      	sxtb	r0, r0
     7a6:	4770      	bx	lr
     7a8:	2817      	cmp	r0, #23
     7aa:	d80a      	bhi.n	7c2 <_Z12nrk_gpio_setm+0x22>
     7ac:	f44f 5334 	mov.w	r3, #11520	; 0x2d00
     7b0:	4083      	lsls	r3, r0
     7b2:	d506      	bpl.n	7c2 <_Z12nrk_gpio_setm+0x22>
     7b4:	2301      	movs	r3, #1
     7b6:	fa13 f200 	lsls.w	r2, r3, r0
     7ba:	4903      	ldr	r1, [pc, #12]	; (7c8 <_Z12nrk_gpio_setm+0x28>)
     7bc:	4618      	mov	r0, r3
     7be:	618a      	str	r2, [r1, #24]
     7c0:	e7f0      	b.n	7a4 <_Z12nrk_gpio_setm+0x4>
     7c2:	20ff      	movs	r0, #255	; 0xff
     7c4:	e7ee      	b.n	7a4 <_Z12nrk_gpio_setm+0x4>
     7c6:	bf00      	nop
     7c8:	2009c020 	.word	0x2009c020

000007cc <_Z11nrk_led_seti>:
     7cc:	b510      	push	{r4, lr}
     7ce:	4604      	mov	r4, r0
     7d0:	b148      	cbz	r0, 7e6 <_Z11nrk_led_seti+0x1a>
     7d2:	2801      	cmp	r0, #1
     7d4:	d012      	beq.n	7fc <_Z11nrk_led_seti+0x30>
     7d6:	2802      	cmp	r0, #2
     7d8:	d10b      	bne.n	7f2 <_Z11nrk_led_seti+0x26>
     7da:	2015      	movs	r0, #21
     7dc:	f7ff ffe0 	bl	7a0 <_Z12nrk_gpio_setm>
     7e0:	2001      	movs	r0, #1
     7e2:	b240      	sxtb	r0, r0
     7e4:	bd10      	pop	{r4, pc}
     7e6:	2012      	movs	r0, #18
     7e8:	f7ff ffda 	bl	7a0 <_Z12nrk_gpio_setm>
     7ec:	2001      	movs	r0, #1
     7ee:	b240      	sxtb	r0, r0
     7f0:	bd10      	pop	{r4, pc}
     7f2:	2803      	cmp	r0, #3
     7f4:	d007      	beq.n	806 <_Z11nrk_led_seti+0x3a>
     7f6:	20ff      	movs	r0, #255	; 0xff
     7f8:	b240      	sxtb	r0, r0
     7fa:	bd10      	pop	{r4, pc}
     7fc:	2014      	movs	r0, #20
     7fe:	f7ff ffcf 	bl	7a0 <_Z12nrk_gpio_setm>
     802:	4620      	mov	r0, r4
     804:	e7ed      	b.n	7e2 <_Z11nrk_led_seti+0x16>
     806:	2017      	movs	r0, #23
     808:	f7ff ffca 	bl	7a0 <_Z12nrk_gpio_setm>
     80c:	2001      	movs	r0, #1
     80e:	e7e8      	b.n	7e2 <_Z11nrk_led_seti+0x16>

00000810 <nrk_start_high_ready_task>:
     810:	4834      	ldr	r0, [pc, #208]	; (8e4 <SVC_Handler+0x12>)
     812:	6800      	ldr	r0, [r0, #0]
     814:	6800      	ldr	r0, [r0, #0]
     816:	f380 8808 	msr	MSP, r0
     81a:	b662      	cpsie	i
     81c:	df00      	svc	0

0000081e <_nrk_spin_wait_us>:
     81e:	46c0      	nop			; (mov r8, r8)
     820:	46c0      	nop			; (mov r8, r8)
     822:	46c0      	nop			; (mov r8, r8)
     824:	46c0      	nop			; (mov r8, r8)
     826:	46c0      	nop			; (mov r8, r8)
     828:	46c0      	nop			; (mov r8, r8)
     82a:	46c0      	nop			; (mov r8, r8)
     82c:	46c0      	nop			; (mov r8, r8)
     82e:	46c0      	nop			; (mov r8, r8)
     830:	46c0      	nop			; (mov r8, r8)
     832:	46c0      	nop			; (mov r8, r8)
     834:	46c0      	nop			; (mov r8, r8)
     836:	46c0      	nop			; (mov r8, r8)
     838:	46c0      	nop			; (mov r8, r8)
     83a:	46c0      	nop			; (mov r8, r8)
     83c:	46c0      	nop			; (mov r8, r8)
     83e:	46c0      	nop			; (mov r8, r8)
     840:	46c0      	nop			; (mov r8, r8)
     842:	46c0      	nop			; (mov r8, r8)
     844:	46c0      	nop			; (mov r8, r8)
     846:	46c0      	nop			; (mov r8, r8)
     848:	46c0      	nop			; (mov r8, r8)
     84a:	46c0      	nop			; (mov r8, r8)
     84c:	46c0      	nop			; (mov r8, r8)
     84e:	46c0      	nop			; (mov r8, r8)
     850:	46c0      	nop			; (mov r8, r8)
     852:	46c0      	nop			; (mov r8, r8)
     854:	46c0      	nop			; (mov r8, r8)
     856:	46c0      	nop			; (mov r8, r8)
     858:	46c0      	nop			; (mov r8, r8)
     85a:	46c0      	nop			; (mov r8, r8)
     85c:	46c0      	nop			; (mov r8, r8)
     85e:	46c0      	nop			; (mov r8, r8)
     860:	46c0      	nop			; (mov r8, r8)
     862:	46c0      	nop			; (mov r8, r8)
     864:	46c0      	nop			; (mov r8, r8)
     866:	46c0      	nop			; (mov r8, r8)
     868:	46c0      	nop			; (mov r8, r8)
     86a:	46c0      	nop			; (mov r8, r8)
     86c:	46c0      	nop			; (mov r8, r8)
     86e:	46c0      	nop			; (mov r8, r8)
     870:	46c0      	nop			; (mov r8, r8)
     872:	46c0      	nop			; (mov r8, r8)
     874:	46c0      	nop			; (mov r8, r8)
     876:	46c0      	nop			; (mov r8, r8)
     878:	46c0      	nop			; (mov r8, r8)
     87a:	46c0      	nop			; (mov r8, r8)
     87c:	46c0      	nop			; (mov r8, r8)
     87e:	46c0      	nop			; (mov r8, r8)
     880:	46c0      	nop			; (mov r8, r8)
     882:	46c0      	nop			; (mov r8, r8)
     884:	46c0      	nop			; (mov r8, r8)
     886:	46c0      	nop			; (mov r8, r8)
     888:	46c0      	nop			; (mov r8, r8)
     88a:	46c0      	nop			; (mov r8, r8)
     88c:	46c0      	nop			; (mov r8, r8)
     88e:	46c0      	nop			; (mov r8, r8)
     890:	46c0      	nop			; (mov r8, r8)
     892:	46c0      	nop			; (mov r8, r8)
     894:	46c0      	nop			; (mov r8, r8)
     896:	46c0      	nop			; (mov r8, r8)
     898:	46c0      	nop			; (mov r8, r8)
     89a:	46c0      	nop			; (mov r8, r8)
     89c:	46c0      	nop			; (mov r8, r8)
     89e:	46c0      	nop			; (mov r8, r8)
     8a0:	46c0      	nop			; (mov r8, r8)
     8a2:	46c0      	nop			; (mov r8, r8)
     8a4:	46c0      	nop			; (mov r8, r8)
     8a6:	46c0      	nop			; (mov r8, r8)
     8a8:	46c0      	nop			; (mov r8, r8)
     8aa:	46c0      	nop			; (mov r8, r8)
     8ac:	46c0      	nop			; (mov r8, r8)
     8ae:	46c0      	nop			; (mov r8, r8)
     8b0:	46c0      	nop			; (mov r8, r8)
     8b2:	46c0      	nop			; (mov r8, r8)
     8b4:	46c0      	nop			; (mov r8, r8)
     8b6:	46c0      	nop			; (mov r8, r8)
     8b8:	46c0      	nop			; (mov r8, r8)
     8ba:	46c0      	nop			; (mov r8, r8)
     8bc:	46c0      	nop			; (mov r8, r8)
     8be:	46c0      	nop			; (mov r8, r8)
     8c0:	46c0      	nop			; (mov r8, r8)
     8c2:	46c0      	nop			; (mov r8, r8)
     8c4:	46c0      	nop			; (mov r8, r8)
     8c6:	46c0      	nop			; (mov r8, r8)
     8c8:	46c0      	nop			; (mov r8, r8)
     8ca:	46c0      	nop			; (mov r8, r8)
     8cc:	46c0      	nop			; (mov r8, r8)
     8ce:	46c0      	nop			; (mov r8, r8)
     8d0:	46c0      	nop			; (mov r8, r8)

000008d2 <SVC_Handler>:
     8d2:	4b05      	ldr	r3, [pc, #20]	; (8e8 <SVC_Handler+0x16>)
     8d4:	6819      	ldr	r1, [r3, #0]
     8d6:	6808      	ldr	r0, [r1, #0]
     8d8:	f380 8809 	msr	PSP, r0
     8dc:	f380 8811 	msr	BASEPRI, r0
     8e0:	4770      	bx	lr
     8e2:	0000      	.short	0x0000
     8e4:	e000ed08 	.word	0xe000ed08
     8e8:	100005c4 	.word	0x100005c4

000008ec <main>:
     8ec:	b510      	push	{r4, lr}
     8ee:	4806      	ldr	r0, [pc, #24]	; (908 <main+0x1c>)
     8f0:	f002 fd38 	bl	3364 <printf>
     8f4:	f7ff ff52 	bl	79c <_Z15nrk_setup_portsv>
     8f8:	4c04      	ldr	r4, [pc, #16]	; (90c <main+0x20>)
     8fa:	6963      	ldr	r3, [r4, #20]
     8fc:	69a2      	ldr	r2, [r4, #24]
     8fe:	2001      	movs	r0, #1
     900:	619a      	str	r2, [r3, #24]
     902:	f7ff ff63 	bl	7cc <_Z11nrk_led_seti>
     906:	e7f8      	b.n	8fa <main+0xe>
     908:	0000b278 	.word	0x0000b278
     90c:	100005c8 	.word	0x100005c8

00000910 <_GLOBAL__I_Stack1>:
     910:	e92d 41f0 	stmdb	sp!, {r4, r5, r6, r7, r8, lr}
     914:	4f0c      	ldr	r7, [pc, #48]	; (948 <_GLOBAL__I_Stack1+0x38>)
     916:	4d0d      	ldr	r5, [pc, #52]	; (94c <_GLOBAL__I_Stack1+0x3c>)
     918:	4c0d      	ldr	r4, [pc, #52]	; (950 <_GLOBAL__I_Stack1+0x40>)
     91a:	2200      	movs	r2, #0
     91c:	4e0d      	ldr	r6, [pc, #52]	; (954 <_GLOBAL__I_Stack1+0x44>)
     91e:	490e      	ldr	r1, [pc, #56]	; (958 <_GLOBAL__I_Stack1+0x48>)
     920:	4638      	mov	r0, r7
     922:	f00a ff4f 	bl	b7c4 <_ZN4mbed10DigitalOutC1E7PinNamePKc>
     926:	4629      	mov	r1, r5
     928:	4622      	mov	r2, r4
     92a:	4638      	mov	r0, r7
     92c:	f000 f82a 	bl	984 <__aeabi_atexit>
     930:	2200      	movs	r2, #0
     932:	4630      	mov	r0, r6
     934:	4909      	ldr	r1, [pc, #36]	; (95c <_GLOBAL__I_Stack1+0x4c>)
     936:	f00a ff45 	bl	b7c4 <_ZN4mbed10DigitalOutC1E7PinNamePKc>
     93a:	4630      	mov	r0, r6
     93c:	4629      	mov	r1, r5
     93e:	4622      	mov	r2, r4
     940:	e8bd 41f0 	ldmia.w	sp!, {r4, r5, r6, r7, r8, lr}
     944:	f000 b81e 	b.w	984 <__aeabi_atexit>
     948:	100005c8 	.word	0x100005c8
     94c:	0000b801 	.word	0x0000b801
     950:	10000000 	.word	0x10000000
     954:	100005e4 	.word	0x100005e4
     958:	2009c032 	.word	0x2009c032
     95c:	2009c034 	.word	0x2009c034

00000960 <Reset_Handler>:
     960:	4806      	ldr	r0, [pc, #24]	; (97c <ADC_IRQHandler+0x2>)
     962:	4780      	blx	r0
     964:	4806      	ldr	r0, [pc, #24]	; (980 <ADC_IRQHandler+0x6>)
     966:	4700      	bx	r0

00000968 <NMI_Handler>:
     968:	e7fe      	b.n	968 <NMI_Handler>

0000096a <HardFault_Handler>:
     96a:	e7fe      	b.n	96a <HardFault_Handler>

0000096c <MemManage_Handler>:
     96c:	e7fe      	b.n	96c <MemManage_Handler>

0000096e <BusFault_Handler>:
     96e:	e7fe      	b.n	96e <BusFault_Handler>

00000970 <UsageFault_Handler>:
     970:	e7fe      	b.n	970 <UsageFault_Handler>
     972:	e7fe      	b.n	972 <UsageFault_Handler+0x2>

00000974 <DebugMon_Handler>:
     974:	e7fe      	b.n	974 <DebugMon_Handler>

00000976 <PendSV_Handler>:
     976:	e7fe      	b.n	976 <PendSV_Handler>

00000978 <SysTick_Handler>:
     978:	e7fe      	b.n	978 <SysTick_Handler>

0000097a <ADC_IRQHandler>:
     97a:	e7fe      	b.n	97a <ADC_IRQHandler>
     97c:	000001cd 	.word	0x000001cd
     980:	000000c5 	.word	0x000000c5

00000984 <__aeabi_atexit>:
     984:	4603      	mov	r3, r0
     986:	4608      	mov	r0, r1
     988:	4619      	mov	r1, r3
     98a:	f002 b8bf 	b.w	2b0c <__cxa_atexit>

0000098e <_ZNK10__cxxabiv117__class_type_info20__do_find_public_srcEiPKvPKS0_S2_>:
     98e:	9800      	ldr	r0, [sp, #0]
     990:	4290      	cmp	r0, r2
     992:	bf14      	ite	ne
     994:	2001      	movne	r0, #1
     996:	2006      	moveq	r0, #6
     998:	4770      	bx	lr

0000099a <_ZNK10__cxxabiv117__class_type_info11__do_upcastEPKS0_PKvRNS0_15__upcast_resultE>:
     99a:	b538      	push	{r3, r4, r5, lr}
     99c:	4614      	mov	r4, r2
     99e:	461d      	mov	r5, r3
     9a0:	f000 f993 	bl	cca <_ZNKSt9type_infoeqERKS_>
     9a4:	b128      	cbz	r0, 9b2 <_ZNK10__cxxabiv117__class_type_info11__do_upcastEPKS0_PKvRNS0_15__upcast_resultE+0x18>
     9a6:	2001      	movs	r0, #1
     9a8:	2308      	movs	r3, #8
     9aa:	602c      	str	r4, [r5, #0]
     9ac:	60eb      	str	r3, [r5, #12]
     9ae:	3b02      	subs	r3, #2
     9b0:	712b      	strb	r3, [r5, #4]
     9b2:	bd38      	pop	{r3, r4, r5, pc}

000009b4 <_ZNK10__cxxabiv117__class_type_info12__do_dyncastEiNS0_10__sub_kindEPKS0_PKvS3_S5_RNS0_16__dyncast_resultE>:
     9b4:	e92d 41f0 	stmdb	sp!, {r4, r5, r6, r7, r8, lr}
     9b8:	4698      	mov	r8, r3
     9ba:	9f06      	ldr	r7, [sp, #24]
     9bc:	4604      	mov	r4, r0
     9be:	9b08      	ldr	r3, [sp, #32]
     9c0:	4615      	mov	r5, r2
     9c2:	9e09      	ldr	r6, [sp, #36]	; 0x24
     9c4:	429f      	cmp	r7, r3
     9c6:	d10c      	bne.n	9e2 <_ZNK10__cxxabiv117__class_type_info12__do_dyncastEiNS0_10__sub_kindEPKS0_PKvS3_S5_RNS0_16__dyncast_resultE+0x2e>
     9c8:	9907      	ldr	r1, [sp, #28]
     9ca:	f000 f97e 	bl	cca <_ZNKSt9type_infoeqERKS_>
     9ce:	b140      	cbz	r0, 9e2 <_ZNK10__cxxabiv117__class_type_info12__do_dyncastEiNS0_10__sub_kindEPKS0_PKvS3_S5_RNS0_16__dyncast_resultE+0x2e>
     9d0:	7175      	strb	r5, [r6, #5]
     9d2:	e003      	b.n	9dc <_ZNK10__cxxabiv117__class_type_info12__do_dyncastEiNS0_10__sub_kindEPKS0_PKvS3_S5_RNS0_16__dyncast_resultE+0x28>
     9d4:	2301      	movs	r3, #1
     9d6:	6037      	str	r7, [r6, #0]
     9d8:	7135      	strb	r5, [r6, #4]
     9da:	71b3      	strb	r3, [r6, #6]
     9dc:	2000      	movs	r0, #0
     9de:	e8bd 81f0 	ldmia.w	sp!, {r4, r5, r6, r7, r8, pc}
     9e2:	4620      	mov	r0, r4
     9e4:	4641      	mov	r1, r8
     9e6:	f000 f970 	bl	cca <_ZNKSt9type_infoeqERKS_>
     9ea:	2800      	cmp	r0, #0
     9ec:	d1f2      	bne.n	9d4 <_ZNK10__cxxabiv117__class_type_info12__do_dyncastEiNS0_10__sub_kindEPKS0_PKvS3_S5_RNS0_16__dyncast_resultE+0x20>
     9ee:	e7f5      	b.n	9dc <_ZNK10__cxxabiv117__class_type_info12__do_dyncastEiNS0_10__sub_kindEPKS0_PKvS3_S5_RNS0_16__dyncast_resultE+0x28>

000009f0 <_ZNK10__cxxabiv117__class_type_info10__do_catchEPKSt9type_infoPPvj>:
     9f0:	b5f8      	push	{r3, r4, r5, r6, r7, lr}
     9f2:	4605      	mov	r5, r0
     9f4:	460c      	mov	r4, r1
     9f6:	4616      	mov	r6, r2
     9f8:	461f      	mov	r7, r3
     9fa:	f000 f966 	bl	cca <_ZNKSt9type_infoeqERKS_>
     9fe:	b940      	cbnz	r0, a12 <_ZNK10__cxxabiv117__class_type_info10__do_catchEPKSt9type_infoPPvj+0x22>
     a00:	2f03      	cmp	r7, #3
     a02:	d807      	bhi.n	a14 <_ZNK10__cxxabiv117__class_type_info10__do_catchEPKSt9type_infoPPvj+0x24>
     a04:	6823      	ldr	r3, [r4, #0]
     a06:	4620      	mov	r0, r4
     a08:	4629      	mov	r1, r5
     a0a:	4632      	mov	r2, r6
     a0c:	695b      	ldr	r3, [r3, #20]
     a0e:	4798      	blx	r3
     a10:	bdf8      	pop	{r3, r4, r5, r6, r7, pc}
     a12:	2001      	movs	r0, #1
     a14:	bdf8      	pop	{r3, r4, r5, r6, r7, pc}
	...

00000a18 <_ZN10__cxxabiv117__class_type_infoD1Ev>:
     a18:	4b03      	ldr	r3, [pc, #12]	; (a28 <_ZN10__cxxabiv117__class_type_infoD1Ev+0x10>)
     a1a:	b510      	push	{r4, lr}
     a1c:	4604      	mov	r4, r0
     a1e:	6003      	str	r3, [r0, #0]
     a20:	f000 f938 	bl	c94 <_ZNSt9type_infoD1Ev>
     a24:	4620      	mov	r0, r4
     a26:	bd10      	pop	{r4, pc}
     a28:	0000b288 	.word	0x0000b288

00000a2c <_ZN10__cxxabiv117__class_type_infoD0Ev>:
     a2c:	b510      	push	{r4, lr}
     a2e:	4604      	mov	r4, r0
     a30:	f7ff fff2 	bl	a18 <_ZN10__cxxabiv117__class_type_infoD1Ev>
     a34:	4620      	mov	r0, r4
     a36:	f000 f825 	bl	a84 <_ZdlPv>
     a3a:	4620      	mov	r0, r4
     a3c:	bd10      	pop	{r4, pc}

00000a3e <_ZN10__cxxabiv117__class_type_info15__upcast_resultC1Ei>:
     a3e:	2200      	movs	r2, #0
     a40:	6081      	str	r1, [r0, #8]
     a42:	6002      	str	r2, [r0, #0]
     a44:	7102      	strb	r2, [r0, #4]
     a46:	60c2      	str	r2, [r0, #12]
     a48:	4770      	bx	lr

00000a4a <_ZNK10__cxxabiv117__class_type_info11__do_upcastEPKS0_PPv>:
     a4a:	b5f0      	push	{r4, r5, r6, r7, lr}
     a4c:	4606      	mov	r6, r0
     a4e:	b085      	sub	sp, #20
     a50:	460f      	mov	r7, r1
     a52:	4668      	mov	r0, sp
     a54:	2110      	movs	r1, #16
     a56:	4614      	mov	r4, r2
     a58:	f7ff fff1 	bl	a3e <_ZN10__cxxabiv117__class_type_info15__upcast_resultC1Ei>
     a5c:	6833      	ldr	r3, [r6, #0]
     a5e:	4630      	mov	r0, r6
     a60:	4639      	mov	r1, r7
     a62:	6822      	ldr	r2, [r4, #0]
     a64:	699d      	ldr	r5, [r3, #24]
     a66:	466b      	mov	r3, sp
     a68:	47a8      	blx	r5
     a6a:	f89d 3004 	ldrb.w	r3, [sp, #4]
     a6e:	f003 0306 	and.w	r3, r3, #6
     a72:	2b06      	cmp	r3, #6
     a74:	d103      	bne.n	a7e <_ZNK10__cxxabiv117__class_type_info11__do_upcastEPKS0_PPv+0x34>
     a76:	9b00      	ldr	r3, [sp, #0]
     a78:	2001      	movs	r0, #1
     a7a:	6023      	str	r3, [r4, #0]
     a7c:	e000      	b.n	a80 <_ZNK10__cxxabiv117__class_type_info11__do_upcastEPKS0_PPv+0x36>
     a7e:	2000      	movs	r0, #0
     a80:	b005      	add	sp, #20
     a82:	bdf0      	pop	{r4, r5, r6, r7, pc}

00000a84 <_ZdlPv>:
     a84:	b108      	cbz	r0, a8a <_ZdlPv+0x6>
     a86:	f002 ba2d 	b.w	2ee4 <free>
     a8a:	4770      	bx	lr

00000a8c <_ZdaPv>:
     a8c:	f7ff bffa 	b.w	a84 <_ZdlPv>

00000a90 <_ZN10__cxxabiv112_GLOBAL__N_118contained_public_pENS_17__class_type_info10__sub_kindE>:
     a90:	f000 0006 	and.w	r0, r0, #6
     a94:	f1a0 0306 	sub.w	r3, r0, #6
     a98:	4258      	negs	r0, r3
     a9a:	eb40 0003 	adc.w	r0, r0, r3
     a9e:	4770      	bx	lr

00000aa0 <_ZN10__cxxabiv112_GLOBAL__N_114adjust_pointerIvEEPKT_PKvi>:
     aa0:	1840      	adds	r0, r0, r1
     aa2:	4770      	bx	lr

00000aa4 <_ZN10__cxxabiv117__class_type_info16__dyncast_resultC1Ei>:
     aa4:	2200      	movs	r2, #0
     aa6:	6081      	str	r1, [r0, #8]
     aa8:	6002      	str	r2, [r0, #0]
     aaa:	7102      	strb	r2, [r0, #4]
     aac:	7142      	strb	r2, [r0, #5]
     aae:	7182      	strb	r2, [r0, #6]
     ab0:	4770      	bx	lr

00000ab2 <_ZNK10__cxxabiv117__class_type_info17__find_public_srcEiPKvPKS0_S2_>:
     ab2:	b5f7      	push	{r0, r1, r2, r4, r5, r6, r7, lr}
     ab4:	1e0e      	subs	r6, r1, #0
     ab6:	9c08      	ldr	r4, [sp, #32]
     ab8:	db07      	blt.n	aca <_ZNK10__cxxabiv117__class_type_info17__find_public_srcEiPKvPKS0_S2_+0x18>
     aba:	4610      	mov	r0, r2
     abc:	f7ff fff0 	bl	aa0 <_ZN10__cxxabiv112_GLOBAL__N_114adjust_pointerIvEEPKT_PKvi>
     ac0:	4284      	cmp	r4, r0
     ac2:	bf14      	ite	ne
     ac4:	2001      	movne	r0, #1
     ac6:	2006      	moveq	r0, #6
     ac8:	e008      	b.n	adc <_ZNK10__cxxabiv117__class_type_info17__find_public_srcEiPKvPKS0_S2_+0x2a>
     aca:	f116 0f02 	cmn.w	r6, #2
     ace:	d004      	beq.n	ada <_ZNK10__cxxabiv117__class_type_info17__find_public_srcEiPKvPKS0_S2_+0x28>
     ad0:	6805      	ldr	r5, [r0, #0]
     ad2:	9400      	str	r4, [sp, #0]
     ad4:	6a2c      	ldr	r4, [r5, #32]
     ad6:	47a0      	blx	r4
     ad8:	e000      	b.n	adc <_ZNK10__cxxabiv117__class_type_info17__find_public_srcEiPKvPKS0_S2_+0x2a>
     ada:	2001      	movs	r0, #1
     adc:	bdfe      	pop	{r1, r2, r3, r4, r5, r6, r7, pc}

00000ade <__dynamic_cast>:
     ade:	e92d 47f0 	stmdb	sp!, {r4, r5, r6, r7, r8, r9, sl, lr}
     ae2:	461d      	mov	r5, r3
     ae4:	6803      	ldr	r3, [r0, #0]
     ae6:	b088      	sub	sp, #32
     ae8:	4688      	mov	r8, r1
     aea:	4616      	mov	r6, r2
     aec:	f1a3 0708 	sub.w	r7, r3, #8
     af0:	4604      	mov	r4, r0
     af2:	f853 1c08 	ldr.w	r1, [r3, #-8]
     af6:	f7ff ffd3 	bl	aa0 <_ZN10__cxxabiv112_GLOBAL__N_114adjust_pointerIvEEPKT_PKvi>
     afa:	f8d7 9004 	ldr.w	r9, [r7, #4]
     afe:	af05      	add	r7, sp, #20
     b00:	2110      	movs	r1, #16
     b02:	4682      	mov	sl, r0
     b04:	4638      	mov	r0, r7
     b06:	f7ff ffcd 	bl	aa4 <_ZN10__cxxabiv117__class_type_info16__dyncast_resultC1Ei>
     b0a:	f8d9 3000 	ldr.w	r3, [r9]
     b0e:	4648      	mov	r0, r9
     b10:	f8cd a000 	str.w	sl, [sp]
     b14:	f8cd 8004 	str.w	r8, [sp, #4]
     b18:	4629      	mov	r1, r5
     b1a:	9402      	str	r4, [sp, #8]
     b1c:	2206      	movs	r2, #6
     b1e:	9703      	str	r7, [sp, #12]
     b20:	69df      	ldr	r7, [r3, #28]
     b22:	4633      	mov	r3, r6
     b24:	47b8      	blx	r7
     b26:	9f05      	ldr	r7, [sp, #20]
     b28:	b33f      	cbz	r7, b7a <__dynamic_cast+0x9c>
     b2a:	f89d 901a 	ldrb.w	r9, [sp, #26]
     b2e:	4648      	mov	r0, r9
     b30:	f7ff ffae 	bl	a90 <_ZN10__cxxabiv112_GLOBAL__N_118contained_public_pENS_17__class_type_info10__sub_kindE>
     b34:	bb08      	cbnz	r0, b7a <__dynamic_cast+0x9c>
     b36:	f89d a019 	ldrb.w	sl, [sp, #25]
     b3a:	f89d 0018 	ldrb.w	r0, [sp, #24]
     b3e:	ea0a 0000 	and.w	r0, sl, r0
     b42:	f7ff ffa5 	bl	a90 <_ZN10__cxxabiv112_GLOBAL__N_118contained_public_pENS_17__class_type_info10__sub_kindE>
     b46:	b9c0      	cbnz	r0, b7a <__dynamic_cast+0x9c>
     b48:	f00a 0a05 	and.w	sl, sl, #5
     b4c:	f1ba 0f04 	cmp.w	sl, #4
     b50:	d012      	beq.n	b78 <__dynamic_cast+0x9a>
     b52:	f1b9 0f00 	cmp.w	r9, #0
     b56:	d108      	bne.n	b6a <__dynamic_cast+0x8c>
     b58:	4630      	mov	r0, r6
     b5a:	4629      	mov	r1, r5
     b5c:	463a      	mov	r2, r7
     b5e:	4643      	mov	r3, r8
     b60:	9400      	str	r4, [sp, #0]
     b62:	f7ff ffa6 	bl	ab2 <_ZNK10__cxxabiv117__class_type_info17__find_public_srcEiPKvPKS0_S2_>
     b66:	f88d 001a 	strb.w	r0, [sp, #26]
     b6a:	f89d 001a 	ldrb.w	r0, [sp, #26]
     b6e:	f7ff ff8f 	bl	a90 <_ZN10__cxxabiv112_GLOBAL__N_118contained_public_pENS_17__class_type_info10__sub_kindE>
     b72:	b108      	cbz	r0, b78 <__dynamic_cast+0x9a>
     b74:	9f05      	ldr	r7, [sp, #20]
     b76:	e000      	b.n	b7a <__dynamic_cast+0x9c>
     b78:	4607      	mov	r7, r0
     b7a:	4638      	mov	r0, r7
     b7c:	b008      	add	sp, #32
     b7e:	e8bd 87f0 	ldmia.w	sp!, {r4, r5, r6, r7, r8, r9, sl, pc}

00000b82 <_ZNK10__cxxabiv120__si_class_type_info11__do_upcastEPKNS_17__class_type_infoEPKvRNS1_15__upcast_resultE>:
     b82:	b5f8      	push	{r3, r4, r5, r6, r7, lr}
     b84:	4604      	mov	r4, r0
     b86:	460f      	mov	r7, r1
     b88:	4616      	mov	r6, r2
     b8a:	461d      	mov	r5, r3
     b8c:	f7ff ff05 	bl	99a <_ZNK10__cxxabiv117__class_type_info11__do_upcastEPKS0_PKvRNS0_15__upcast_resultE>
     b90:	b938      	cbnz	r0, ba2 <_ZNK10__cxxabiv120__si_class_type_info11__do_upcastEPKNS_17__class_type_infoEPKvRNS1_15__upcast_resultE+0x20>
     b92:	68a0      	ldr	r0, [r4, #8]
     b94:	4639      	mov	r1, r7
     b96:	4632      	mov	r2, r6
     b98:	6803      	ldr	r3, [r0, #0]
     b9a:	699c      	ldr	r4, [r3, #24]
     b9c:	462b      	mov	r3, r5
     b9e:	47a0      	blx	r4
     ba0:	bdf8      	pop	{r3, r4, r5, r6, r7, pc}
     ba2:	2001      	movs	r0, #1
     ba4:	bdf8      	pop	{r3, r4, r5, r6, r7, pc}

00000ba6 <_ZNK10__cxxabiv120__si_class_type_info12__do_dyncastEiNS_17__class_type_info10__sub_kindEPKS1_PKvS4_S6_RNS1_16__dyncast_resultE>:
     ba6:	e92d 4ff0 	stmdb	sp!, {r4, r5, r6, r7, r8, r9, sl, fp, lr}
     baa:	b085      	sub	sp, #20
     bac:	460c      	mov	r4, r1
     bae:	4619      	mov	r1, r3
     bb0:	4605      	mov	r5, r0
     bb2:	4616      	mov	r6, r2
     bb4:	461f      	mov	r7, r3
     bb6:	f8dd 9038 	ldr.w	r9, [sp, #56]	; 0x38
     bba:	f8dd a040 	ldr.w	sl, [sp, #64]	; 0x40
     bbe:	f8dd 8044 	ldr.w	r8, [sp, #68]	; 0x44
     bc2:	f000 f882 	bl	cca <_ZNKSt9type_infoeqERKS_>
     bc6:	4683      	mov	fp, r0
     bc8:	b1b0      	cbz	r0, bf8 <_ZNK10__cxxabiv120__si_class_type_info12__do_dyncastEiNS_17__class_type_info10__sub_kindEPKS1_PKvS4_S6_RNS1_16__dyncast_resultE+0x52>
     bca:	2c00      	cmp	r4, #0
     bcc:	f8c8 9000 	str.w	r9, [r8]
     bd0:	f888 6004 	strb.w	r6, [r8, #4]
     bd4:	db09      	blt.n	bea <_ZNK10__cxxabiv120__si_class_type_info12__do_dyncastEiNS_17__class_type_info10__sub_kindEPKS1_PKvS4_S6_RNS1_16__dyncast_resultE+0x44>
     bd6:	444c      	add	r4, r9
     bd8:	45a2      	cmp	sl, r4
     bda:	bf14      	ite	ne
     bdc:	f04f 0a01 	movne.w	sl, #1
     be0:	f04f 0a06 	moveq.w	sl, #6
     be4:	f888 a006 	strb.w	sl, [r8, #6]
     be8:	e011      	b.n	c0e <_ZNK10__cxxabiv120__si_class_type_info12__do_dyncastEiNS_17__class_type_info10__sub_kindEPKS1_PKvS4_S6_RNS1_16__dyncast_resultE+0x68>
     bea:	f114 0f02 	cmn.w	r4, #2
     bee:	d10e      	bne.n	c0e <_ZNK10__cxxabiv120__si_class_type_info12__do_dyncastEiNS_17__class_type_info10__sub_kindEPKS1_PKvS4_S6_RNS1_16__dyncast_resultE+0x68>
     bf0:	2301      	movs	r3, #1
     bf2:	f888 3006 	strb.w	r3, [r8, #6]
     bf6:	e00a      	b.n	c0e <_ZNK10__cxxabiv120__si_class_type_info12__do_dyncastEiNS_17__class_type_info10__sub_kindEPKS1_PKvS4_S6_RNS1_16__dyncast_resultE+0x68>
     bf8:	45d1      	cmp	r9, sl
     bfa:	d10c      	bne.n	c16 <_ZNK10__cxxabiv120__si_class_type_info12__do_dyncastEiNS_17__class_type_info10__sub_kindEPKS1_PKvS4_S6_RNS1_16__dyncast_resultE+0x70>
     bfc:	4628      	mov	r0, r5
     bfe:	990f      	ldr	r1, [sp, #60]	; 0x3c
     c00:	f000 f863 	bl	cca <_ZNKSt9type_infoeqERKS_>
     c04:	b138      	cbz	r0, c16 <_ZNK10__cxxabiv120__si_class_type_info12__do_dyncastEiNS_17__class_type_info10__sub_kindEPKS1_PKvS4_S6_RNS1_16__dyncast_resultE+0x70>
     c06:	f888 6005 	strb.w	r6, [r8, #5]
     c0a:	4658      	mov	r0, fp
     c0c:	e000      	b.n	c10 <_ZNK10__cxxabiv120__si_class_type_info12__do_dyncastEiNS_17__class_type_info10__sub_kindEPKS1_PKvS4_S6_RNS1_16__dyncast_resultE+0x6a>
     c0e:	2000      	movs	r0, #0
     c10:	b005      	add	sp, #20
     c12:	e8bd 8ff0 	ldmia.w	sp!, {r4, r5, r6, r7, r8, r9, sl, fp, pc}
     c16:	68a8      	ldr	r0, [r5, #8]
     c18:	4621      	mov	r1, r4
     c1a:	9a0f      	ldr	r2, [sp, #60]	; 0x3c
     c1c:	6803      	ldr	r3, [r0, #0]
     c1e:	9201      	str	r2, [sp, #4]
     c20:	4632      	mov	r2, r6
     c22:	f8cd 9000 	str.w	r9, [sp]
     c26:	f8cd a008 	str.w	sl, [sp, #8]
     c2a:	f8cd 800c 	str.w	r8, [sp, #12]
     c2e:	69dd      	ldr	r5, [r3, #28]
     c30:	463b      	mov	r3, r7
     c32:	47a8      	blx	r5
     c34:	e7ec      	b.n	c10 <_ZNK10__cxxabiv120__si_class_type_info12__do_dyncastEiNS_17__class_type_info10__sub_kindEPKS1_PKvS4_S6_RNS1_16__dyncast_resultE+0x6a>

00000c36 <_ZNK10__cxxabiv120__si_class_type_info20__do_find_public_srcEiPKvPKNS_17__class_type_infoES2_>:
     c36:	e92d 41f3 	stmdb	sp!, {r0, r1, r4, r5, r6, r7, r8, lr}
     c3a:	4604      	mov	r4, r0
     c3c:	f8dd 8020 	ldr.w	r8, [sp, #32]
     c40:	460d      	mov	r5, r1
     c42:	4617      	mov	r7, r2
     c44:	461e      	mov	r6, r3
     c46:	4590      	cmp	r8, r2
     c48:	d106      	bne.n	c58 <_ZNK10__cxxabiv120__si_class_type_info20__do_find_public_srcEiPKvPKNS_17__class_type_infoES2_+0x22>
     c4a:	4619      	mov	r1, r3
     c4c:	f000 f83d 	bl	cca <_ZNKSt9type_infoeqERKS_>
     c50:	b110      	cbz	r0, c58 <_ZNK10__cxxabiv120__si_class_type_info20__do_find_public_srcEiPKvPKNS_17__class_type_infoES2_+0x22>
     c52:	2006      	movs	r0, #6
     c54:	e8bd 81fc 	ldmia.w	sp!, {r2, r3, r4, r5, r6, r7, r8, pc}
     c58:	68a0      	ldr	r0, [r4, #8]
     c5a:	4629      	mov	r1, r5
     c5c:	463a      	mov	r2, r7
     c5e:	6803      	ldr	r3, [r0, #0]
     c60:	f8cd 8000 	str.w	r8, [sp]
     c64:	6a1c      	ldr	r4, [r3, #32]
     c66:	4633      	mov	r3, r6
     c68:	47a0      	blx	r4
     c6a:	e7f3      	b.n	c54 <_ZNK10__cxxabiv120__si_class_type_info20__do_find_public_srcEiPKvPKNS_17__class_type_infoES2_+0x1e>

00000c6c <_ZN10__cxxabiv120__si_class_type_infoD1Ev>:
     c6c:	4b03      	ldr	r3, [pc, #12]	; (c7c <_ZN10__cxxabiv120__si_class_type_infoD1Ev+0x10>)
     c6e:	b510      	push	{r4, lr}
     c70:	4604      	mov	r4, r0
     c72:	6003      	str	r3, [r0, #0]
     c74:	f7ff fed0 	bl	a18 <_ZN10__cxxabiv117__class_type_infoD1Ev>
     c78:	4620      	mov	r0, r4
     c7a:	bd10      	pop	{r4, pc}
     c7c:	0000b2e8 	.word	0x0000b2e8

00000c80 <_ZN10__cxxabiv120__si_class_type_infoD0Ev>:
     c80:	b510      	push	{r4, lr}
     c82:	4604      	mov	r4, r0
     c84:	f7ff fff2 	bl	c6c <_ZN10__cxxabiv120__si_class_type_infoD1Ev>
     c88:	4620      	mov	r0, r4
     c8a:	f7ff fefb 	bl	a84 <_ZdlPv>
     c8e:	4620      	mov	r0, r4
     c90:	bd10      	pop	{r4, pc}
	...

00000c94 <_ZNSt9type_infoD1Ev>:
     c94:	4b01      	ldr	r3, [pc, #4]	; (c9c <_ZNSt9type_infoD1Ev+0x8>)
     c96:	6003      	str	r3, [r0, #0]
     c98:	4770      	bx	lr
     c9a:	bf00      	nop
     c9c:	0000b368 	.word	0x0000b368

00000ca0 <_ZNKSt9type_info14__is_pointer_pEv>:
     ca0:	2000      	movs	r0, #0
     ca2:	4770      	bx	lr

00000ca4 <_ZNKSt9type_info15__is_function_pEv>:
     ca4:	2000      	movs	r0, #0
     ca6:	4770      	bx	lr

00000ca8 <_ZNKSt9type_info11__do_upcastEPKN10__cxxabiv117__class_type_infoEPPv>:
     ca8:	2000      	movs	r0, #0
     caa:	4770      	bx	lr

00000cac <_ZNSt9type_infoD0Ev>:
     cac:	b510      	push	{r4, lr}
     cae:	4604      	mov	r4, r0
     cb0:	f7ff fff0 	bl	c94 <_ZNSt9type_infoD1Ev>
     cb4:	4620      	mov	r0, r4
     cb6:	f7ff fee5 	bl	a84 <_ZdlPv>
     cba:	4620      	mov	r0, r4
     cbc:	bd10      	pop	{r4, pc}

00000cbe <_ZNKSt9type_info4nameEv>:
     cbe:	6840      	ldr	r0, [r0, #4]
     cc0:	7803      	ldrb	r3, [r0, #0]
     cc2:	2b2a      	cmp	r3, #42	; 0x2a
     cc4:	bf08      	it	eq
     cc6:	3001      	addeq	r0, #1
     cc8:	4770      	bx	lr

00000cca <_ZNKSt9type_infoeqERKS_>:
     cca:	4281      	cmp	r1, r0
     ccc:	b538      	push	{r3, r4, r5, lr}
     cce:	460d      	mov	r5, r1
     cd0:	d011      	beq.n	cf6 <_ZNKSt9type_infoeqERKS_+0x2c>
     cd2:	f7ff fff4 	bl	cbe <_ZNKSt9type_info4nameEv>
     cd6:	7803      	ldrb	r3, [r0, #0]
     cd8:	4604      	mov	r4, r0
     cda:	2b2a      	cmp	r3, #42	; 0x2a
     cdc:	d00d      	beq.n	cfa <_ZNKSt9type_infoeqERKS_+0x30>
     cde:	4628      	mov	r0, r5
     ce0:	f7ff ffed 	bl	cbe <_ZNKSt9type_info4nameEv>
     ce4:	4601      	mov	r1, r0
     ce6:	4620      	mov	r0, r4
     ce8:	f002 fdbf 	bl	386a <strcmp>
     cec:	f1d0 0001 	rsbs	r0, r0, #1
     cf0:	bf38      	it	cc
     cf2:	2000      	movcc	r0, #0
     cf4:	bd38      	pop	{r3, r4, r5, pc}
     cf6:	2001      	movs	r0, #1
     cf8:	bd38      	pop	{r3, r4, r5, pc}
     cfa:	2000      	movs	r0, #0
     cfc:	bd38      	pop	{r3, r4, r5, pc}

00000cfe <_ZNKSt9type_info10__do_catchEPKS_PPvj>:
     cfe:	f7ff bfe4 	b.w	cca <_ZNKSt9type_infoeqERKS_>

00000d02 <_ZN10__cxxabiv112_GLOBAL__N_111contained_pENS_17__class_type_info10__sub_kindE>:
     d02:	2803      	cmp	r0, #3
     d04:	bf94      	ite	ls
     d06:	2000      	movls	r0, #0
     d08:	2001      	movhi	r0, #1
     d0a:	4770      	bx	lr

00000d0c <_ZN10__cxxabiv112_GLOBAL__N_19virtual_pENS_17__class_type_info10__sub_kindE>:
     d0c:	f000 0001 	and.w	r0, r0, #1
     d10:	4770      	bx	lr

00000d12 <_ZN10__cxxabiv112_GLOBAL__N_114adjust_pointerIvEEPKT_PKvi>:
     d12:	1840      	adds	r0, r0, r1
     d14:	4770      	bx	lr

00000d16 <_ZN10__cxxabiv112_GLOBAL__N_115convert_to_baseEPKvbi>:
     d16:	b109      	cbz	r1, d1c <_ZN10__cxxabiv112_GLOBAL__N_115convert_to_baseEPKvbi+0x6>
     d18:	6803      	ldr	r3, [r0, #0]
     d1a:	589a      	ldr	r2, [r3, r2]
     d1c:	4611      	mov	r1, r2
     d1e:	f7ff bff8 	b.w	d12 <_ZN10__cxxabiv112_GLOBAL__N_114adjust_pointerIvEEPKT_PKvi>
	...

00000d24 <_ZN10__cxxabiv121__vmi_class_type_infoD1Ev>:
     d24:	4b03      	ldr	r3, [pc, #12]	; (d34 <_ZN10__cxxabiv121__vmi_class_type_infoD1Ev+0x10>)
     d26:	b510      	push	{r4, lr}
     d28:	4604      	mov	r4, r0
     d2a:	6003      	str	r3, [r0, #0]
     d2c:	f7ff fe74 	bl	a18 <_ZN10__cxxabiv117__class_type_infoD1Ev>
     d30:	4620      	mov	r0, r4
     d32:	bd10      	pop	{r4, pc}
     d34:	0000b3c0 	.word	0x0000b3c0

00000d38 <_ZN10__cxxabiv121__vmi_class_type_infoD0Ev>:
     d38:	b510      	push	{r4, lr}
     d3a:	4604      	mov	r4, r0
     d3c:	f7ff fff2 	bl	d24 <_ZN10__cxxabiv121__vmi_class_type_infoD1Ev>
     d40:	4620      	mov	r0, r4
     d42:	f7ff fe9f 	bl	a84 <_ZdlPv>
     d46:	4620      	mov	r0, r4
     d48:	bd10      	pop	{r4, pc}

00000d4a <_ZNK10__cxxabiv122__base_class_type_info14__is_virtual_pEv>:
     d4a:	6840      	ldr	r0, [r0, #4]
     d4c:	f000 0001 	and.w	r0, r0, #1
     d50:	4770      	bx	lr

00000d52 <_ZNK10__cxxabiv122__base_class_type_info13__is_public_pEv>:
     d52:	6840      	ldr	r0, [r0, #4]
     d54:	f3c0 0040 	ubfx	r0, r0, #1, #1
     d58:	4770      	bx	lr

00000d5a <_ZNK10__cxxabiv122__base_class_type_info8__offsetEv>:
     d5a:	6840      	ldr	r0, [r0, #4]
     d5c:	1200      	asrs	r0, r0, #8
     d5e:	4770      	bx	lr

00000d60 <_ZNK10__cxxabiv121__vmi_class_type_info20__do_find_public_srcEiPKvPKNS_17__class_type_infoES2_>:
     d60:	e92d 4ff7 	stmdb	sp!, {r0, r1, r2, r4, r5, r6, r7, r8, r9, sl, fp, lr}
     d64:	468b      	mov	fp, r1
     d66:	990c      	ldr	r1, [sp, #48]	; 0x30
     d68:	4605      	mov	r5, r0
     d6a:	4692      	mov	sl, r2
     d6c:	4699      	mov	r9, r3
     d6e:	428a      	cmp	r2, r1
     d70:	d13b      	bne.n	dea <_ZNK10__cxxabiv121__vmi_class_type_info20__do_find_public_srcEiPKvPKNS_17__class_type_infoES2_+0x8a>
     d72:	4619      	mov	r1, r3
     d74:	f7ff ffa9 	bl	cca <_ZNKSt9type_infoeqERKS_>
     d78:	2800      	cmp	r0, #0
     d7a:	d132      	bne.n	de2 <_ZNK10__cxxabiv121__vmi_class_type_info20__do_find_public_srcEiPKvPKNS_17__class_type_infoES2_+0x82>
     d7c:	e035      	b.n	dea <_ZNK10__cxxabiv121__vmi_class_type_info20__do_find_public_srcEiPKvPKNS_17__class_type_infoES2_+0x8a>
     d7e:	3c01      	subs	r4, #1
     d80:	1ca6      	adds	r6, r4, #2
     d82:	eb05 06c6 	add.w	r6, r5, r6, lsl #3
     d86:	4630      	mov	r0, r6
     d88:	f7ff ffe3 	bl	d52 <_ZNK10__cxxabiv122__base_class_type_info13__is_public_pEv>
     d8c:	b318      	cbz	r0, dd6 <_ZNK10__cxxabiv121__vmi_class_type_info20__do_find_public_srcEiPKvPKNS_17__class_type_infoES2_+0x76>
     d8e:	4630      	mov	r0, r6
     d90:	f7ff ffe3 	bl	d5a <_ZNK10__cxxabiv122__base_class_type_info8__offsetEv>
     d94:	4607      	mov	r7, r0
     d96:	4630      	mov	r0, r6
     d98:	f7ff ffd7 	bl	d4a <_ZNK10__cxxabiv122__base_class_type_info14__is_virtual_pEv>
     d9c:	4606      	mov	r6, r0
     d9e:	b110      	cbz	r0, da6 <_ZNK10__cxxabiv121__vmi_class_type_info20__do_find_public_srcEiPKvPKNS_17__class_type_infoES2_+0x46>
     da0:	f11b 0f03 	cmn.w	fp, #3
     da4:	d017      	beq.n	dd6 <_ZNK10__cxxabiv121__vmi_class_type_info20__do_find_public_srcEiPKvPKNS_17__class_type_infoES2_+0x76>
     da6:	463a      	mov	r2, r7
     da8:	4631      	mov	r1, r6
     daa:	4650      	mov	r0, sl
     dac:	f7ff ffb3 	bl	d16 <_ZN10__cxxabiv112_GLOBAL__N_115convert_to_baseEPKvbi>
     db0:	990c      	ldr	r1, [sp, #48]	; 0x30
     db2:	4602      	mov	r2, r0
     db4:	f858 0c08 	ldr.w	r0, [r8, #-8]
     db8:	6803      	ldr	r3, [r0, #0]
     dba:	9100      	str	r1, [sp, #0]
     dbc:	4659      	mov	r1, fp
     dbe:	6a1f      	ldr	r7, [r3, #32]
     dc0:	464b      	mov	r3, r9
     dc2:	47b8      	blx	r7
     dc4:	4607      	mov	r7, r0
     dc6:	f7ff ff9c 	bl	d02 <_ZN10__cxxabiv112_GLOBAL__N_111contained_pENS_17__class_type_info10__sub_kindE>
     dca:	b120      	cbz	r0, dd6 <_ZNK10__cxxabiv121__vmi_class_type_info20__do_find_public_srcEiPKvPKNS_17__class_type_infoES2_+0x76>
     dcc:	b156      	cbz	r6, de4 <_ZNK10__cxxabiv121__vmi_class_type_info20__do_find_public_srcEiPKvPKNS_17__class_type_infoES2_+0x84>
     dce:	f047 0701 	orr.w	r7, r7, #1
     dd2:	b2ff      	uxtb	r7, r7
     dd4:	e006      	b.n	de4 <_ZNK10__cxxabiv121__vmi_class_type_info20__do_find_public_srcEiPKvPKNS_17__class_type_infoES2_+0x84>
     dd6:	f1a8 0808 	sub.w	r8, r8, #8
     dda:	2c00      	cmp	r4, #0
     ddc:	d1cf      	bne.n	d7e <_ZNK10__cxxabiv121__vmi_class_type_info20__do_find_public_srcEiPKvPKNS_17__class_type_infoES2_+0x1e>
     dde:	2701      	movs	r7, #1
     de0:	e000      	b.n	de4 <_ZNK10__cxxabiv121__vmi_class_type_info20__do_find_public_srcEiPKvPKNS_17__class_type_infoES2_+0x84>
     de2:	2706      	movs	r7, #6
     de4:	4638      	mov	r0, r7
     de6:	e8bd 8ffe 	ldmia.w	sp!, {r1, r2, r3, r4, r5, r6, r7, r8, r9, sl, fp, pc}
     dea:	68ec      	ldr	r4, [r5, #12]
     dec:	f104 0802 	add.w	r8, r4, #2
     df0:	eb05 08c8 	add.w	r8, r5, r8, lsl #3
     df4:	e7f1      	b.n	dda <_ZNK10__cxxabiv121__vmi_class_type_info20__do_find_public_srcEiPKvPKNS_17__class_type_infoES2_+0x7a>

00000df6 <_ZNK10__cxxabiv121__vmi_class_type_info11__do_upcastEPKNS_17__class_type_infoEPKvRNS1_15__upcast_resultE>:
     df6:	e92d 4ff0 	stmdb	sp!, {r4, r5, r6, r7, r8, r9, sl, fp, lr}
     dfa:	b089      	sub	sp, #36	; 0x24
     dfc:	4605      	mov	r5, r0
     dfe:	4692      	mov	sl, r2
     e00:	9103      	str	r1, [sp, #12]
     e02:	461c      	mov	r4, r3
     e04:	f7ff fdc9 	bl	99a <_ZNK10__cxxabiv117__class_type_info11__do_upcastEPKS0_PKvRNS0_15__upcast_resultE>
     e08:	2800      	cmp	r0, #0
     e0a:	f040 808d 	bne.w	f28 <_ZNK10__cxxabiv121__vmi_class_type_info11__do_upcastEPKNS_17__class_type_infoEPKvRNS1_15__upcast_resultE+0x132>
     e0e:	f8d4 9008 	ldr.w	r9, [r4, #8]
     e12:	f8d5 800c 	ldr.w	r8, [r5, #12]
     e16:	f019 0f10 	tst.w	r9, #16
     e1a:	f108 0602 	add.w	r6, r8, #2
     e1e:	bf18      	it	ne
     e20:	f8d5 9008 	ldrne.w	r9, [r5, #8]
     e24:	eb05 06c6 	add.w	r6, r5, r6, lsl #3
     e28:	e076      	b.n	f18 <_ZNK10__cxxabiv121__vmi_class_type_info11__do_upcastEPKNS_17__class_type_infoEPKvRNS1_15__upcast_resultE+0x122>
     e2a:	4649      	mov	r1, r9
     e2c:	f108 38ff 	add.w	r8, r8, #4294967295	; 0xffffffff
     e30:	a804      	add	r0, sp, #16
     e32:	f7ff fe04 	bl	a3e <_ZN10__cxxabiv117__class_type_info15__upcast_resultC1Ei>
     e36:	f108 0302 	add.w	r3, r8, #2
     e3a:	eb05 03c3 	add.w	r3, r5, r3, lsl #3
     e3e:	9301      	str	r3, [sp, #4]
     e40:	4618      	mov	r0, r3
     e42:	f7ff ff8a 	bl	d5a <_ZNK10__cxxabiv122__base_class_type_info8__offsetEv>
     e46:	9b01      	ldr	r3, [sp, #4]
     e48:	4607      	mov	r7, r0
     e4a:	4618      	mov	r0, r3
     e4c:	f7ff ff7d 	bl	d4a <_ZNK10__cxxabiv122__base_class_type_info14__is_virtual_pEv>
     e50:	9b01      	ldr	r3, [sp, #4]
     e52:	4683      	mov	fp, r0
     e54:	4618      	mov	r0, r3
     e56:	f7ff ff7c 	bl	d52 <_ZNK10__cxxabiv122__base_class_type_info13__is_public_pEv>
     e5a:	9002      	str	r0, [sp, #8]
     e5c:	b910      	cbnz	r0, e64 <_ZNK10__cxxabiv121__vmi_class_type_info11__do_upcastEPKNS_17__class_type_infoEPKvRNS1_15__upcast_resultE+0x6e>
     e5e:	f019 0f01 	tst.w	r9, #1
     e62:	d058      	beq.n	f16 <_ZNK10__cxxabiv121__vmi_class_type_info11__do_upcastEPKNS_17__class_type_infoEPKvRNS1_15__upcast_resultE+0x120>
     e64:	f1ba 0f00 	cmp.w	sl, #0
     e68:	d006      	beq.n	e78 <_ZNK10__cxxabiv121__vmi_class_type_info11__do_upcastEPKNS_17__class_type_infoEPKvRNS1_15__upcast_resultE+0x82>
     e6a:	463a      	mov	r2, r7
     e6c:	4650      	mov	r0, sl
     e6e:	4659      	mov	r1, fp
     e70:	f7ff ff51 	bl	d16 <_ZN10__cxxabiv112_GLOBAL__N_115convert_to_baseEPKvbi>
     e74:	4602      	mov	r2, r0
     e76:	e000      	b.n	e7a <_ZNK10__cxxabiv121__vmi_class_type_info11__do_upcastEPKNS_17__class_type_infoEPKvRNS1_15__upcast_resultE+0x84>
     e78:	4652      	mov	r2, sl
     e7a:	f856 0c08 	ldr.w	r0, [r6, #-8]
     e7e:	9903      	ldr	r1, [sp, #12]
     e80:	6803      	ldr	r3, [r0, #0]
     e82:	699f      	ldr	r7, [r3, #24]
     e84:	ab04      	add	r3, sp, #16
     e86:	47b8      	blx	r7
     e88:	2800      	cmp	r0, #0
     e8a:	d044      	beq.n	f16 <_ZNK10__cxxabiv121__vmi_class_type_info11__do_upcastEPKNS_17__class_type_infoEPKvRNS1_15__upcast_resultE+0x120>
     e8c:	9b07      	ldr	r3, [sp, #28]
     e8e:	2b08      	cmp	r3, #8
     e90:	d105      	bne.n	e9e <_ZNK10__cxxabiv121__vmi_class_type_info11__do_upcastEPKNS_17__class_type_infoEPKvRNS1_15__upcast_resultE+0xa8>
     e92:	f1bb 0f00 	cmp.w	fp, #0
     e96:	d002      	beq.n	e9e <_ZNK10__cxxabiv121__vmi_class_type_info11__do_upcastEPKNS_17__class_type_infoEPKvRNS1_15__upcast_resultE+0xa8>
     e98:	f856 3c08 	ldr.w	r3, [r6, #-8]
     e9c:	9307      	str	r3, [sp, #28]
     e9e:	f89d 7014 	ldrb.w	r7, [sp, #20]
     ea2:	4638      	mov	r0, r7
     ea4:	f7ff ff2d 	bl	d02 <_ZN10__cxxabiv112_GLOBAL__N_111contained_pENS_17__class_type_info10__sub_kindE>
     ea8:	b128      	cbz	r0, eb6 <_ZNK10__cxxabiv121__vmi_class_type_info11__do_upcastEPKNS_17__class_type_infoEPKvRNS1_15__upcast_resultE+0xc0>
     eaa:	9b02      	ldr	r3, [sp, #8]
     eac:	b91b      	cbnz	r3, eb6 <_ZNK10__cxxabiv121__vmi_class_type_info11__do_upcastEPKNS_17__class_type_infoEPKvRNS1_15__upcast_resultE+0xc0>
     eae:	f027 0702 	bic.w	r7, r7, #2
     eb2:	f88d 7014 	strb.w	r7, [sp, #20]
     eb6:	68e1      	ldr	r1, [r4, #12]
     eb8:	b9c9      	cbnz	r1, eee <_ZNK10__cxxabiv121__vmi_class_type_info11__do_upcastEPKNS_17__class_type_infoEPKvRNS1_15__upcast_resultE+0xf8>
     eba:	ab04      	add	r3, sp, #16
     ebc:	cb0f      	ldmia	r3, {r0, r1, r2, r3}
     ebe:	e884 000f 	stmia.w	r4, {r0, r1, r2, r3}
     ec2:	7927      	ldrb	r7, [r4, #4]
     ec4:	4638      	mov	r0, r7
     ec6:	f7ff ff1c 	bl	d02 <_ZN10__cxxabiv112_GLOBAL__N_111contained_pENS_17__class_type_info10__sub_kindE>
     eca:	2800      	cmp	r0, #0
     ecc:	d02c      	beq.n	f28 <_ZNK10__cxxabiv121__vmi_class_type_info11__do_upcastEPKNS_17__class_type_infoEPKvRNS1_15__upcast_resultE+0x132>
     ece:	f017 0f02 	tst.w	r7, #2
     ed2:	d003      	beq.n	edc <_ZNK10__cxxabiv121__vmi_class_type_info11__do_upcastEPKNS_17__class_type_infoEPKvRNS1_15__upcast_resultE+0xe6>
     ed4:	68ab      	ldr	r3, [r5, #8]
     ed6:	f013 0f01 	tst.w	r3, #1
     eda:	e006      	b.n	eea <_ZNK10__cxxabiv121__vmi_class_type_info11__do_upcastEPKNS_17__class_type_infoEPKvRNS1_15__upcast_resultE+0xf4>
     edc:	4638      	mov	r0, r7
     ede:	f7ff ff15 	bl	d0c <_ZN10__cxxabiv112_GLOBAL__N_19virtual_pENS_17__class_type_info10__sub_kindE>
     ee2:	b308      	cbz	r0, f28 <_ZNK10__cxxabiv121__vmi_class_type_info11__do_upcastEPKNS_17__class_type_infoEPKvRNS1_15__upcast_resultE+0x132>
     ee4:	68ab      	ldr	r3, [r5, #8]
     ee6:	f013 0f02 	tst.w	r3, #2
     eea:	d114      	bne.n	f16 <_ZNK10__cxxabiv121__vmi_class_type_info11__do_upcastEPKNS_17__class_type_infoEPKvRNS1_15__upcast_resultE+0x120>
     eec:	e01c      	b.n	f28 <_ZNK10__cxxabiv121__vmi_class_type_info11__do_upcastEPKNS_17__class_type_infoEPKvRNS1_15__upcast_resultE+0x132>
     eee:	6823      	ldr	r3, [r4, #0]
     ef0:	9a04      	ldr	r2, [sp, #16]
     ef2:	4293      	cmp	r3, r2
     ef4:	d003      	beq.n	efe <_ZNK10__cxxabiv121__vmi_class_type_info11__do_upcastEPKNS_17__class_type_infoEPKvRNS1_15__upcast_resultE+0x108>
     ef6:	2300      	movs	r3, #0
     ef8:	6023      	str	r3, [r4, #0]
     efa:	3302      	adds	r3, #2
     efc:	e009      	b.n	f12 <_ZNK10__cxxabiv121__vmi_class_type_info11__do_upcastEPKNS_17__class_type_infoEPKvRNS1_15__upcast_resultE+0x11c>
     efe:	b9bb      	cbnz	r3, f30 <_ZNK10__cxxabiv121__vmi_class_type_info11__do_upcastEPKNS_17__class_type_infoEPKvRNS1_15__upcast_resultE+0x13a>
     f00:	9807      	ldr	r0, [sp, #28]
     f02:	2808      	cmp	r0, #8
     f04:	d004      	beq.n	f10 <_ZNK10__cxxabiv121__vmi_class_type_info11__do_upcastEPKNS_17__class_type_infoEPKvRNS1_15__upcast_resultE+0x11a>
     f06:	2908      	cmp	r1, #8
     f08:	d002      	beq.n	f10 <_ZNK10__cxxabiv121__vmi_class_type_info11__do_upcastEPKNS_17__class_type_infoEPKvRNS1_15__upcast_resultE+0x11a>
     f0a:	f7ff fede 	bl	cca <_ZNKSt9type_infoeqERKS_>
     f0e:	b978      	cbnz	r0, f30 <_ZNK10__cxxabiv121__vmi_class_type_info11__do_upcastEPKNS_17__class_type_infoEPKvRNS1_15__upcast_resultE+0x13a>
     f10:	2302      	movs	r3, #2
     f12:	7123      	strb	r3, [r4, #4]
     f14:	e008      	b.n	f28 <_ZNK10__cxxabiv121__vmi_class_type_info11__do_upcastEPKNS_17__class_type_infoEPKvRNS1_15__upcast_resultE+0x132>
     f16:	3e08      	subs	r6, #8
     f18:	f1b8 0f00 	cmp.w	r8, #0
     f1c:	d185      	bne.n	e2a <_ZNK10__cxxabiv121__vmi_class_type_info11__do_upcastEPKNS_17__class_type_infoEPKvRNS1_15__upcast_resultE+0x34>
     f1e:	7920      	ldrb	r0, [r4, #4]
     f20:	3800      	subs	r0, #0
     f22:	bf18      	it	ne
     f24:	2001      	movne	r0, #1
     f26:	e000      	b.n	f2a <_ZNK10__cxxabiv121__vmi_class_type_info11__do_upcastEPKNS_17__class_type_infoEPKvRNS1_15__upcast_resultE+0x134>
     f28:	2001      	movs	r0, #1
     f2a:	b009      	add	sp, #36	; 0x24
     f2c:	e8bd 8ff0 	ldmia.w	sp!, {r4, r5, r6, r7, r8, r9, sl, fp, pc}
     f30:	7923      	ldrb	r3, [r4, #4]
     f32:	f89d 2014 	ldrb.w	r2, [sp, #20]
     f36:	ea42 0303 	orr.w	r3, r2, r3
     f3a:	7123      	strb	r3, [r4, #4]
     f3c:	e7eb      	b.n	f16 <_ZNK10__cxxabiv121__vmi_class_type_info11__do_upcastEPKNS_17__class_type_infoEPKvRNS1_15__upcast_resultE+0x120>

00000f3e <_ZNK10__cxxabiv121__vmi_class_type_info12__do_dyncastEiNS_17__class_type_info10__sub_kindEPKS1_PKvS4_S6_RNS1_16__dyncast_resultE>:
     f3e:	e92d 4ff0 	stmdb	sp!, {r4, r5, r6, r7, r8, r9, sl, fp, lr}
     f42:	b091      	sub	sp, #68	; 0x44
     f44:	4607      	mov	r7, r0
     f46:	4689      	mov	r9, r1
     f48:	9c1d      	ldr	r4, [sp, #116]	; 0x74
     f4a:	9307      	str	r3, [sp, #28]
     f4c:	9206      	str	r2, [sp, #24]
     f4e:	68a3      	ldr	r3, [r4, #8]
     f50:	9a1a      	ldr	r2, [sp, #104]	; 0x68
     f52:	f013 0f10 	tst.w	r3, #16
     f56:	bf1c      	itt	ne
     f58:	6883      	ldrne	r3, [r0, #8]
     f5a:	60a3      	strne	r3, [r4, #8]
     f5c:	9b1c      	ldr	r3, [sp, #112]	; 0x70
     f5e:	429a      	cmp	r2, r3
     f60:	f040 813e 	bne.w	11e0 <_ZNK10__cxxabiv121__vmi_class_type_info12__do_dyncastEiNS_17__class_type_info10__sub_kindEPKS1_PKvS4_S6_RNS1_16__dyncast_resultE+0x2a2>
     f64:	991b      	ldr	r1, [sp, #108]	; 0x6c
     f66:	f7ff feb0 	bl	cca <_ZNKSt9type_infoeqERKS_>
     f6a:	2800      	cmp	r0, #0
     f6c:	f000 8138 	beq.w	11e0 <_ZNK10__cxxabiv121__vmi_class_type_info12__do_dyncastEiNS_17__class_type_info10__sub_kindEPKS1_PKvS4_S6_RNS1_16__dyncast_resultE+0x2a2>
     f70:	9a06      	ldr	r2, [sp, #24]
     f72:	7162      	strb	r2, [r4, #5]
     f74:	e12e      	b.n	11d4 <_ZNK10__cxxabiv121__vmi_class_type_info12__do_dyncastEiNS_17__class_type_info10__sub_kindEPKS1_PKvS4_S6_RNS1_16__dyncast_resultE+0x296>
     f76:	9b1a      	ldr	r3, [sp, #104]	; 0x68
     f78:	f1b9 0f00 	cmp.w	r9, #0
     f7c:	9a06      	ldr	r2, [sp, #24]
     f7e:	6023      	str	r3, [r4, #0]
     f80:	7122      	strb	r2, [r4, #4]
     f82:	db0a      	blt.n	f9a <_ZNK10__cxxabiv121__vmi_class_type_info12__do_dyncastEiNS_17__class_type_info10__sub_kindEPKS1_PKvS4_S6_RNS1_16__dyncast_resultE+0x5c>
     f84:	4618      	mov	r0, r3
     f86:	4649      	mov	r1, r9
     f88:	f7ff fec3 	bl	d12 <_ZN10__cxxabiv112_GLOBAL__N_114adjust_pointerIvEEPKT_PKvi>
     f8c:	9b1c      	ldr	r3, [sp, #112]	; 0x70
     f8e:	4283      	cmp	r3, r0
     f90:	bf14      	ite	ne
     f92:	2001      	movne	r0, #1
     f94:	2006      	moveq	r0, #6
     f96:	71a0      	strb	r0, [r4, #6]
     f98:	e11c      	b.n	11d4 <_ZNK10__cxxabiv121__vmi_class_type_info12__do_dyncastEiNS_17__class_type_info10__sub_kindEPKS1_PKvS4_S6_RNS1_16__dyncast_resultE+0x296>
     f9a:	f119 0f02 	cmn.w	r9, #2
     f9e:	f040 8119 	bne.w	11d4 <_ZNK10__cxxabiv121__vmi_class_type_info12__do_dyncastEiNS_17__class_type_info10__sub_kindEPKS1_PKvS4_S6_RNS1_16__dyncast_resultE+0x296>
     fa2:	2301      	movs	r3, #1
     fa4:	71a3      	strb	r3, [r4, #6]
     fa6:	e115      	b.n	11d4 <_ZNK10__cxxabiv121__vmi_class_type_info12__do_dyncastEiNS_17__class_type_info10__sub_kindEPKS1_PKvS4_S6_RNS1_16__dyncast_resultE+0x296>
     fa8:	f1b9 0f00 	cmp.w	r9, #0
     fac:	db04      	blt.n	fb8 <_ZNK10__cxxabiv121__vmi_class_type_info12__do_dyncastEiNS_17__class_type_info10__sub_kindEPKS1_PKvS4_S6_RNS1_16__dyncast_resultE+0x7a>
     fae:	981c      	ldr	r0, [sp, #112]	; 0x70
     fb0:	f1c9 0100 	rsb	r1, r9, #0
     fb4:	f7ff fead 	bl	d12 <_ZN10__cxxabiv112_GLOBAL__N_114adjust_pointerIvEEPKT_PKvi>
     fb8:	f04f 0800 	mov.w	r8, #0
     fbc:	2201      	movs	r2, #1
     fbe:	9008      	str	r0, [sp, #32]
     fc0:	f8cd 802c 	str.w	r8, [sp, #44]	; 0x2c
     fc4:	9209      	str	r2, [sp, #36]	; 0x24
     fc6:	e001      	b.n	fcc <_ZNK10__cxxabiv121__vmi_class_type_info12__do_dyncastEiNS_17__class_type_info10__sub_kindEPKS1_PKvS4_S6_RNS1_16__dyncast_resultE+0x8e>
     fc8:	f8cd a024 	str.w	sl, [sp, #36]	; 0x24
     fcc:	f8d7 a00c 	ldr.w	sl, [r7, #12]
     fd0:	f10a 0302 	add.w	r3, sl, #2
     fd4:	eb07 03c3 	add.w	r3, r7, r3, lsl #3
     fd8:	930a      	str	r3, [sp, #40]	; 0x28
     fda:	e0f0      	b.n	11be <_ZNK10__cxxabiv121__vmi_class_type_info12__do_dyncastEiNS_17__class_type_info10__sub_kindEPKS1_PKvS4_S6_RNS1_16__dyncast_resultE+0x280>
     fdc:	f10a 3aff 	add.w	sl, sl, #4294967295	; 0xffffffff
     fe0:	68a1      	ldr	r1, [r4, #8]
     fe2:	f10a 0502 	add.w	r5, sl, #2
     fe6:	a80d      	add	r0, sp, #52	; 0x34
     fe8:	f7ff fd5c 	bl	aa4 <_ZN10__cxxabiv117__class_type_info16__dyncast_resultC1Ei>
     fec:	eb07 05c5 	add.w	r5, r7, r5, lsl #3
     ff0:	4628      	mov	r0, r5
     ff2:	f7ff feb2 	bl	d5a <_ZNK10__cxxabiv122__base_class_type_info8__offsetEv>
     ff6:	4683      	mov	fp, r0
     ff8:	4628      	mov	r0, r5
     ffa:	f7ff fea6 	bl	d4a <_ZNK10__cxxabiv122__base_class_type_info14__is_virtual_pEv>
     ffe:	4601      	mov	r1, r0
    1000:	b118      	cbz	r0, 100a <_ZNK10__cxxabiv121__vmi_class_type_info12__do_dyncastEiNS_17__class_type_info10__sub_kindEPKS1_PKvS4_S6_RNS1_16__dyncast_resultE+0xcc>
    1002:	9b06      	ldr	r3, [sp, #24]
    1004:	f043 0601 	orr.w	r6, r3, #1
    1008:	e000      	b.n	100c <_ZNK10__cxxabiv121__vmi_class_type_info12__do_dyncastEiNS_17__class_type_info10__sub_kindEPKS1_PKvS4_S6_RNS1_16__dyncast_resultE+0xce>
    100a:	9e06      	ldr	r6, [sp, #24]
    100c:	465a      	mov	r2, fp
    100e:	981a      	ldr	r0, [sp, #104]	; 0x68
    1010:	f7ff fe81 	bl	d16 <_ZN10__cxxabiv112_GLOBAL__N_115convert_to_baseEPKvbi>
    1014:	9a08      	ldr	r2, [sp, #32]
    1016:	4683      	mov	fp, r0
    1018:	b13a      	cbz	r2, 102a <_ZNK10__cxxabiv121__vmi_class_type_info12__do_dyncastEiNS_17__class_type_info10__sub_kindEPKS1_PKvS4_S6_RNS1_16__dyncast_resultE+0xec>
    101a:	4290      	cmp	r0, r2
    101c:	9a09      	ldr	r2, [sp, #36]	; 0x24
    101e:	bf94      	ite	ls
    1020:	2300      	movls	r3, #0
    1022:	2301      	movhi	r3, #1
    1024:	4293      	cmp	r3, r2
    1026:	f000 80c5 	beq.w	11b4 <_ZNK10__cxxabiv121__vmi_class_type_info12__do_dyncastEiNS_17__class_type_info10__sub_kindEPKS1_PKvS4_S6_RNS1_16__dyncast_resultE+0x276>
    102a:	4628      	mov	r0, r5
    102c:	f7ff fe91 	bl	d52 <_ZNK10__cxxabiv122__base_class_type_info13__is_public_pEv>
    1030:	b948      	cbnz	r0, 1046 <_ZNK10__cxxabiv121__vmi_class_type_info12__do_dyncastEiNS_17__class_type_info10__sub_kindEPKS1_PKvS4_S6_RNS1_16__dyncast_resultE+0x108>
    1032:	f119 0f02 	cmn.w	r9, #2
    1036:	d104      	bne.n	1042 <_ZNK10__cxxabiv121__vmi_class_type_info12__do_dyncastEiNS_17__class_type_info10__sub_kindEPKS1_PKvS4_S6_RNS1_16__dyncast_resultE+0x104>
    1038:	68a3      	ldr	r3, [r4, #8]
    103a:	f013 0f03 	tst.w	r3, #3
    103e:	f000 80bb 	beq.w	11b8 <_ZNK10__cxxabiv121__vmi_class_type_info12__do_dyncastEiNS_17__class_type_info10__sub_kindEPKS1_PKvS4_S6_RNS1_16__dyncast_resultE+0x27a>
    1042:	f006 06fd 	and.w	r6, r6, #253	; 0xfd
    1046:	9b0a      	ldr	r3, [sp, #40]	; 0x28
    1048:	4649      	mov	r1, r9
    104a:	9a1b      	ldr	r2, [sp, #108]	; 0x6c
    104c:	f853 0c08 	ldr.w	r0, [r3, #-8]
    1050:	6803      	ldr	r3, [r0, #0]
    1052:	9201      	str	r2, [sp, #4]
    1054:	9a1c      	ldr	r2, [sp, #112]	; 0x70
    1056:	f8cd b000 	str.w	fp, [sp]
    105a:	9202      	str	r2, [sp, #8]
    105c:	aa0d      	add	r2, sp, #52	; 0x34
    105e:	9203      	str	r2, [sp, #12]
    1060:	4632      	mov	r2, r6
    1062:	69dd      	ldr	r5, [r3, #28]
    1064:	9b07      	ldr	r3, [sp, #28]
    1066:	47a8      	blx	r5
    1068:	f89d 503a 	ldrb.w	r5, [sp, #58]	; 0x3a
    106c:	7963      	ldrb	r3, [r4, #5]
    106e:	f89d 2039 	ldrb.w	r2, [sp, #57]	; 0x39
    1072:	2d06      	cmp	r5, #6
    1074:	ea42 0303 	orr.w	r3, r2, r3
    1078:	7163      	strb	r3, [r4, #5]
    107a:	d001      	beq.n	1080 <_ZNK10__cxxabiv121__vmi_class_type_info12__do_dyncastEiNS_17__class_type_info10__sub_kindEPKS1_PKvS4_S6_RNS1_16__dyncast_resultE+0x142>
    107c:	2d02      	cmp	r5, #2
    107e:	d106      	bne.n	108e <_ZNK10__cxxabiv121__vmi_class_type_info12__do_dyncastEiNS_17__class_type_info10__sub_kindEPKS1_PKvS4_S6_RNS1_16__dyncast_resultE+0x150>
    1080:	9b0d      	ldr	r3, [sp, #52]	; 0x34
    1082:	71a5      	strb	r5, [r4, #6]
    1084:	6023      	str	r3, [r4, #0]
    1086:	f89d 3038 	ldrb.w	r3, [sp, #56]	; 0x38
    108a:	7123      	strb	r3, [r4, #4]
    108c:	e0a5      	b.n	11da <_ZNK10__cxxabiv121__vmi_class_type_info12__do_dyncastEiNS_17__class_type_info10__sub_kindEPKS1_PKvS4_S6_RNS1_16__dyncast_resultE+0x29c>
    108e:	f8d4 b000 	ldr.w	fp, [r4]
    1092:	f1b8 0f00 	cmp.w	r8, #0
    1096:	d110      	bne.n	10ba <_ZNK10__cxxabiv121__vmi_class_type_info12__do_dyncastEiNS_17__class_type_info10__sub_kindEPKS1_PKvS4_S6_RNS1_16__dyncast_resultE+0x17c>
    1098:	f1bb 0f00 	cmp.w	fp, #0
    109c:	d10d      	bne.n	10ba <_ZNK10__cxxabiv121__vmi_class_type_info12__do_dyncastEiNS_17__class_type_info10__sub_kindEPKS1_PKvS4_S6_RNS1_16__dyncast_resultE+0x17c>
    109e:	9a0d      	ldr	r2, [sp, #52]	; 0x34
    10a0:	f89d 1038 	ldrb.w	r1, [sp, #56]	; 0x38
    10a4:	6022      	str	r2, [r4, #0]
    10a6:	7121      	strb	r1, [r4, #4]
    10a8:	2a00      	cmp	r2, #0
    10aa:	d07e      	beq.n	11aa <_ZNK10__cxxabiv121__vmi_class_type_info12__do_dyncastEiNS_17__class_type_info10__sub_kindEPKS1_PKvS4_S6_RNS1_16__dyncast_resultE+0x26c>
    10ac:	2b00      	cmp	r3, #0
    10ae:	d07c      	beq.n	11aa <_ZNK10__cxxabiv121__vmi_class_type_info12__do_dyncastEiNS_17__class_type_info10__sub_kindEPKS1_PKvS4_S6_RNS1_16__dyncast_resultE+0x26c>
    10b0:	68bb      	ldr	r3, [r7, #8]
    10b2:	f013 0f01 	tst.w	r3, #1
    10b6:	d178      	bne.n	11aa <_ZNK10__cxxabiv121__vmi_class_type_info12__do_dyncastEiNS_17__class_type_info10__sub_kindEPKS1_PKvS4_S6_RNS1_16__dyncast_resultE+0x26c>
    10b8:	e08f      	b.n	11da <_ZNK10__cxxabiv121__vmi_class_type_info12__do_dyncastEiNS_17__class_type_info10__sub_kindEPKS1_PKvS4_S6_RNS1_16__dyncast_resultE+0x29c>
    10ba:	f1bb 0f00 	cmp.w	fp, #0
    10be:	d00b      	beq.n	10d8 <_ZNK10__cxxabiv121__vmi_class_type_info12__do_dyncastEiNS_17__class_type_info10__sub_kindEPKS1_PKvS4_S6_RNS1_16__dyncast_resultE+0x19a>
    10c0:	9a0d      	ldr	r2, [sp, #52]	; 0x34
    10c2:	4593      	cmp	fp, r2
    10c4:	d106      	bne.n	10d4 <_ZNK10__cxxabiv121__vmi_class_type_info12__do_dyncastEiNS_17__class_type_info10__sub_kindEPKS1_PKvS4_S6_RNS1_16__dyncast_resultE+0x196>
    10c6:	7923      	ldrb	r3, [r4, #4]
    10c8:	f89d 2038 	ldrb.w	r2, [sp, #56]	; 0x38
    10cc:	ea42 0303 	orr.w	r3, r2, r3
    10d0:	7123      	strb	r3, [r4, #4]
    10d2:	e06b      	b.n	11ac <_ZNK10__cxxabiv121__vmi_class_type_info12__do_dyncastEiNS_17__class_type_info10__sub_kindEPKS1_PKvS4_S6_RNS1_16__dyncast_resultE+0x26e>
    10d4:	b932      	cbnz	r2, 10e4 <_ZNK10__cxxabiv121__vmi_class_type_info12__do_dyncastEiNS_17__class_type_info10__sub_kindEPKS1_PKvS4_S6_RNS1_16__dyncast_resultE+0x1a6>
    10d6:	b928      	cbnz	r0, 10e4 <_ZNK10__cxxabiv121__vmi_class_type_info12__do_dyncastEiNS_17__class_type_info10__sub_kindEPKS1_PKvS4_S6_RNS1_16__dyncast_resultE+0x1a6>
    10d8:	9a0d      	ldr	r2, [sp, #52]	; 0x34
    10da:	2a00      	cmp	r2, #0
    10dc:	d066      	beq.n	11ac <_ZNK10__cxxabiv121__vmi_class_type_info12__do_dyncastEiNS_17__class_type_info10__sub_kindEPKS1_PKvS4_S6_RNS1_16__dyncast_resultE+0x26e>
    10de:	f1b8 0f00 	cmp.w	r8, #0
    10e2:	d063      	beq.n	11ac <_ZNK10__cxxabiv121__vmi_class_type_info12__do_dyncastEiNS_17__class_type_info10__sub_kindEPKS1_PKvS4_S6_RNS1_16__dyncast_resultE+0x26e>
    10e4:	4618      	mov	r0, r3
    10e6:	79a6      	ldrb	r6, [r4, #6]
    10e8:	9305      	str	r3, [sp, #20]
    10ea:	f7ff fe0a 	bl	d02 <_ZN10__cxxabiv112_GLOBAL__N_111contained_pENS_17__class_type_info10__sub_kindE>
    10ee:	9b05      	ldr	r3, [sp, #20]
    10f0:	2800      	cmp	r0, #0
    10f2:	d07d      	beq.n	11f0 <_ZNK10__cxxabiv121__vmi_class_type_info12__do_dyncastEiNS_17__class_type_info10__sub_kindEPKS1_PKvS4_S6_RNS1_16__dyncast_resultE+0x2b2>
    10f4:	4618      	mov	r0, r3
    10f6:	f7ff fe09 	bl	d0c <_ZN10__cxxabiv112_GLOBAL__N_19virtual_pENS_17__class_type_info10__sub_kindE>
    10fa:	b118      	cbz	r0, 1104 <_ZNK10__cxxabiv121__vmi_class_type_info12__do_dyncastEiNS_17__class_type_info10__sub_kindEPKS1_PKvS4_S6_RNS1_16__dyncast_resultE+0x1c6>
    10fc:	68a3      	ldr	r3, [r4, #8]
    10fe:	f013 0f02 	tst.w	r3, #2
    1102:	d175      	bne.n	11f0 <_ZNK10__cxxabiv121__vmi_class_type_info12__do_dyncastEiNS_17__class_type_info10__sub_kindEPKS1_PKvS4_S6_RNS1_16__dyncast_resultE+0x2b2>
    1104:	2e00      	cmp	r6, #0
    1106:	bf08      	it	eq
    1108:	2601      	moveq	r6, #1
    110a:	2d00      	cmp	r5, #0
    110c:	bf08      	it	eq
    110e:	2501      	moveq	r5, #1
    1110:	e01e      	b.n	1150 <_ZNK10__cxxabiv121__vmi_class_type_info12__do_dyncastEiNS_17__class_type_info10__sub_kindEPKS1_PKvS4_S6_RNS1_16__dyncast_resultE+0x212>
    1112:	4628      	mov	r0, r5
    1114:	f7ff fdf5 	bl	d02 <_ZN10__cxxabiv112_GLOBAL__N_111contained_pENS_17__class_type_info10__sub_kindE>
    1118:	2800      	cmp	r0, #0
    111a:	d06c      	beq.n	11f6 <_ZNK10__cxxabiv121__vmi_class_type_info12__do_dyncastEiNS_17__class_type_info10__sub_kindEPKS1_PKvS4_S6_RNS1_16__dyncast_resultE+0x2b8>
    111c:	4628      	mov	r0, r5
    111e:	f7ff fdf5 	bl	d0c <_ZN10__cxxabiv112_GLOBAL__N_19virtual_pENS_17__class_type_info10__sub_kindE>
    1122:	b118      	cbz	r0, 112c <_ZNK10__cxxabiv121__vmi_class_type_info12__do_dyncastEiNS_17__class_type_info10__sub_kindEPKS1_PKvS4_S6_RNS1_16__dyncast_resultE+0x1ee>
    1124:	68bb      	ldr	r3, [r7, #8]
    1126:	f013 0f02 	tst.w	r3, #2
    112a:	d164      	bne.n	11f6 <_ZNK10__cxxabiv121__vmi_class_type_info12__do_dyncastEiNS_17__class_type_info10__sub_kindEPKS1_PKvS4_S6_RNS1_16__dyncast_resultE+0x2b8>
    112c:	2601      	movs	r6, #1
    112e:	b97d      	cbnz	r5, 1150 <_ZNK10__cxxabiv121__vmi_class_type_info12__do_dyncastEiNS_17__class_type_info10__sub_kindEPKS1_PKvS4_S6_RNS1_16__dyncast_resultE+0x212>
    1130:	4630      	mov	r0, r6
    1132:	f7ff fde6 	bl	d02 <_ZN10__cxxabiv112_GLOBAL__N_111contained_pENS_17__class_type_info10__sub_kindE>
    1136:	2800      	cmp	r0, #0
    1138:	d067      	beq.n	120a <_ZNK10__cxxabiv121__vmi_class_type_info12__do_dyncastEiNS_17__class_type_info10__sub_kindEPKS1_PKvS4_S6_RNS1_16__dyncast_resultE+0x2cc>
    113a:	4630      	mov	r0, r6
    113c:	f7ff fde6 	bl	d0c <_ZN10__cxxabiv112_GLOBAL__N_19virtual_pENS_17__class_type_info10__sub_kindE>
    1140:	b128      	cbz	r0, 114e <_ZNK10__cxxabiv121__vmi_class_type_info12__do_dyncastEiNS_17__class_type_info10__sub_kindEPKS1_PKvS4_S6_RNS1_16__dyncast_resultE+0x210>
    1142:	68bb      	ldr	r3, [r7, #8]
    1144:	f013 0f02 	tst.w	r3, #2
    1148:	d15f      	bne.n	120a <_ZNK10__cxxabiv121__vmi_class_type_info12__do_dyncastEiNS_17__class_type_info10__sub_kindEPKS1_PKvS4_S6_RNS1_16__dyncast_resultE+0x2cc>
    114a:	3501      	adds	r5, #1
    114c:	e000      	b.n	1150 <_ZNK10__cxxabiv121__vmi_class_type_info12__do_dyncastEiNS_17__class_type_info10__sub_kindEPKS1_PKvS4_S6_RNS1_16__dyncast_resultE+0x212>
    114e:	2501      	movs	r5, #1
    1150:	ea86 0005 	eor.w	r0, r6, r5
    1154:	b2c0      	uxtb	r0, r0
    1156:	f7ff fdd4 	bl	d02 <_ZN10__cxxabiv112_GLOBAL__N_111contained_pENS_17__class_type_info10__sub_kindE>
    115a:	4683      	mov	fp, r0
    115c:	b1a0      	cbz	r0, 1188 <_ZNK10__cxxabiv121__vmi_class_type_info12__do_dyncastEiNS_17__class_type_info10__sub_kindEPKS1_PKvS4_S6_RNS1_16__dyncast_resultE+0x24a>
    115e:	4628      	mov	r0, r5
    1160:	f7ff fdcf 	bl	d02 <_ZN10__cxxabiv112_GLOBAL__N_111contained_pENS_17__class_type_info10__sub_kindE>
    1164:	b138      	cbz	r0, 1176 <_ZNK10__cxxabiv121__vmi_class_type_info12__do_dyncastEiNS_17__class_type_info10__sub_kindEPKS1_PKvS4_S6_RNS1_16__dyncast_resultE+0x238>
    1166:	9b0d      	ldr	r3, [sp, #52]	; 0x34
    1168:	462e      	mov	r6, r5
    116a:	f04f 0800 	mov.w	r8, #0
    116e:	6023      	str	r3, [r4, #0]
    1170:	f89d 3038 	ldrb.w	r3, [sp, #56]	; 0x38
    1174:	7123      	strb	r3, [r4, #4]
    1176:	f016 0f02 	tst.w	r6, #2
    117a:	71a6      	strb	r6, [r4, #6]
    117c:	d12a      	bne.n	11d4 <_ZNK10__cxxabiv121__vmi_class_type_info12__do_dyncastEiNS_17__class_type_info10__sub_kindEPKS1_PKvS4_S6_RNS1_16__dyncast_resultE+0x296>
    117e:	4630      	mov	r0, r6
    1180:	f7ff fdc4 	bl	d0c <_ZN10__cxxabiv112_GLOBAL__N_19virtual_pENS_17__class_type_info10__sub_kindE>
    1184:	b990      	cbnz	r0, 11ac <_ZNK10__cxxabiv121__vmi_class_type_info12__do_dyncastEiNS_17__class_type_info10__sub_kindEPKS1_PKvS4_S6_RNS1_16__dyncast_resultE+0x26e>
    1186:	e028      	b.n	11da <_ZNK10__cxxabiv121__vmi_class_type_info12__do_dyncastEiNS_17__class_type_info10__sub_kindEPKS1_PKvS4_S6_RNS1_16__dyncast_resultE+0x29c>
    1188:	ea06 0505 	and.w	r5, r6, r5
    118c:	f04f 0801 	mov.w	r8, #1
    1190:	b2e8      	uxtb	r0, r5
    1192:	f7ff fdb6 	bl	d02 <_ZN10__cxxabiv112_GLOBAL__N_111contained_pENS_17__class_type_info10__sub_kindE>
    1196:	b120      	cbz	r0, 11a2 <_ZNK10__cxxabiv121__vmi_class_type_info12__do_dyncastEiNS_17__class_type_info10__sub_kindEPKS1_PKvS4_S6_RNS1_16__dyncast_resultE+0x264>
    1198:	2302      	movs	r3, #2
    119a:	f8c4 b000 	str.w	fp, [r4]
    119e:	71a3      	strb	r3, [r4, #6]
    11a0:	e01a      	b.n	11d8 <_ZNK10__cxxabiv121__vmi_class_type_info12__do_dyncastEiNS_17__class_type_info10__sub_kindEPKS1_PKvS4_S6_RNS1_16__dyncast_resultE+0x29a>
    11a2:	6020      	str	r0, [r4, #0]
    11a4:	f884 8006 	strb.w	r8, [r4, #6]
    11a8:	e000      	b.n	11ac <_ZNK10__cxxabiv121__vmi_class_type_info12__do_dyncastEiNS_17__class_type_info10__sub_kindEPKS1_PKvS4_S6_RNS1_16__dyncast_resultE+0x26e>
    11aa:	4680      	mov	r8, r0
    11ac:	7963      	ldrb	r3, [r4, #5]
    11ae:	2b04      	cmp	r3, #4
    11b0:	d102      	bne.n	11b8 <_ZNK10__cxxabiv121__vmi_class_type_info12__do_dyncastEiNS_17__class_type_info10__sub_kindEPKS1_PKvS4_S6_RNS1_16__dyncast_resultE+0x27a>
    11b2:	e011      	b.n	11d8 <_ZNK10__cxxabiv121__vmi_class_type_info12__do_dyncastEiNS_17__class_type_info10__sub_kindEPKS1_PKvS4_S6_RNS1_16__dyncast_resultE+0x29a>
    11b4:	2301      	movs	r3, #1
    11b6:	930b      	str	r3, [sp, #44]	; 0x2c
    11b8:	9a0a      	ldr	r2, [sp, #40]	; 0x28
    11ba:	3a08      	subs	r2, #8
    11bc:	920a      	str	r2, [sp, #40]	; 0x28
    11be:	f1ba 0f00 	cmp.w	sl, #0
    11c2:	f47f af0b 	bne.w	fdc <_ZNK10__cxxabiv121__vmi_class_type_info12__do_dyncastEiNS_17__class_type_info10__sub_kindEPKS1_PKvS4_S6_RNS1_16__dyncast_resultE+0x9e>
    11c6:	9b0b      	ldr	r3, [sp, #44]	; 0x2c
    11c8:	b133      	cbz	r3, 11d8 <_ZNK10__cxxabiv121__vmi_class_type_info12__do_dyncastEiNS_17__class_type_info10__sub_kindEPKS1_PKvS4_S6_RNS1_16__dyncast_resultE+0x29a>
    11ca:	9a09      	ldr	r2, [sp, #36]	; 0x24
    11cc:	2a00      	cmp	r2, #0
    11ce:	f47f aefb 	bne.w	fc8 <_ZNK10__cxxabiv121__vmi_class_type_info12__do_dyncastEiNS_17__class_type_info10__sub_kindEPKS1_PKvS4_S6_RNS1_16__dyncast_resultE+0x8a>
    11d2:	e001      	b.n	11d8 <_ZNK10__cxxabiv121__vmi_class_type_info12__do_dyncastEiNS_17__class_type_info10__sub_kindEPKS1_PKvS4_S6_RNS1_16__dyncast_resultE+0x29a>
    11d4:	2000      	movs	r0, #0
    11d6:	e000      	b.n	11da <_ZNK10__cxxabiv121__vmi_class_type_info12__do_dyncastEiNS_17__class_type_info10__sub_kindEPKS1_PKvS4_S6_RNS1_16__dyncast_resultE+0x29c>
    11d8:	4640      	mov	r0, r8
    11da:	b011      	add	sp, #68	; 0x44
    11dc:	e8bd 8ff0 	ldmia.w	sp!, {r4, r5, r6, r7, r8, r9, sl, fp, pc}
    11e0:	4638      	mov	r0, r7
    11e2:	9907      	ldr	r1, [sp, #28]
    11e4:	f7ff fd71 	bl	cca <_ZNKSt9type_infoeqERKS_>
    11e8:	2800      	cmp	r0, #0
    11ea:	f47f aec4 	bne.w	f76 <_ZNK10__cxxabiv121__vmi_class_type_info12__do_dyncastEiNS_17__class_type_info10__sub_kindEPKS1_PKvS4_S6_RNS1_16__dyncast_resultE+0x38>
    11ee:	e6db      	b.n	fa8 <_ZNK10__cxxabiv121__vmi_class_type_info12__do_dyncastEiNS_17__class_type_info10__sub_kindEPKS1_PKvS4_S6_RNS1_16__dyncast_resultE+0x6a>
    11f0:	2e00      	cmp	r6, #0
    11f2:	d19c      	bne.n	112e <_ZNK10__cxxabiv121__vmi_class_type_info12__do_dyncastEiNS_17__class_type_info10__sub_kindEPKS1_PKvS4_S6_RNS1_16__dyncast_resultE+0x1f0>
    11f4:	e78d      	b.n	1112 <_ZNK10__cxxabiv121__vmi_class_type_info12__do_dyncastEiNS_17__class_type_info10__sub_kindEPKS1_PKvS4_S6_RNS1_16__dyncast_resultE+0x1d4>
    11f6:	9b1c      	ldr	r3, [sp, #112]	; 0x70
    11f8:	4649      	mov	r1, r9
    11fa:	9807      	ldr	r0, [sp, #28]
    11fc:	465a      	mov	r2, fp
    11fe:	9300      	str	r3, [sp, #0]
    1200:	9b1b      	ldr	r3, [sp, #108]	; 0x6c
    1202:	f7ff fc56 	bl	ab2 <_ZNK10__cxxabiv117__class_type_info17__find_public_srcEiPKvPKS0_S2_>
    1206:	4606      	mov	r6, r0
    1208:	e791      	b.n	112e <_ZNK10__cxxabiv121__vmi_class_type_info12__do_dyncastEiNS_17__class_type_info10__sub_kindEPKS1_PKvS4_S6_RNS1_16__dyncast_resultE+0x1f0>
    120a:	9a1c      	ldr	r2, [sp, #112]	; 0x70
    120c:	4649      	mov	r1, r9
    120e:	9807      	ldr	r0, [sp, #28]
    1210:	9b1b      	ldr	r3, [sp, #108]	; 0x6c
    1212:	9200      	str	r2, [sp, #0]
    1214:	9a0d      	ldr	r2, [sp, #52]	; 0x34
    1216:	f7ff fc4c 	bl	ab2 <_ZNK10__cxxabiv117__class_type_info17__find_public_srcEiPKvPKS0_S2_>
    121a:	4605      	mov	r5, r0
    121c:	e798      	b.n	1150 <_ZNK10__cxxabiv121__vmi_class_type_info12__do_dyncastEiNS_17__class_type_info10__sub_kindEPKS1_PKvS4_S6_RNS1_16__dyncast_resultE+0x212>
	...

00001220 <scalbn>:
    1220:	b5f8      	push	{r3, r4, r5, r6, r7, lr}
    1222:	4604      	mov	r4, r0
    1224:	4b38      	ldr	r3, [pc, #224]	; (1308 <scalbn+0xe8>)
    1226:	460d      	mov	r5, r1
    1228:	4616      	mov	r6, r2
    122a:	460f      	mov	r7, r1
    122c:	ea01 0303 	and.w	r3, r1, r3
    1230:	ea4f 5c23 	mov.w	ip, r3, asr #20
    1234:	b96b      	cbnz	r3, 1252 <scalbn+0x32>
    1236:	f021 4700 	bic.w	r7, r1, #2147483648	; 0x80000000
    123a:	4307      	orrs	r7, r0
    123c:	d056      	beq.n	12ec <scalbn+0xcc>
    123e:	2200      	movs	r2, #0
    1240:	4b32      	ldr	r3, [pc, #200]	; (130c <scalbn+0xec>)
    1242:	f000 fa29 	bl	1698 <__aeabi_dmul>
    1246:	4f32      	ldr	r7, [pc, #200]	; (1310 <scalbn+0xf0>)
    1248:	42be      	cmp	r6, r7
    124a:	4604      	mov	r4, r0
    124c:	460d      	mov	r5, r1
    124e:	da09      	bge.n	1264 <scalbn+0x44>
    1250:	e038      	b.n	12c4 <scalbn+0xa4>
    1252:	f240 73ff 	movw	r3, #2047	; 0x7ff
    1256:	459c      	cmp	ip, r3
    1258:	d10c      	bne.n	1274 <scalbn+0x54>
    125a:	4602      	mov	r2, r0
    125c:	460b      	mov	r3, r1
    125e:	f000 f869 	bl	1334 <__adddf3>
    1262:	e041      	b.n	12e8 <scalbn+0xc8>
    1264:	4b28      	ldr	r3, [pc, #160]	; (1308 <scalbn+0xe8>)
    1266:	460f      	mov	r7, r1
    1268:	ea01 0303 	and.w	r3, r1, r3
    126c:	ea4f 5c23 	mov.w	ip, r3, asr #20
    1270:	f1ac 0c36 	sub.w	ip, ip, #54	; 0x36
    1274:	44b4      	add	ip, r6
    1276:	f240 73fe 	movw	r3, #2046	; 0x7fe
    127a:	459c      	cmp	ip, r3
    127c:	dc10      	bgt.n	12a0 <scalbn+0x80>
    127e:	f1bc 0f00 	cmp.w	ip, #0
    1282:	dd06      	ble.n	1292 <scalbn+0x72>
    1284:	f027 47fe 	bic.w	r7, r7, #2130706432	; 0x7f000000
    1288:	f427 0770 	bic.w	r7, r7, #15728640	; 0xf00000
    128c:	ea47 550c 	orr.w	r5, r7, ip, lsl #20
    1290:	e02c      	b.n	12ec <scalbn+0xcc>
    1292:	f11c 0f35 	cmn.w	ip, #53	; 0x35
    1296:	da19      	bge.n	12cc <scalbn+0xac>
    1298:	f24c 3350 	movw	r3, #50000	; 0xc350
    129c:	429e      	cmp	r6, r3
    129e:	dd0a      	ble.n	12b6 <scalbn+0x96>
    12a0:	4622      	mov	r2, r4
    12a2:	462b      	mov	r3, r5
    12a4:	a114      	add	r1, pc, #80	; (adr r1, 12f8 <scalbn+0xd8>)
    12a6:	e9d1 0100 	ldrd	r0, r1, [r1]
    12aa:	f000 f835 	bl	1318 <copysign>
    12ae:	a312      	add	r3, pc, #72	; (adr r3, 12f8 <scalbn+0xd8>)
    12b0:	e9d3 2300 	ldrd	r2, r3, [r3]
    12b4:	e016      	b.n	12e4 <scalbn+0xc4>
    12b6:	a112      	add	r1, pc, #72	; (adr r1, 1300 <scalbn+0xe0>)
    12b8:	e9d1 0100 	ldrd	r0, r1, [r1]
    12bc:	4622      	mov	r2, r4
    12be:	462b      	mov	r3, r5
    12c0:	f000 f82a 	bl	1318 <copysign>
    12c4:	a30e      	add	r3, pc, #56	; (adr r3, 1300 <scalbn+0xe0>)
    12c6:	e9d3 2300 	ldrd	r2, r3, [r3]
    12ca:	e00b      	b.n	12e4 <scalbn+0xc4>
    12cc:	f10c 0c36 	add.w	ip, ip, #54	; 0x36
    12d0:	f027 47fe 	bic.w	r7, r7, #2130706432	; 0x7f000000
    12d4:	f427 0770 	bic.w	r7, r7, #15728640	; 0xf00000
    12d8:	4b0e      	ldr	r3, [pc, #56]	; (1314 <scalbn+0xf4>)
    12da:	ea47 550c 	orr.w	r5, r7, ip, lsl #20
    12de:	4620      	mov	r0, r4
    12e0:	4629      	mov	r1, r5
    12e2:	2200      	movs	r2, #0
    12e4:	f000 f9d8 	bl	1698 <__aeabi_dmul>
    12e8:	4604      	mov	r4, r0
    12ea:	460d      	mov	r5, r1
    12ec:	4620      	mov	r0, r4
    12ee:	4629      	mov	r1, r5
    12f0:	bdf8      	pop	{r3, r4, r5, r6, r7, pc}
    12f2:	bf00      	nop
    12f4:	f3af 8000 	nop.w
    12f8:	8800759c 	.word	0x8800759c
    12fc:	7e37e43c 	.word	0x7e37e43c
    1300:	c2f8f359 	.word	0xc2f8f359
    1304:	01a56e1f 	.word	0x01a56e1f
    1308:	7ff00000 	.word	0x7ff00000
    130c:	43500000 	.word	0x43500000
    1310:	ffff3cb0 	.word	0xffff3cb0
    1314:	3c900000 	.word	0x3c900000

00001318 <copysign>:
    1318:	f003 4300 	and.w	r3, r3, #2147483648	; 0x80000000
    131c:	f021 4200 	bic.w	r2, r1, #2147483648	; 0x80000000
    1320:	b530      	push	{r4, r5, lr}
    1322:	ea43 0102 	orr.w	r1, r3, r2
    1326:	bd30      	pop	{r4, r5, pc}

00001328 <__aeabi_drsub>:
    1328:	f081 4100 	eor.w	r1, r1, #2147483648	; 0x80000000
    132c:	e002      	b.n	1334 <__adddf3>
    132e:	bf00      	nop

00001330 <__aeabi_dsub>:
    1330:	f083 4300 	eor.w	r3, r3, #2147483648	; 0x80000000

00001334 <__adddf3>:
    1334:	b530      	push	{r4, r5, lr}
    1336:	ea4f 0441 	mov.w	r4, r1, lsl #1
    133a:	ea4f 0543 	mov.w	r5, r3, lsl #1
    133e:	ea94 0f05 	teq	r4, r5
    1342:	bf08      	it	eq
    1344:	ea90 0f02 	teqeq	r0, r2
    1348:	bf1f      	itttt	ne
    134a:	ea54 0c00 	orrsne.w	ip, r4, r0
    134e:	ea55 0c02 	orrsne.w	ip, r5, r2
    1352:	ea7f 5c64 	mvnsne.w	ip, r4, asr #21
    1356:	ea7f 5c65 	mvnsne.w	ip, r5, asr #21
    135a:	f000 80e2 	beq.w	1522 <__adddf3+0x1ee>
    135e:	ea4f 5454 	mov.w	r4, r4, lsr #21
    1362:	ebd4 5555 	rsbs	r5, r4, r5, lsr #21
    1366:	bfb8      	it	lt
    1368:	426d      	neglt	r5, r5
    136a:	dd0c      	ble.n	1386 <__adddf3+0x52>
    136c:	442c      	add	r4, r5
    136e:	ea80 0202 	eor.w	r2, r0, r2
    1372:	ea81 0303 	eor.w	r3, r1, r3
    1376:	ea82 0000 	eor.w	r0, r2, r0
    137a:	ea83 0101 	eor.w	r1, r3, r1
    137e:	ea80 0202 	eor.w	r2, r0, r2
    1382:	ea81 0303 	eor.w	r3, r1, r3
    1386:	2d36      	cmp	r5, #54	; 0x36
    1388:	bf88      	it	hi
    138a:	bd30      	pophi	{r4, r5, pc}
    138c:	f011 4f00 	tst.w	r1, #2147483648	; 0x80000000
    1390:	ea4f 3101 	mov.w	r1, r1, lsl #12
    1394:	f44f 1c80 	mov.w	ip, #1048576	; 0x100000
    1398:	ea4c 3111 	orr.w	r1, ip, r1, lsr #12
    139c:	d002      	beq.n	13a4 <__adddf3+0x70>
    139e:	4240      	negs	r0, r0
    13a0:	eb61 0141 	sbc.w	r1, r1, r1, lsl #1
    13a4:	f013 4f00 	tst.w	r3, #2147483648	; 0x80000000
    13a8:	ea4f 3303 	mov.w	r3, r3, lsl #12
    13ac:	ea4c 3313 	orr.w	r3, ip, r3, lsr #12
    13b0:	d002      	beq.n	13b8 <__adddf3+0x84>
    13b2:	4252      	negs	r2, r2
    13b4:	eb63 0343 	sbc.w	r3, r3, r3, lsl #1
    13b8:	ea94 0f05 	teq	r4, r5
    13bc:	f000 80a7 	beq.w	150e <__adddf3+0x1da>
    13c0:	f1a4 0401 	sub.w	r4, r4, #1
    13c4:	f1d5 0e20 	rsbs	lr, r5, #32
    13c8:	db0d      	blt.n	13e6 <__adddf3+0xb2>
    13ca:	fa02 fc0e 	lsl.w	ip, r2, lr
    13ce:	fa22 f205 	lsr.w	r2, r2, r5
    13d2:	1880      	adds	r0, r0, r2
    13d4:	f141 0100 	adc.w	r1, r1, #0
    13d8:	fa03 f20e 	lsl.w	r2, r3, lr
    13dc:	1880      	adds	r0, r0, r2
    13de:	fa43 f305 	asr.w	r3, r3, r5
    13e2:	4159      	adcs	r1, r3
    13e4:	e00e      	b.n	1404 <__adddf3+0xd0>
    13e6:	f1a5 0520 	sub.w	r5, r5, #32
    13ea:	f10e 0e20 	add.w	lr, lr, #32
    13ee:	2a01      	cmp	r2, #1
    13f0:	fa03 fc0e 	lsl.w	ip, r3, lr
    13f4:	bf28      	it	cs
    13f6:	f04c 0c02 	orrcs.w	ip, ip, #2
    13fa:	fa43 f305 	asr.w	r3, r3, r5
    13fe:	18c0      	adds	r0, r0, r3
    1400:	eb51 71e3 	adcs.w	r1, r1, r3, asr #31
    1404:	f001 4500 	and.w	r5, r1, #2147483648	; 0x80000000
    1408:	d507      	bpl.n	141a <__adddf3+0xe6>
    140a:	f04f 0e00 	mov.w	lr, #0
    140e:	f1dc 0c00 	rsbs	ip, ip, #0
    1412:	eb7e 0000 	sbcs.w	r0, lr, r0
    1416:	eb6e 0101 	sbc.w	r1, lr, r1
    141a:	f5b1 1f80 	cmp.w	r1, #1048576	; 0x100000
    141e:	d31b      	bcc.n	1458 <__adddf3+0x124>
    1420:	f5b1 1f00 	cmp.w	r1, #2097152	; 0x200000
    1424:	d30c      	bcc.n	1440 <__adddf3+0x10c>
    1426:	0849      	lsrs	r1, r1, #1
    1428:	ea5f 0030 	movs.w	r0, r0, rrx
    142c:	ea4f 0c3c 	mov.w	ip, ip, rrx
    1430:	f104 0401 	add.w	r4, r4, #1
    1434:	ea4f 5244 	mov.w	r2, r4, lsl #21
    1438:	f512 0f80 	cmn.w	r2, #4194304	; 0x400000
    143c:	f080 809a 	bcs.w	1574 <__adddf3+0x240>
    1440:	f1bc 4f00 	cmp.w	ip, #2147483648	; 0x80000000
    1444:	bf08      	it	eq
    1446:	ea5f 0c50 	movseq.w	ip, r0, lsr #1
    144a:	f150 0000 	adcs.w	r0, r0, #0
    144e:	eb41 5104 	adc.w	r1, r1, r4, lsl #20
    1452:	ea41 0105 	orr.w	r1, r1, r5
    1456:	bd30      	pop	{r4, r5, pc}
    1458:	ea5f 0c4c 	movs.w	ip, ip, lsl #1
    145c:	4140      	adcs	r0, r0
    145e:	eb41 0101 	adc.w	r1, r1, r1
    1462:	f411 1f80 	tst.w	r1, #1048576	; 0x100000
    1466:	f1a4 0401 	sub.w	r4, r4, #1
    146a:	d1e9      	bne.n	1440 <__adddf3+0x10c>
    146c:	f091 0f00 	teq	r1, #0
    1470:	bf04      	itt	eq
    1472:	4601      	moveq	r1, r0
    1474:	2000      	moveq	r0, #0
    1476:	fab1 f381 	clz	r3, r1
    147a:	bf08      	it	eq
    147c:	3320      	addeq	r3, #32
    147e:	f1a3 030b 	sub.w	r3, r3, #11
    1482:	f1b3 0220 	subs.w	r2, r3, #32
    1486:	da0c      	bge.n	14a2 <__adddf3+0x16e>
    1488:	320c      	adds	r2, #12
    148a:	dd08      	ble.n	149e <__adddf3+0x16a>
    148c:	f102 0c14 	add.w	ip, r2, #20
    1490:	f1c2 020c 	rsb	r2, r2, #12
    1494:	fa01 f00c 	lsl.w	r0, r1, ip
    1498:	fa21 f102 	lsr.w	r1, r1, r2
    149c:	e00c      	b.n	14b8 <__adddf3+0x184>
    149e:	f102 0214 	add.w	r2, r2, #20
    14a2:	bfd8      	it	le
    14a4:	f1c2 0c20 	rsble	ip, r2, #32
    14a8:	fa01 f102 	lsl.w	r1, r1, r2
    14ac:	fa20 fc0c 	lsr.w	ip, r0, ip
    14b0:	bfdc      	itt	le
    14b2:	ea41 010c 	orrle.w	r1, r1, ip
    14b6:	4090      	lslle	r0, r2
    14b8:	1ae4      	subs	r4, r4, r3
    14ba:	bfa2      	ittt	ge
    14bc:	eb01 5104 	addge.w	r1, r1, r4, lsl #20
    14c0:	4329      	orrge	r1, r5
    14c2:	bd30      	popge	{r4, r5, pc}
    14c4:	ea6f 0404 	mvn.w	r4, r4
    14c8:	3c1f      	subs	r4, #31
    14ca:	da1c      	bge.n	1506 <__adddf3+0x1d2>
    14cc:	340c      	adds	r4, #12
    14ce:	dc0e      	bgt.n	14ee <__adddf3+0x1ba>
    14d0:	f104 0414 	add.w	r4, r4, #20
    14d4:	f1c4 0220 	rsb	r2, r4, #32
    14d8:	fa20 f004 	lsr.w	r0, r0, r4
    14dc:	fa01 f302 	lsl.w	r3, r1, r2
    14e0:	ea40 0003 	orr.w	r0, r0, r3
    14e4:	fa21 f304 	lsr.w	r3, r1, r4
    14e8:	ea45 0103 	orr.w	r1, r5, r3
    14ec:	bd30      	pop	{r4, r5, pc}
    14ee:	f1c4 040c 	rsb	r4, r4, #12
    14f2:	f1c4 0220 	rsb	r2, r4, #32
    14f6:	fa20 f002 	lsr.w	r0, r0, r2
    14fa:	fa01 f304 	lsl.w	r3, r1, r4
    14fe:	ea40 0003 	orr.w	r0, r0, r3
    1502:	4629      	mov	r1, r5
    1504:	bd30      	pop	{r4, r5, pc}
    1506:	fa21 f004 	lsr.w	r0, r1, r4
    150a:	4629      	mov	r1, r5
    150c:	bd30      	pop	{r4, r5, pc}
    150e:	f094 0f00 	teq	r4, #0
    1512:	f483 1380 	eor.w	r3, r3, #1048576	; 0x100000
    1516:	bf06      	itte	eq
    1518:	f481 1180 	eoreq.w	r1, r1, #1048576	; 0x100000
    151c:	3401      	addeq	r4, #1
    151e:	3d01      	subne	r5, #1
    1520:	e74e      	b.n	13c0 <__adddf3+0x8c>
    1522:	ea7f 5c64 	mvns.w	ip, r4, asr #21
    1526:	bf18      	it	ne
    1528:	ea7f 5c65 	mvnsne.w	ip, r5, asr #21
    152c:	d029      	beq.n	1582 <__adddf3+0x24e>
    152e:	ea94 0f05 	teq	r4, r5
    1532:	bf08      	it	eq
    1534:	ea90 0f02 	teqeq	r0, r2
    1538:	d005      	beq.n	1546 <__adddf3+0x212>
    153a:	ea54 0c00 	orrs.w	ip, r4, r0
    153e:	bf04      	itt	eq
    1540:	4619      	moveq	r1, r3
    1542:	4610      	moveq	r0, r2
    1544:	bd30      	pop	{r4, r5, pc}
    1546:	ea91 0f03 	teq	r1, r3
    154a:	bf1e      	ittt	ne
    154c:	2100      	movne	r1, #0
    154e:	2000      	movne	r0, #0
    1550:	bd30      	popne	{r4, r5, pc}
    1552:	ea5f 5c54 	movs.w	ip, r4, lsr #21
    1556:	d105      	bne.n	1564 <__adddf3+0x230>
    1558:	0040      	lsls	r0, r0, #1
    155a:	4149      	adcs	r1, r1
    155c:	bf28      	it	cs
    155e:	f041 4100 	orrcs.w	r1, r1, #2147483648	; 0x80000000
    1562:	bd30      	pop	{r4, r5, pc}
    1564:	f514 0480 	adds.w	r4, r4, #4194304	; 0x400000
    1568:	bf3c      	itt	cc
    156a:	f501 1180 	addcc.w	r1, r1, #1048576	; 0x100000
    156e:	bd30      	popcc	{r4, r5, pc}
    1570:	f001 4500 	and.w	r5, r1, #2147483648	; 0x80000000
    1574:	f045 41fe 	orr.w	r1, r5, #2130706432	; 0x7f000000
    1578:	f441 0170 	orr.w	r1, r1, #15728640	; 0xf00000
    157c:	f04f 0000 	mov.w	r0, #0
    1580:	bd30      	pop	{r4, r5, pc}
    1582:	ea7f 5c64 	mvns.w	ip, r4, asr #21
    1586:	bf1a      	itte	ne
    1588:	4619      	movne	r1, r3
    158a:	4610      	movne	r0, r2
    158c:	ea7f 5c65 	mvnseq.w	ip, r5, asr #21
    1590:	bf1c      	itt	ne
    1592:	460b      	movne	r3, r1
    1594:	4602      	movne	r2, r0
    1596:	ea50 3401 	orrs.w	r4, r0, r1, lsl #12
    159a:	bf06      	itte	eq
    159c:	ea52 3503 	orrseq.w	r5, r2, r3, lsl #12
    15a0:	ea91 0f03 	teqeq	r1, r3
    15a4:	f441 2100 	orrne.w	r1, r1, #524288	; 0x80000
    15a8:	bd30      	pop	{r4, r5, pc}
    15aa:	bf00      	nop

000015ac <__aeabi_ui2d>:
    15ac:	f090 0f00 	teq	r0, #0
    15b0:	bf04      	itt	eq
    15b2:	2100      	moveq	r1, #0
    15b4:	4770      	bxeq	lr
    15b6:	b530      	push	{r4, r5, lr}
    15b8:	f44f 6480 	mov.w	r4, #1024	; 0x400
    15bc:	f104 0432 	add.w	r4, r4, #50	; 0x32
    15c0:	f04f 0500 	mov.w	r5, #0
    15c4:	f04f 0100 	mov.w	r1, #0
    15c8:	e750      	b.n	146c <__adddf3+0x138>
    15ca:	bf00      	nop

000015cc <__aeabi_i2d>:
    15cc:	f090 0f00 	teq	r0, #0
    15d0:	bf04      	itt	eq
    15d2:	2100      	moveq	r1, #0
    15d4:	4770      	bxeq	lr
    15d6:	b530      	push	{r4, r5, lr}
    15d8:	f44f 6480 	mov.w	r4, #1024	; 0x400
    15dc:	f104 0432 	add.w	r4, r4, #50	; 0x32
    15e0:	f010 4500 	ands.w	r5, r0, #2147483648	; 0x80000000
    15e4:	bf48      	it	mi
    15e6:	4240      	negmi	r0, r0
    15e8:	f04f 0100 	mov.w	r1, #0
    15ec:	e73e      	b.n	146c <__adddf3+0x138>
    15ee:	bf00      	nop

000015f0 <__aeabi_f2d>:
    15f0:	0042      	lsls	r2, r0, #1
    15f2:	ea4f 01e2 	mov.w	r1, r2, asr #3
    15f6:	ea4f 0131 	mov.w	r1, r1, rrx
    15fa:	ea4f 7002 	mov.w	r0, r2, lsl #28
    15fe:	bf1f      	itttt	ne
    1600:	f012 437f 	andsne.w	r3, r2, #4278190080	; 0xff000000
    1604:	f093 4f7f 	teqne	r3, #4278190080	; 0xff000000
    1608:	f081 5160 	eorne.w	r1, r1, #939524096	; 0x38000000
    160c:	4770      	bxne	lr
    160e:	f092 0f00 	teq	r2, #0
    1612:	bf14      	ite	ne
    1614:	f093 4f7f 	teqne	r3, #4278190080	; 0xff000000
    1618:	4770      	bxeq	lr
    161a:	b530      	push	{r4, r5, lr}
    161c:	f44f 7460 	mov.w	r4, #896	; 0x380
    1620:	f001 4500 	and.w	r5, r1, #2147483648	; 0x80000000
    1624:	f021 4100 	bic.w	r1, r1, #2147483648	; 0x80000000
    1628:	e720      	b.n	146c <__adddf3+0x138>
    162a:	bf00      	nop

0000162c <__aeabi_ul2d>:
    162c:	ea50 0201 	orrs.w	r2, r0, r1
    1630:	bf08      	it	eq
    1632:	4770      	bxeq	lr
    1634:	b530      	push	{r4, r5, lr}
    1636:	f04f 0500 	mov.w	r5, #0
    163a:	e00a      	b.n	1652 <__aeabi_l2d+0x16>

0000163c <__aeabi_l2d>:
    163c:	ea50 0201 	orrs.w	r2, r0, r1
    1640:	bf08      	it	eq
    1642:	4770      	bxeq	lr
    1644:	b530      	push	{r4, r5, lr}
    1646:	f011 4500 	ands.w	r5, r1, #2147483648	; 0x80000000
    164a:	d502      	bpl.n	1652 <__aeabi_l2d+0x16>
    164c:	4240      	negs	r0, r0
    164e:	eb61 0141 	sbc.w	r1, r1, r1, lsl #1
    1652:	f44f 6480 	mov.w	r4, #1024	; 0x400
    1656:	f104 0432 	add.w	r4, r4, #50	; 0x32
    165a:	ea5f 5c91 	movs.w	ip, r1, lsr #22
    165e:	f43f aedc 	beq.w	141a <__adddf3+0xe6>
    1662:	f04f 0203 	mov.w	r2, #3
    1666:	ea5f 0cdc 	movs.w	ip, ip, lsr #3
    166a:	bf18      	it	ne
    166c:	3203      	addne	r2, #3
    166e:	ea5f 0cdc 	movs.w	ip, ip, lsr #3
    1672:	bf18      	it	ne
    1674:	3203      	addne	r2, #3
    1676:	eb02 02dc 	add.w	r2, r2, ip, lsr #3
    167a:	f1c2 0320 	rsb	r3, r2, #32
    167e:	fa00 fc03 	lsl.w	ip, r0, r3
    1682:	fa20 f002 	lsr.w	r0, r0, r2
    1686:	fa01 fe03 	lsl.w	lr, r1, r3
    168a:	ea40 000e 	orr.w	r0, r0, lr
    168e:	fa21 f102 	lsr.w	r1, r1, r2
    1692:	4414      	add	r4, r2
    1694:	e6c1      	b.n	141a <__adddf3+0xe6>
    1696:	bf00      	nop

00001698 <__aeabi_dmul>:
    1698:	b570      	push	{r4, r5, r6, lr}
    169a:	f04f 0cff 	mov.w	ip, #255	; 0xff
    169e:	f44c 6ce0 	orr.w	ip, ip, #1792	; 0x700
    16a2:	ea1c 5411 	ands.w	r4, ip, r1, lsr #20
    16a6:	bf1d      	ittte	ne
    16a8:	ea1c 5513 	andsne.w	r5, ip, r3, lsr #20
    16ac:	ea94 0f0c 	teqne	r4, ip
    16b0:	ea95 0f0c 	teqne	r5, ip
    16b4:	f000 f8de 	bleq	1874 <__aeabi_dmul+0x1dc>
    16b8:	442c      	add	r4, r5
    16ba:	ea81 0603 	eor.w	r6, r1, r3
    16be:	ea21 514c 	bic.w	r1, r1, ip, lsl #21
    16c2:	ea23 534c 	bic.w	r3, r3, ip, lsl #21
    16c6:	ea50 3501 	orrs.w	r5, r0, r1, lsl #12
    16ca:	bf18      	it	ne
    16cc:	ea52 3503 	orrsne.w	r5, r2, r3, lsl #12
    16d0:	f441 1180 	orr.w	r1, r1, #1048576	; 0x100000
    16d4:	f443 1380 	orr.w	r3, r3, #1048576	; 0x100000
    16d8:	d038      	beq.n	174c <__aeabi_dmul+0xb4>
    16da:	fba0 ce02 	umull	ip, lr, r0, r2
    16de:	f04f 0500 	mov.w	r5, #0
    16e2:	fbe1 e502 	umlal	lr, r5, r1, r2
    16e6:	f006 4200 	and.w	r2, r6, #2147483648	; 0x80000000
    16ea:	fbe0 e503 	umlal	lr, r5, r0, r3
    16ee:	f04f 0600 	mov.w	r6, #0
    16f2:	fbe1 5603 	umlal	r5, r6, r1, r3
    16f6:	f09c 0f00 	teq	ip, #0
    16fa:	bf18      	it	ne
    16fc:	f04e 0e01 	orrne.w	lr, lr, #1
    1700:	f1a4 04ff 	sub.w	r4, r4, #255	; 0xff
    1704:	f5b6 7f00 	cmp.w	r6, #512	; 0x200
    1708:	f564 7440 	sbc.w	r4, r4, #768	; 0x300
    170c:	d204      	bcs.n	1718 <__aeabi_dmul+0x80>
    170e:	ea5f 0e4e 	movs.w	lr, lr, lsl #1
    1712:	416d      	adcs	r5, r5
    1714:	eb46 0606 	adc.w	r6, r6, r6
    1718:	ea42 21c6 	orr.w	r1, r2, r6, lsl #11
    171c:	ea41 5155 	orr.w	r1, r1, r5, lsr #21
    1720:	ea4f 20c5 	mov.w	r0, r5, lsl #11
    1724:	ea40 505e 	orr.w	r0, r0, lr, lsr #21
    1728:	ea4f 2ece 	mov.w	lr, lr, lsl #11
    172c:	f1b4 0cfd 	subs.w	ip, r4, #253	; 0xfd
    1730:	bf88      	it	hi
    1732:	f5bc 6fe0 	cmphi.w	ip, #1792	; 0x700
    1736:	d81e      	bhi.n	1776 <__aeabi_dmul+0xde>
    1738:	f1be 4f00 	cmp.w	lr, #2147483648	; 0x80000000
    173c:	bf08      	it	eq
    173e:	ea5f 0e50 	movseq.w	lr, r0, lsr #1
    1742:	f150 0000 	adcs.w	r0, r0, #0
    1746:	eb41 5104 	adc.w	r1, r1, r4, lsl #20
    174a:	bd70      	pop	{r4, r5, r6, pc}
    174c:	f006 4600 	and.w	r6, r6, #2147483648	; 0x80000000
    1750:	ea46 0101 	orr.w	r1, r6, r1
    1754:	ea40 0002 	orr.w	r0, r0, r2
    1758:	ea81 0103 	eor.w	r1, r1, r3
    175c:	ebb4 045c 	subs.w	r4, r4, ip, lsr #1
    1760:	bfc2      	ittt	gt
    1762:	ebd4 050c 	rsbsgt	r5, r4, ip
    1766:	ea41 5104 	orrgt.w	r1, r1, r4, lsl #20
    176a:	bd70      	popgt	{r4, r5, r6, pc}
    176c:	f441 1180 	orr.w	r1, r1, #1048576	; 0x100000
    1770:	f04f 0e00 	mov.w	lr, #0
    1774:	3c01      	subs	r4, #1
    1776:	f300 80ab 	bgt.w	18d0 <__aeabi_dmul+0x238>
    177a:	f114 0f36 	cmn.w	r4, #54	; 0x36
    177e:	bfde      	ittt	le
    1780:	2000      	movle	r0, #0
    1782:	f001 4100 	andle.w	r1, r1, #2147483648	; 0x80000000
    1786:	bd70      	pople	{r4, r5, r6, pc}
    1788:	f1c4 0400 	rsb	r4, r4, #0
    178c:	3c20      	subs	r4, #32
    178e:	da35      	bge.n	17fc <__aeabi_dmul+0x164>
    1790:	340c      	adds	r4, #12
    1792:	dc1b      	bgt.n	17cc <__aeabi_dmul+0x134>
    1794:	f104 0414 	add.w	r4, r4, #20
    1798:	f1c4 0520 	rsb	r5, r4, #32
    179c:	fa00 f305 	lsl.w	r3, r0, r5
    17a0:	fa20 f004 	lsr.w	r0, r0, r4
    17a4:	fa01 f205 	lsl.w	r2, r1, r5
    17a8:	ea40 0002 	orr.w	r0, r0, r2
    17ac:	f001 4200 	and.w	r2, r1, #2147483648	; 0x80000000
    17b0:	f021 4100 	bic.w	r1, r1, #2147483648	; 0x80000000
    17b4:	eb10 70d3 	adds.w	r0, r0, r3, lsr #31
    17b8:	fa21 f604 	lsr.w	r6, r1, r4
    17bc:	eb42 0106 	adc.w	r1, r2, r6
    17c0:	ea5e 0e43 	orrs.w	lr, lr, r3, lsl #1
    17c4:	bf08      	it	eq
    17c6:	ea20 70d3 	biceq.w	r0, r0, r3, lsr #31
    17ca:	bd70      	pop	{r4, r5, r6, pc}
    17cc:	f1c4 040c 	rsb	r4, r4, #12
    17d0:	f1c4 0520 	rsb	r5, r4, #32
    17d4:	fa00 f304 	lsl.w	r3, r0, r4
    17d8:	fa20 f005 	lsr.w	r0, r0, r5
    17dc:	fa01 f204 	lsl.w	r2, r1, r4
    17e0:	ea40 0002 	orr.w	r0, r0, r2
    17e4:	f001 4100 	and.w	r1, r1, #2147483648	; 0x80000000
    17e8:	eb10 70d3 	adds.w	r0, r0, r3, lsr #31
    17ec:	f141 0100 	adc.w	r1, r1, #0
    17f0:	ea5e 0e43 	orrs.w	lr, lr, r3, lsl #1
    17f4:	bf08      	it	eq
    17f6:	ea20 70d3 	biceq.w	r0, r0, r3, lsr #31
    17fa:	bd70      	pop	{r4, r5, r6, pc}
    17fc:	f1c4 0520 	rsb	r5, r4, #32
    1800:	fa00 f205 	lsl.w	r2, r0, r5
    1804:	ea4e 0e02 	orr.w	lr, lr, r2
    1808:	fa20 f304 	lsr.w	r3, r0, r4
    180c:	fa01 f205 	lsl.w	r2, r1, r5
    1810:	ea43 0302 	orr.w	r3, r3, r2
    1814:	fa21 f004 	lsr.w	r0, r1, r4
    1818:	f001 4100 	and.w	r1, r1, #2147483648	; 0x80000000
    181c:	fa21 f204 	lsr.w	r2, r1, r4
    1820:	ea20 0002 	bic.w	r0, r0, r2
    1824:	eb00 70d3 	add.w	r0, r0, r3, lsr #31
    1828:	ea5e 0e43 	orrs.w	lr, lr, r3, lsl #1
    182c:	bf08      	it	eq
    182e:	ea20 70d3 	biceq.w	r0, r0, r3, lsr #31
    1832:	bd70      	pop	{r4, r5, r6, pc}
    1834:	f094 0f00 	teq	r4, #0
    1838:	d10f      	bne.n	185a <__aeabi_dmul+0x1c2>
    183a:	f001 4600 	and.w	r6, r1, #2147483648	; 0x80000000
    183e:	0040      	lsls	r0, r0, #1
    1840:	eb41 0101 	adc.w	r1, r1, r1
    1844:	f411 1f80 	tst.w	r1, #1048576	; 0x100000
    1848:	bf08      	it	eq
    184a:	3c01      	subeq	r4, #1
    184c:	d0f7      	beq.n	183e <__aeabi_dmul+0x1a6>
    184e:	ea41 0106 	orr.w	r1, r1, r6
    1852:	f095 0f00 	teq	r5, #0
    1856:	bf18      	it	ne
    1858:	4770      	bxne	lr
    185a:	f003 4600 	and.w	r6, r3, #2147483648	; 0x80000000
    185e:	0052      	lsls	r2, r2, #1
    1860:	eb43 0303 	adc.w	r3, r3, r3
    1864:	f413 1f80 	tst.w	r3, #1048576	; 0x100000
    1868:	bf08      	it	eq
    186a:	3d01      	subeq	r5, #1
    186c:	d0f7      	beq.n	185e <__aeabi_dmul+0x1c6>
    186e:	ea43 0306 	orr.w	r3, r3, r6
    1872:	4770      	bx	lr
    1874:	ea94 0f0c 	teq	r4, ip
    1878:	ea0c 5513 	and.w	r5, ip, r3, lsr #20
    187c:	bf18      	it	ne
    187e:	ea95 0f0c 	teqne	r5, ip
    1882:	d00c      	beq.n	189e <__aeabi_dmul+0x206>
    1884:	ea50 0641 	orrs.w	r6, r0, r1, lsl #1
    1888:	bf18      	it	ne
    188a:	ea52 0643 	orrsne.w	r6, r2, r3, lsl #1
    188e:	d1d1      	bne.n	1834 <__aeabi_dmul+0x19c>
    1890:	ea81 0103 	eor.w	r1, r1, r3
    1894:	f001 4100 	and.w	r1, r1, #2147483648	; 0x80000000
    1898:	f04f 0000 	mov.w	r0, #0
    189c:	bd70      	pop	{r4, r5, r6, pc}
    189e:	ea50 0641 	orrs.w	r6, r0, r1, lsl #1
    18a2:	bf06      	itte	eq
    18a4:	4610      	moveq	r0, r2
    18a6:	4619      	moveq	r1, r3
    18a8:	ea52 0643 	orrsne.w	r6, r2, r3, lsl #1
    18ac:	d019      	beq.n	18e2 <__aeabi_dmul+0x24a>
    18ae:	ea94 0f0c 	teq	r4, ip
    18b2:	d102      	bne.n	18ba <__aeabi_dmul+0x222>
    18b4:	ea50 3601 	orrs.w	r6, r0, r1, lsl #12
    18b8:	d113      	bne.n	18e2 <__aeabi_dmul+0x24a>
    18ba:	ea95 0f0c 	teq	r5, ip
    18be:	d105      	bne.n	18cc <__aeabi_dmul+0x234>
    18c0:	ea52 3603 	orrs.w	r6, r2, r3, lsl #12
    18c4:	bf1c      	itt	ne
    18c6:	4610      	movne	r0, r2
    18c8:	4619      	movne	r1, r3
    18ca:	d10a      	bne.n	18e2 <__aeabi_dmul+0x24a>
    18cc:	ea81 0103 	eor.w	r1, r1, r3
    18d0:	f001 4100 	and.w	r1, r1, #2147483648	; 0x80000000
    18d4:	f041 41fe 	orr.w	r1, r1, #2130706432	; 0x7f000000
    18d8:	f441 0170 	orr.w	r1, r1, #15728640	; 0xf00000
    18dc:	f04f 0000 	mov.w	r0, #0
    18e0:	bd70      	pop	{r4, r5, r6, pc}
    18e2:	f041 41fe 	orr.w	r1, r1, #2130706432	; 0x7f000000
    18e6:	f441 0178 	orr.w	r1, r1, #16252928	; 0xf80000
    18ea:	bd70      	pop	{r4, r5, r6, pc}

000018ec <__aeabi_ddiv>:
    18ec:	b570      	push	{r4, r5, r6, lr}
    18ee:	f04f 0cff 	mov.w	ip, #255	; 0xff
    18f2:	f44c 6ce0 	orr.w	ip, ip, #1792	; 0x700
    18f6:	ea1c 5411 	ands.w	r4, ip, r1, lsr #20
    18fa:	bf1d      	ittte	ne
    18fc:	ea1c 5513 	andsne.w	r5, ip, r3, lsr #20
    1900:	ea94 0f0c 	teqne	r4, ip
    1904:	ea95 0f0c 	teqne	r5, ip
    1908:	f000 f8a7 	bleq	1a5a <__aeabi_ddiv+0x16e>
    190c:	eba4 0405 	sub.w	r4, r4, r5
    1910:	ea81 0e03 	eor.w	lr, r1, r3
    1914:	ea52 3503 	orrs.w	r5, r2, r3, lsl #12
    1918:	ea4f 3101 	mov.w	r1, r1, lsl #12
    191c:	f000 8088 	beq.w	1a30 <__aeabi_ddiv+0x144>
    1920:	ea4f 3303 	mov.w	r3, r3, lsl #12
    1924:	f04f 5580 	mov.w	r5, #268435456	; 0x10000000
    1928:	ea45 1313 	orr.w	r3, r5, r3, lsr #4
    192c:	ea43 6312 	orr.w	r3, r3, r2, lsr #24
    1930:	ea4f 2202 	mov.w	r2, r2, lsl #8
    1934:	ea45 1511 	orr.w	r5, r5, r1, lsr #4
    1938:	ea45 6510 	orr.w	r5, r5, r0, lsr #24
    193c:	ea4f 2600 	mov.w	r6, r0, lsl #8
    1940:	f00e 4100 	and.w	r1, lr, #2147483648	; 0x80000000
    1944:	429d      	cmp	r5, r3
    1946:	bf08      	it	eq
    1948:	4296      	cmpeq	r6, r2
    194a:	f144 04fd 	adc.w	r4, r4, #253	; 0xfd
    194e:	f504 7440 	add.w	r4, r4, #768	; 0x300
    1952:	d202      	bcs.n	195a <__aeabi_ddiv+0x6e>
    1954:	085b      	lsrs	r3, r3, #1
    1956:	ea4f 0232 	mov.w	r2, r2, rrx
    195a:	1ab6      	subs	r6, r6, r2
    195c:	eb65 0503 	sbc.w	r5, r5, r3
    1960:	085b      	lsrs	r3, r3, #1
    1962:	ea4f 0232 	mov.w	r2, r2, rrx
    1966:	f44f 1080 	mov.w	r0, #1048576	; 0x100000
    196a:	f44f 2c00 	mov.w	ip, #524288	; 0x80000
    196e:	ebb6 0e02 	subs.w	lr, r6, r2
    1972:	eb75 0e03 	sbcs.w	lr, r5, r3
    1976:	bf22      	ittt	cs
    1978:	1ab6      	subcs	r6, r6, r2
    197a:	4675      	movcs	r5, lr
    197c:	ea40 000c 	orrcs.w	r0, r0, ip
    1980:	085b      	lsrs	r3, r3, #1
    1982:	ea4f 0232 	mov.w	r2, r2, rrx
    1986:	ebb6 0e02 	subs.w	lr, r6, r2
    198a:	eb75 0e03 	sbcs.w	lr, r5, r3
    198e:	bf22      	ittt	cs
    1990:	1ab6      	subcs	r6, r6, r2
    1992:	4675      	movcs	r5, lr
    1994:	ea40 005c 	orrcs.w	r0, r0, ip, lsr #1
    1998:	085b      	lsrs	r3, r3, #1
    199a:	ea4f 0232 	mov.w	r2, r2, rrx
    199e:	ebb6 0e02 	subs.w	lr, r6, r2
    19a2:	eb75 0e03 	sbcs.w	lr, r5, r3
    19a6:	bf22      	ittt	cs
    19a8:	1ab6      	subcs	r6, r6, r2
    19aa:	4675      	movcs	r5, lr
    19ac:	ea40 009c 	orrcs.w	r0, r0, ip, lsr #2
    19b0:	085b      	lsrs	r3, r3, #1
    19b2:	ea4f 0232 	mov.w	r2, r2, rrx
    19b6:	ebb6 0e02 	subs.w	lr, r6, r2
    19ba:	eb75 0e03 	sbcs.w	lr, r5, r3
    19be:	bf22      	ittt	cs
    19c0:	1ab6      	subcs	r6, r6, r2
    19c2:	4675      	movcs	r5, lr
    19c4:	ea40 00dc 	orrcs.w	r0, r0, ip, lsr #3
    19c8:	ea55 0e06 	orrs.w	lr, r5, r6
    19cc:	d018      	beq.n	1a00 <__aeabi_ddiv+0x114>
    19ce:	ea4f 1505 	mov.w	r5, r5, lsl #4
    19d2:	ea45 7516 	orr.w	r5, r5, r6, lsr #28
    19d6:	ea4f 1606 	mov.w	r6, r6, lsl #4
    19da:	ea4f 03c3 	mov.w	r3, r3, lsl #3
    19de:	ea43 7352 	orr.w	r3, r3, r2, lsr #29
    19e2:	ea4f 02c2 	mov.w	r2, r2, lsl #3
    19e6:	ea5f 1c1c 	movs.w	ip, ip, lsr #4
    19ea:	d1c0      	bne.n	196e <__aeabi_ddiv+0x82>
    19ec:	f411 1f80 	tst.w	r1, #1048576	; 0x100000
    19f0:	d10b      	bne.n	1a0a <__aeabi_ddiv+0x11e>
    19f2:	ea41 0100 	orr.w	r1, r1, r0
    19f6:	f04f 0000 	mov.w	r0, #0
    19fa:	f04f 4c00 	mov.w	ip, #2147483648	; 0x80000000
    19fe:	e7b6      	b.n	196e <__aeabi_ddiv+0x82>
    1a00:	f411 1f80 	tst.w	r1, #1048576	; 0x100000
    1a04:	bf04      	itt	eq
    1a06:	4301      	orreq	r1, r0
    1a08:	2000      	moveq	r0, #0
    1a0a:	f1b4 0cfd 	subs.w	ip, r4, #253	; 0xfd
    1a0e:	bf88      	it	hi
    1a10:	f5bc 6fe0 	cmphi.w	ip, #1792	; 0x700
    1a14:	f63f aeaf 	bhi.w	1776 <__aeabi_dmul+0xde>
    1a18:	ebb5 0c03 	subs.w	ip, r5, r3
    1a1c:	bf04      	itt	eq
    1a1e:	ebb6 0c02 	subseq.w	ip, r6, r2
    1a22:	ea5f 0c50 	movseq.w	ip, r0, lsr #1
    1a26:	f150 0000 	adcs.w	r0, r0, #0
    1a2a:	eb41 5104 	adc.w	r1, r1, r4, lsl #20
    1a2e:	bd70      	pop	{r4, r5, r6, pc}
    1a30:	f00e 4e00 	and.w	lr, lr, #2147483648	; 0x80000000
    1a34:	ea4e 3111 	orr.w	r1, lr, r1, lsr #12
    1a38:	eb14 045c 	adds.w	r4, r4, ip, lsr #1
    1a3c:	bfc2      	ittt	gt
    1a3e:	ebd4 050c 	rsbsgt	r5, r4, ip
    1a42:	ea41 5104 	orrgt.w	r1, r1, r4, lsl #20
    1a46:	bd70      	popgt	{r4, r5, r6, pc}
    1a48:	f441 1180 	orr.w	r1, r1, #1048576	; 0x100000
    1a4c:	f04f 0e00 	mov.w	lr, #0
    1a50:	3c01      	subs	r4, #1
    1a52:	e690      	b.n	1776 <__aeabi_dmul+0xde>
    1a54:	ea45 0e06 	orr.w	lr, r5, r6
    1a58:	e68d      	b.n	1776 <__aeabi_dmul+0xde>
    1a5a:	ea0c 5513 	and.w	r5, ip, r3, lsr #20
    1a5e:	ea94 0f0c 	teq	r4, ip
    1a62:	bf08      	it	eq
    1a64:	ea95 0f0c 	teqeq	r5, ip
    1a68:	f43f af3b 	beq.w	18e2 <__aeabi_dmul+0x24a>
    1a6c:	ea94 0f0c 	teq	r4, ip
    1a70:	d10a      	bne.n	1a88 <__aeabi_ddiv+0x19c>
    1a72:	ea50 3401 	orrs.w	r4, r0, r1, lsl #12
    1a76:	f47f af34 	bne.w	18e2 <__aeabi_dmul+0x24a>
    1a7a:	ea95 0f0c 	teq	r5, ip
    1a7e:	f47f af25 	bne.w	18cc <__aeabi_dmul+0x234>
    1a82:	4610      	mov	r0, r2
    1a84:	4619      	mov	r1, r3
    1a86:	e72c      	b.n	18e2 <__aeabi_dmul+0x24a>
    1a88:	ea95 0f0c 	teq	r5, ip
    1a8c:	d106      	bne.n	1a9c <__aeabi_ddiv+0x1b0>
    1a8e:	ea52 3503 	orrs.w	r5, r2, r3, lsl #12
    1a92:	f43f aefd 	beq.w	1890 <__aeabi_dmul+0x1f8>
    1a96:	4610      	mov	r0, r2
    1a98:	4619      	mov	r1, r3
    1a9a:	e722      	b.n	18e2 <__aeabi_dmul+0x24a>
    1a9c:	ea50 0641 	orrs.w	r6, r0, r1, lsl #1
    1aa0:	bf18      	it	ne
    1aa2:	ea52 0643 	orrsne.w	r6, r2, r3, lsl #1
    1aa6:	f47f aec5 	bne.w	1834 <__aeabi_dmul+0x19c>
    1aaa:	ea50 0441 	orrs.w	r4, r0, r1, lsl #1
    1aae:	f47f af0d 	bne.w	18cc <__aeabi_dmul+0x234>
    1ab2:	ea52 0543 	orrs.w	r5, r2, r3, lsl #1
    1ab6:	f47f aeeb 	bne.w	1890 <__aeabi_dmul+0x1f8>
    1aba:	e712      	b.n	18e2 <__aeabi_dmul+0x24a>

00001abc <__aeabi_d2iz>:
    1abc:	ea4f 0241 	mov.w	r2, r1, lsl #1
    1ac0:	f512 1200 	adds.w	r2, r2, #2097152	; 0x200000
    1ac4:	d215      	bcs.n	1af2 <__aeabi_d2iz+0x36>
    1ac6:	d511      	bpl.n	1aec <__aeabi_d2iz+0x30>
    1ac8:	f46f 7378 	mvn.w	r3, #992	; 0x3e0
    1acc:	ebb3 5262 	subs.w	r2, r3, r2, asr #21
    1ad0:	d912      	bls.n	1af8 <__aeabi_d2iz+0x3c>
    1ad2:	ea4f 23c1 	mov.w	r3, r1, lsl #11
    1ad6:	f043 4300 	orr.w	r3, r3, #2147483648	; 0x80000000
    1ada:	ea43 5350 	orr.w	r3, r3, r0, lsr #21
    1ade:	f011 4f00 	tst.w	r1, #2147483648	; 0x80000000
    1ae2:	fa23 f002 	lsr.w	r0, r3, r2
    1ae6:	bf18      	it	ne
    1ae8:	4240      	negne	r0, r0
    1aea:	4770      	bx	lr
    1aec:	f04f 0000 	mov.w	r0, #0
    1af0:	4770      	bx	lr
    1af2:	ea50 3001 	orrs.w	r0, r0, r1, lsl #12
    1af6:	d105      	bne.n	1b04 <__aeabi_d2iz+0x48>
    1af8:	f011 4000 	ands.w	r0, r1, #2147483648	; 0x80000000
    1afc:	bf08      	it	eq
    1afe:	f06f 4000 	mvneq.w	r0, #2147483648	; 0x80000000
    1b02:	4770      	bx	lr
    1b04:	f04f 0000 	mov.w	r0, #0
    1b08:	4770      	bx	lr
    1b0a:	bf00      	nop

00001b0c <__aeabi_d2f>:
    1b0c:	ea4f 0241 	mov.w	r2, r1, lsl #1
    1b10:	f1b2 43e0 	subs.w	r3, r2, #1879048192	; 0x70000000
    1b14:	bf24      	itt	cs
    1b16:	f5b3 1c00 	subscs.w	ip, r3, #2097152	; 0x200000
    1b1a:	f1dc 5cfe 	rsbscs	ip, ip, #532676608	; 0x1fc00000
    1b1e:	d90d      	bls.n	1b3c <__aeabi_d2f+0x30>
    1b20:	f001 4c00 	and.w	ip, r1, #2147483648	; 0x80000000
    1b24:	ea4f 02c0 	mov.w	r2, r0, lsl #3
    1b28:	ea4c 7050 	orr.w	r0, ip, r0, lsr #29
    1b2c:	f1b2 4f00 	cmp.w	r2, #2147483648	; 0x80000000
    1b30:	eb40 0083 	adc.w	r0, r0, r3, lsl #2
    1b34:	bf08      	it	eq
    1b36:	f020 0001 	biceq.w	r0, r0, #1
    1b3a:	4770      	bx	lr
    1b3c:	f011 4f80 	tst.w	r1, #1073741824	; 0x40000000
    1b40:	d121      	bne.n	1b86 <__aeabi_d2f+0x7a>
    1b42:	f113 7238 	adds.w	r2, r3, #48234496	; 0x2e00000
    1b46:	bfbc      	itt	lt
    1b48:	f001 4000 	andlt.w	r0, r1, #2147483648	; 0x80000000
    1b4c:	4770      	bxlt	lr
    1b4e:	f441 1180 	orr.w	r1, r1, #1048576	; 0x100000
    1b52:	ea4f 5252 	mov.w	r2, r2, lsr #21
    1b56:	f1c2 0218 	rsb	r2, r2, #24
    1b5a:	f1c2 0c20 	rsb	ip, r2, #32
    1b5e:	fa10 f30c 	lsls.w	r3, r0, ip
    1b62:	fa20 f002 	lsr.w	r0, r0, r2
    1b66:	bf18      	it	ne
    1b68:	f040 0001 	orrne.w	r0, r0, #1
    1b6c:	ea4f 23c1 	mov.w	r3, r1, lsl #11
    1b70:	ea4f 23d3 	mov.w	r3, r3, lsr #11
    1b74:	fa03 fc0c 	lsl.w	ip, r3, ip
    1b78:	ea40 000c 	orr.w	r0, r0, ip
    1b7c:	fa23 f302 	lsr.w	r3, r3, r2
    1b80:	ea4f 0343 	mov.w	r3, r3, lsl #1
    1b84:	e7cc      	b.n	1b20 <__aeabi_d2f+0x14>
    1b86:	ea7f 5362 	mvns.w	r3, r2, asr #21
    1b8a:	d107      	bne.n	1b9c <__aeabi_d2f+0x90>
    1b8c:	ea50 3301 	orrs.w	r3, r0, r1, lsl #12
    1b90:	bf1e      	ittt	ne
    1b92:	f04f 40fe 	movne.w	r0, #2130706432	; 0x7f000000
    1b96:	f440 0040 	orrne.w	r0, r0, #12582912	; 0xc00000
    1b9a:	4770      	bxne	lr
    1b9c:	f001 4000 	and.w	r0, r1, #2147483648	; 0x80000000
    1ba0:	f040 40fe 	orr.w	r0, r0, #2130706432	; 0x7f000000
    1ba4:	f440 0000 	orr.w	r0, r0, #8388608	; 0x800000
    1ba8:	4770      	bx	lr
    1baa:	bf00      	nop

00001bac <__aeabi_frsub>:
    1bac:	f080 4000 	eor.w	r0, r0, #2147483648	; 0x80000000
    1bb0:	e002      	b.n	1bb8 <__addsf3>
    1bb2:	bf00      	nop

00001bb4 <__aeabi_fsub>:
    1bb4:	f081 4100 	eor.w	r1, r1, #2147483648	; 0x80000000

00001bb8 <__addsf3>:
    1bb8:	0042      	lsls	r2, r0, #1
    1bba:	bf1f      	itttt	ne
    1bbc:	ea5f 0341 	movsne.w	r3, r1, lsl #1
    1bc0:	ea92 0f03 	teqne	r2, r3
    1bc4:	ea7f 6c22 	mvnsne.w	ip, r2, asr #24
    1bc8:	ea7f 6c23 	mvnsne.w	ip, r3, asr #24
    1bcc:	d06a      	beq.n	1ca4 <__addsf3+0xec>
    1bce:	ea4f 6212 	mov.w	r2, r2, lsr #24
    1bd2:	ebd2 6313 	rsbs	r3, r2, r3, lsr #24
    1bd6:	bfc1      	itttt	gt
    1bd8:	18d2      	addgt	r2, r2, r3
    1bda:	4041      	eorgt	r1, r0
    1bdc:	4048      	eorgt	r0, r1
    1bde:	4041      	eorgt	r1, r0
    1be0:	bfb8      	it	lt
    1be2:	425b      	neglt	r3, r3
    1be4:	2b19      	cmp	r3, #25
    1be6:	bf88      	it	hi
    1be8:	4770      	bxhi	lr
    1bea:	f010 4f00 	tst.w	r0, #2147483648	; 0x80000000
    1bee:	f440 0000 	orr.w	r0, r0, #8388608	; 0x800000
    1bf2:	f020 407f 	bic.w	r0, r0, #4278190080	; 0xff000000
    1bf6:	bf18      	it	ne
    1bf8:	4240      	negne	r0, r0
    1bfa:	f011 4f00 	tst.w	r1, #2147483648	; 0x80000000
    1bfe:	f441 0100 	orr.w	r1, r1, #8388608	; 0x800000
    1c02:	f021 417f 	bic.w	r1, r1, #4278190080	; 0xff000000
    1c06:	bf18      	it	ne
    1c08:	4249      	negne	r1, r1
    1c0a:	ea92 0f03 	teq	r2, r3
    1c0e:	d03f      	beq.n	1c90 <__addsf3+0xd8>
    1c10:	f1a2 0201 	sub.w	r2, r2, #1
    1c14:	fa41 fc03 	asr.w	ip, r1, r3
    1c18:	eb10 000c 	adds.w	r0, r0, ip
    1c1c:	f1c3 0320 	rsb	r3, r3, #32
    1c20:	fa01 f103 	lsl.w	r1, r1, r3
    1c24:	f000 4300 	and.w	r3, r0, #2147483648	; 0x80000000
    1c28:	d502      	bpl.n	1c30 <__addsf3+0x78>
    1c2a:	4249      	negs	r1, r1
    1c2c:	eb60 0040 	sbc.w	r0, r0, r0, lsl #1
    1c30:	f5b0 0f00 	cmp.w	r0, #8388608	; 0x800000
    1c34:	d313      	bcc.n	1c5e <__addsf3+0xa6>
    1c36:	f1b0 7f80 	cmp.w	r0, #16777216	; 0x1000000
    1c3a:	d306      	bcc.n	1c4a <__addsf3+0x92>
    1c3c:	0840      	lsrs	r0, r0, #1
    1c3e:	ea4f 0131 	mov.w	r1, r1, rrx
    1c42:	f102 0201 	add.w	r2, r2, #1
    1c46:	2afe      	cmp	r2, #254	; 0xfe
    1c48:	d251      	bcs.n	1cee <__addsf3+0x136>
    1c4a:	f1b1 4f00 	cmp.w	r1, #2147483648	; 0x80000000
    1c4e:	eb40 50c2 	adc.w	r0, r0, r2, lsl #23
    1c52:	bf08      	it	eq
    1c54:	f020 0001 	biceq.w	r0, r0, #1
    1c58:	ea40 0003 	orr.w	r0, r0, r3
    1c5c:	4770      	bx	lr
    1c5e:	0049      	lsls	r1, r1, #1
    1c60:	eb40 0000 	adc.w	r0, r0, r0
    1c64:	f410 0f00 	tst.w	r0, #8388608	; 0x800000
    1c68:	f1a2 0201 	sub.w	r2, r2, #1
    1c6c:	d1ed      	bne.n	1c4a <__addsf3+0x92>
    1c6e:	fab0 fc80 	clz	ip, r0
    1c72:	f1ac 0c08 	sub.w	ip, ip, #8
    1c76:	ebb2 020c 	subs.w	r2, r2, ip
    1c7a:	fa00 f00c 	lsl.w	r0, r0, ip
    1c7e:	bfaa      	itet	ge
    1c80:	eb00 50c2 	addge.w	r0, r0, r2, lsl #23
    1c84:	4252      	neglt	r2, r2
    1c86:	4318      	orrge	r0, r3
    1c88:	bfbc      	itt	lt
    1c8a:	40d0      	lsrlt	r0, r2
    1c8c:	4318      	orrlt	r0, r3
    1c8e:	4770      	bx	lr
    1c90:	f092 0f00 	teq	r2, #0
    1c94:	f481 0100 	eor.w	r1, r1, #8388608	; 0x800000
    1c98:	bf06      	itte	eq
    1c9a:	f480 0000 	eoreq.w	r0, r0, #8388608	; 0x800000
    1c9e:	3201      	addeq	r2, #1
    1ca0:	3b01      	subne	r3, #1
    1ca2:	e7b5      	b.n	1c10 <__addsf3+0x58>
    1ca4:	ea4f 0341 	mov.w	r3, r1, lsl #1
    1ca8:	ea7f 6c22 	mvns.w	ip, r2, asr #24
    1cac:	bf18      	it	ne
    1cae:	ea7f 6c23 	mvnsne.w	ip, r3, asr #24
    1cb2:	d021      	beq.n	1cf8 <__addsf3+0x140>
    1cb4:	ea92 0f03 	teq	r2, r3
    1cb8:	d004      	beq.n	1cc4 <__addsf3+0x10c>
    1cba:	f092 0f00 	teq	r2, #0
    1cbe:	bf08      	it	eq
    1cc0:	4608      	moveq	r0, r1
    1cc2:	4770      	bx	lr
    1cc4:	ea90 0f01 	teq	r0, r1
    1cc8:	bf1c      	itt	ne
    1cca:	2000      	movne	r0, #0
    1ccc:	4770      	bxne	lr
    1cce:	f012 4f7f 	tst.w	r2, #4278190080	; 0xff000000
    1cd2:	d104      	bne.n	1cde <__addsf3+0x126>
    1cd4:	0040      	lsls	r0, r0, #1
    1cd6:	bf28      	it	cs
    1cd8:	f040 4000 	orrcs.w	r0, r0, #2147483648	; 0x80000000
    1cdc:	4770      	bx	lr
    1cde:	f112 7200 	adds.w	r2, r2, #33554432	; 0x2000000
    1ce2:	bf3c      	itt	cc
    1ce4:	f500 0000 	addcc.w	r0, r0, #8388608	; 0x800000
    1ce8:	4770      	bxcc	lr
    1cea:	f000 4300 	and.w	r3, r0, #2147483648	; 0x80000000
    1cee:	f043 40fe 	orr.w	r0, r3, #2130706432	; 0x7f000000
    1cf2:	f440 0000 	orr.w	r0, r0, #8388608	; 0x800000
    1cf6:	4770      	bx	lr
    1cf8:	ea7f 6222 	mvns.w	r2, r2, asr #24
    1cfc:	bf16      	itet	ne
    1cfe:	4608      	movne	r0, r1
    1d00:	ea7f 6323 	mvnseq.w	r3, r3, asr #24
    1d04:	4601      	movne	r1, r0
    1d06:	0242      	lsls	r2, r0, #9
    1d08:	bf06      	itte	eq
    1d0a:	ea5f 2341 	movseq.w	r3, r1, lsl #9
    1d0e:	ea90 0f01 	teqeq	r0, r1
    1d12:	f440 0080 	orrne.w	r0, r0, #4194304	; 0x400000
    1d16:	4770      	bx	lr

00001d18 <__aeabi_ui2f>:
    1d18:	f04f 0300 	mov.w	r3, #0
    1d1c:	e004      	b.n	1d28 <__aeabi_i2f+0x8>
    1d1e:	bf00      	nop

00001d20 <__aeabi_i2f>:
    1d20:	f010 4300 	ands.w	r3, r0, #2147483648	; 0x80000000
    1d24:	bf48      	it	mi
    1d26:	4240      	negmi	r0, r0
    1d28:	ea5f 0c00 	movs.w	ip, r0
    1d2c:	bf08      	it	eq
    1d2e:	4770      	bxeq	lr
    1d30:	f043 4396 	orr.w	r3, r3, #1258291200	; 0x4b000000
    1d34:	4601      	mov	r1, r0
    1d36:	f04f 0000 	mov.w	r0, #0
    1d3a:	e01c      	b.n	1d76 <__aeabi_l2f+0x2a>

00001d3c <__aeabi_ul2f>:
    1d3c:	ea50 0201 	orrs.w	r2, r0, r1
    1d40:	bf08      	it	eq
    1d42:	4770      	bxeq	lr
    1d44:	f04f 0300 	mov.w	r3, #0
    1d48:	e00a      	b.n	1d60 <__aeabi_l2f+0x14>
    1d4a:	bf00      	nop

00001d4c <__aeabi_l2f>:
    1d4c:	ea50 0201 	orrs.w	r2, r0, r1
    1d50:	bf08      	it	eq
    1d52:	4770      	bxeq	lr
    1d54:	f011 4300 	ands.w	r3, r1, #2147483648	; 0x80000000
    1d58:	d502      	bpl.n	1d60 <__aeabi_l2f+0x14>
    1d5a:	4240      	negs	r0, r0
    1d5c:	eb61 0141 	sbc.w	r1, r1, r1, lsl #1
    1d60:	ea5f 0c01 	movs.w	ip, r1
    1d64:	bf02      	ittt	eq
    1d66:	4684      	moveq	ip, r0
    1d68:	4601      	moveq	r1, r0
    1d6a:	2000      	moveq	r0, #0
    1d6c:	f043 43b6 	orr.w	r3, r3, #1526726656	; 0x5b000000
    1d70:	bf08      	it	eq
    1d72:	f1a3 5380 	subeq.w	r3, r3, #268435456	; 0x10000000
    1d76:	f5a3 0300 	sub.w	r3, r3, #8388608	; 0x800000
    1d7a:	fabc f28c 	clz	r2, ip
    1d7e:	3a08      	subs	r2, #8
    1d80:	eba3 53c2 	sub.w	r3, r3, r2, lsl #23
    1d84:	db10      	blt.n	1da8 <__aeabi_l2f+0x5c>
    1d86:	fa01 fc02 	lsl.w	ip, r1, r2
    1d8a:	4463      	add	r3, ip
    1d8c:	fa00 fc02 	lsl.w	ip, r0, r2
    1d90:	f1c2 0220 	rsb	r2, r2, #32
    1d94:	f1bc 4f00 	cmp.w	ip, #2147483648	; 0x80000000
    1d98:	fa20 f202 	lsr.w	r2, r0, r2
    1d9c:	eb43 0002 	adc.w	r0, r3, r2
    1da0:	bf08      	it	eq
    1da2:	f020 0001 	biceq.w	r0, r0, #1
    1da6:	4770      	bx	lr
    1da8:	f102 0220 	add.w	r2, r2, #32
    1dac:	fa01 fc02 	lsl.w	ip, r1, r2
    1db0:	f1c2 0220 	rsb	r2, r2, #32
    1db4:	ea50 004c 	orrs.w	r0, r0, ip, lsl #1
    1db8:	fa21 f202 	lsr.w	r2, r1, r2
    1dbc:	eb43 0002 	adc.w	r0, r3, r2
    1dc0:	bf08      	it	eq
    1dc2:	ea20 70dc 	biceq.w	r0, r0, ip, lsr #31
    1dc6:	4770      	bx	lr

00001dc8 <__aeabi_fmul>:
    1dc8:	f04f 0cff 	mov.w	ip, #255	; 0xff
    1dcc:	ea1c 52d0 	ands.w	r2, ip, r0, lsr #23
    1dd0:	bf1e      	ittt	ne
    1dd2:	ea1c 53d1 	andsne.w	r3, ip, r1, lsr #23
    1dd6:	ea92 0f0c 	teqne	r2, ip
    1dda:	ea93 0f0c 	teqne	r3, ip
    1dde:	d06f      	beq.n	1ec0 <__aeabi_fmul+0xf8>
    1de0:	441a      	add	r2, r3
    1de2:	ea80 0c01 	eor.w	ip, r0, r1
    1de6:	0240      	lsls	r0, r0, #9
    1de8:	bf18      	it	ne
    1dea:	ea5f 2141 	movsne.w	r1, r1, lsl #9
    1dee:	d01e      	beq.n	1e2e <__aeabi_fmul+0x66>
    1df0:	f04f 6300 	mov.w	r3, #134217728	; 0x8000000
    1df4:	ea43 1050 	orr.w	r0, r3, r0, lsr #5
    1df8:	ea43 1151 	orr.w	r1, r3, r1, lsr #5
    1dfc:	fba0 3101 	umull	r3, r1, r0, r1
    1e00:	f00c 4000 	and.w	r0, ip, #2147483648	; 0x80000000
    1e04:	f5b1 0f00 	cmp.w	r1, #8388608	; 0x800000
    1e08:	bf3e      	ittt	cc
    1e0a:	0049      	lslcc	r1, r1, #1
    1e0c:	ea41 71d3 	orrcc.w	r1, r1, r3, lsr #31
    1e10:	005b      	lslcc	r3, r3, #1
    1e12:	ea40 0001 	orr.w	r0, r0, r1
    1e16:	f162 027f 	sbc.w	r2, r2, #127	; 0x7f
    1e1a:	2afd      	cmp	r2, #253	; 0xfd
    1e1c:	d81d      	bhi.n	1e5a <__aeabi_fmul+0x92>
    1e1e:	f1b3 4f00 	cmp.w	r3, #2147483648	; 0x80000000
    1e22:	eb40 50c2 	adc.w	r0, r0, r2, lsl #23
    1e26:	bf08      	it	eq
    1e28:	f020 0001 	biceq.w	r0, r0, #1
    1e2c:	4770      	bx	lr
    1e2e:	f090 0f00 	teq	r0, #0
    1e32:	f00c 4c00 	and.w	ip, ip, #2147483648	; 0x80000000
    1e36:	bf08      	it	eq
    1e38:	0249      	lsleq	r1, r1, #9
    1e3a:	ea4c 2050 	orr.w	r0, ip, r0, lsr #9
    1e3e:	ea40 2051 	orr.w	r0, r0, r1, lsr #9
    1e42:	3a7f      	subs	r2, #127	; 0x7f
    1e44:	bfc2      	ittt	gt
    1e46:	f1d2 03ff 	rsbsgt	r3, r2, #255	; 0xff
    1e4a:	ea40 50c2 	orrgt.w	r0, r0, r2, lsl #23
    1e4e:	4770      	bxgt	lr
    1e50:	f440 0000 	orr.w	r0, r0, #8388608	; 0x800000
    1e54:	f04f 0300 	mov.w	r3, #0
    1e58:	3a01      	subs	r2, #1
    1e5a:	dc5d      	bgt.n	1f18 <__aeabi_fmul+0x150>
    1e5c:	f112 0f19 	cmn.w	r2, #25
    1e60:	bfdc      	itt	le
    1e62:	f000 4000 	andle.w	r0, r0, #2147483648	; 0x80000000
    1e66:	4770      	bxle	lr
    1e68:	f1c2 0200 	rsb	r2, r2, #0
    1e6c:	0041      	lsls	r1, r0, #1
    1e6e:	fa21 f102 	lsr.w	r1, r1, r2
    1e72:	f1c2 0220 	rsb	r2, r2, #32
    1e76:	fa00 fc02 	lsl.w	ip, r0, r2
    1e7a:	ea5f 0031 	movs.w	r0, r1, rrx
    1e7e:	f140 0000 	adc.w	r0, r0, #0
    1e82:	ea53 034c 	orrs.w	r3, r3, ip, lsl #1
    1e86:	bf08      	it	eq
    1e88:	ea20 70dc 	biceq.w	r0, r0, ip, lsr #31
    1e8c:	4770      	bx	lr
    1e8e:	f092 0f00 	teq	r2, #0
    1e92:	f000 4c00 	and.w	ip, r0, #2147483648	; 0x80000000
    1e96:	bf02      	ittt	eq
    1e98:	0040      	lsleq	r0, r0, #1
    1e9a:	f410 0f00 	tsteq.w	r0, #8388608	; 0x800000
    1e9e:	3a01      	subeq	r2, #1
    1ea0:	d0f9      	beq.n	1e96 <__aeabi_fmul+0xce>
    1ea2:	ea40 000c 	orr.w	r0, r0, ip
    1ea6:	f093 0f00 	teq	r3, #0
    1eaa:	f001 4c00 	and.w	ip, r1, #2147483648	; 0x80000000
    1eae:	bf02      	ittt	eq
    1eb0:	0049      	lsleq	r1, r1, #1
    1eb2:	f411 0f00 	tsteq.w	r1, #8388608	; 0x800000
    1eb6:	3b01      	subeq	r3, #1
    1eb8:	d0f9      	beq.n	1eae <__aeabi_fmul+0xe6>
    1eba:	ea41 010c 	orr.w	r1, r1, ip
    1ebe:	e78f      	b.n	1de0 <__aeabi_fmul+0x18>
    1ec0:	ea0c 53d1 	and.w	r3, ip, r1, lsr #23
    1ec4:	ea92 0f0c 	teq	r2, ip
    1ec8:	bf18      	it	ne
    1eca:	ea93 0f0c 	teqne	r3, ip
    1ece:	d00a      	beq.n	1ee6 <__aeabi_fmul+0x11e>
    1ed0:	f030 4c00 	bics.w	ip, r0, #2147483648	; 0x80000000
    1ed4:	bf18      	it	ne
    1ed6:	f031 4c00 	bicsne.w	ip, r1, #2147483648	; 0x80000000
    1eda:	d1d8      	bne.n	1e8e <__aeabi_fmul+0xc6>
    1edc:	ea80 0001 	eor.w	r0, r0, r1
    1ee0:	f000 4000 	and.w	r0, r0, #2147483648	; 0x80000000
    1ee4:	4770      	bx	lr
    1ee6:	f090 0f00 	teq	r0, #0
    1eea:	bf17      	itett	ne
    1eec:	f090 4f00 	teqne	r0, #2147483648	; 0x80000000
    1ef0:	4608      	moveq	r0, r1
    1ef2:	f091 0f00 	teqne	r1, #0
    1ef6:	f091 4f00 	teqne	r1, #2147483648	; 0x80000000
    1efa:	d014      	beq.n	1f26 <__aeabi_fmul+0x15e>
    1efc:	ea92 0f0c 	teq	r2, ip
    1f00:	d101      	bne.n	1f06 <__aeabi_fmul+0x13e>
    1f02:	0242      	lsls	r2, r0, #9
    1f04:	d10f      	bne.n	1f26 <__aeabi_fmul+0x15e>
    1f06:	ea93 0f0c 	teq	r3, ip
    1f0a:	d103      	bne.n	1f14 <__aeabi_fmul+0x14c>
    1f0c:	024b      	lsls	r3, r1, #9
    1f0e:	bf18      	it	ne
    1f10:	4608      	movne	r0, r1
    1f12:	d108      	bne.n	1f26 <__aeabi_fmul+0x15e>
    1f14:	ea80 0001 	eor.w	r0, r0, r1
    1f18:	f000 4000 	and.w	r0, r0, #2147483648	; 0x80000000
    1f1c:	f040 40fe 	orr.w	r0, r0, #2130706432	; 0x7f000000
    1f20:	f440 0000 	orr.w	r0, r0, #8388608	; 0x800000
    1f24:	4770      	bx	lr
    1f26:	f040 40fe 	orr.w	r0, r0, #2130706432	; 0x7f000000
    1f2a:	f440 0040 	orr.w	r0, r0, #12582912	; 0xc00000
    1f2e:	4770      	bx	lr

00001f30 <__aeabi_fdiv>:
    1f30:	f04f 0cff 	mov.w	ip, #255	; 0xff
    1f34:	ea1c 52d0 	ands.w	r2, ip, r0, lsr #23
    1f38:	bf1e      	ittt	ne
    1f3a:	ea1c 53d1 	andsne.w	r3, ip, r1, lsr #23
    1f3e:	ea92 0f0c 	teqne	r2, ip
    1f42:	ea93 0f0c 	teqne	r3, ip
    1f46:	d069      	beq.n	201c <__aeabi_fdiv+0xec>
    1f48:	eba2 0203 	sub.w	r2, r2, r3
    1f4c:	ea80 0c01 	eor.w	ip, r0, r1
    1f50:	0249      	lsls	r1, r1, #9
    1f52:	ea4f 2040 	mov.w	r0, r0, lsl #9
    1f56:	d037      	beq.n	1fc8 <__aeabi_fdiv+0x98>
    1f58:	f04f 5380 	mov.w	r3, #268435456	; 0x10000000
    1f5c:	ea43 1111 	orr.w	r1, r3, r1, lsr #4
    1f60:	ea43 1310 	orr.w	r3, r3, r0, lsr #4
    1f64:	f00c 4000 	and.w	r0, ip, #2147483648	; 0x80000000
    1f68:	428b      	cmp	r3, r1
    1f6a:	bf38      	it	cc
    1f6c:	005b      	lslcc	r3, r3, #1
    1f6e:	f142 027d 	adc.w	r2, r2, #125	; 0x7d
    1f72:	f44f 0c00 	mov.w	ip, #8388608	; 0x800000
    1f76:	428b      	cmp	r3, r1
    1f78:	bf24      	itt	cs
    1f7a:	1a5b      	subcs	r3, r3, r1
    1f7c:	ea40 000c 	orrcs.w	r0, r0, ip
    1f80:	ebb3 0f51 	cmp.w	r3, r1, lsr #1
    1f84:	bf24      	itt	cs
    1f86:	eba3 0351 	subcs.w	r3, r3, r1, lsr #1
    1f8a:	ea40 005c 	orrcs.w	r0, r0, ip, lsr #1
    1f8e:	ebb3 0f91 	cmp.w	r3, r1, lsr #2
    1f92:	bf24      	itt	cs
    1f94:	eba3 0391 	subcs.w	r3, r3, r1, lsr #2
    1f98:	ea40 009c 	orrcs.w	r0, r0, ip, lsr #2
    1f9c:	ebb3 0fd1 	cmp.w	r3, r1, lsr #3
    1fa0:	bf24      	itt	cs
    1fa2:	eba3 03d1 	subcs.w	r3, r3, r1, lsr #3
    1fa6:	ea40 00dc 	orrcs.w	r0, r0, ip, lsr #3
    1faa:	011b      	lsls	r3, r3, #4
    1fac:	bf18      	it	ne
    1fae:	ea5f 1c1c 	movsne.w	ip, ip, lsr #4
    1fb2:	d1e0      	bne.n	1f76 <__aeabi_fdiv+0x46>
    1fb4:	2afd      	cmp	r2, #253	; 0xfd
    1fb6:	f63f af50 	bhi.w	1e5a <__aeabi_fmul+0x92>
    1fba:	428b      	cmp	r3, r1
    1fbc:	eb40 50c2 	adc.w	r0, r0, r2, lsl #23
    1fc0:	bf08      	it	eq
    1fc2:	f020 0001 	biceq.w	r0, r0, #1
    1fc6:	4770      	bx	lr
    1fc8:	f00c 4c00 	and.w	ip, ip, #2147483648	; 0x80000000
    1fcc:	ea4c 2050 	orr.w	r0, ip, r0, lsr #9
    1fd0:	327f      	adds	r2, #127	; 0x7f
    1fd2:	bfc2      	ittt	gt
    1fd4:	f1d2 03ff 	rsbsgt	r3, r2, #255	; 0xff
    1fd8:	ea40 50c2 	orrgt.w	r0, r0, r2, lsl #23
    1fdc:	4770      	bxgt	lr
    1fde:	f440 0000 	orr.w	r0, r0, #8388608	; 0x800000
    1fe2:	f04f 0300 	mov.w	r3, #0
    1fe6:	3a01      	subs	r2, #1
    1fe8:	e737      	b.n	1e5a <__aeabi_fmul+0x92>
    1fea:	f092 0f00 	teq	r2, #0
    1fee:	f000 4c00 	and.w	ip, r0, #2147483648	; 0x80000000
    1ff2:	bf02      	ittt	eq
    1ff4:	0040      	lsleq	r0, r0, #1
    1ff6:	f410 0f00 	tsteq.w	r0, #8388608	; 0x800000
    1ffa:	3a01      	subeq	r2, #1
    1ffc:	d0f9      	beq.n	1ff2 <__aeabi_fdiv+0xc2>
    1ffe:	ea40 000c 	orr.w	r0, r0, ip
    2002:	f093 0f00 	teq	r3, #0
    2006:	f001 4c00 	and.w	ip, r1, #2147483648	; 0x80000000
    200a:	bf02      	ittt	eq
    200c:	0049      	lsleq	r1, r1, #1
    200e:	f411 0f00 	tsteq.w	r1, #8388608	; 0x800000
    2012:	3b01      	subeq	r3, #1
    2014:	d0f9      	beq.n	200a <__aeabi_fdiv+0xda>
    2016:	ea41 010c 	orr.w	r1, r1, ip
    201a:	e795      	b.n	1f48 <__aeabi_fdiv+0x18>
    201c:	ea0c 53d1 	and.w	r3, ip, r1, lsr #23
    2020:	ea92 0f0c 	teq	r2, ip
    2024:	d108      	bne.n	2038 <__aeabi_fdiv+0x108>
    2026:	0242      	lsls	r2, r0, #9
    2028:	f47f af7d 	bne.w	1f26 <__aeabi_fmul+0x15e>
    202c:	ea93 0f0c 	teq	r3, ip
    2030:	f47f af70 	bne.w	1f14 <__aeabi_fmul+0x14c>
    2034:	4608      	mov	r0, r1
    2036:	e776      	b.n	1f26 <__aeabi_fmul+0x15e>
    2038:	ea93 0f0c 	teq	r3, ip
    203c:	d104      	bne.n	2048 <__aeabi_fdiv+0x118>
    203e:	024b      	lsls	r3, r1, #9
    2040:	f43f af4c 	beq.w	1edc <__aeabi_fmul+0x114>
    2044:	4608      	mov	r0, r1
    2046:	e76e      	b.n	1f26 <__aeabi_fmul+0x15e>
    2048:	f030 4c00 	bics.w	ip, r0, #2147483648	; 0x80000000
    204c:	bf18      	it	ne
    204e:	f031 4c00 	bicsne.w	ip, r1, #2147483648	; 0x80000000
    2052:	d1ca      	bne.n	1fea <__aeabi_fdiv+0xba>
    2054:	f030 4200 	bics.w	r2, r0, #2147483648	; 0x80000000
    2058:	f47f af5c 	bne.w	1f14 <__aeabi_fmul+0x14c>
    205c:	f031 4300 	bics.w	r3, r1, #2147483648	; 0x80000000
    2060:	f47f af3c 	bne.w	1edc <__aeabi_fmul+0x114>
    2064:	e75f      	b.n	1f26 <__aeabi_fmul+0x15e>
    2066:	bf00      	nop

00002068 <__gesf2>:
    2068:	f04f 3cff 	mov.w	ip, #4294967295	; 0xffffffff
    206c:	e006      	b.n	207c <__cmpsf2+0x4>
    206e:	bf00      	nop

00002070 <__lesf2>:
    2070:	f04f 0c01 	mov.w	ip, #1
    2074:	e002      	b.n	207c <__cmpsf2+0x4>
    2076:	bf00      	nop

00002078 <__cmpsf2>:
    2078:	f04f 0c01 	mov.w	ip, #1
    207c:	f84d cd04 	str.w	ip, [sp, #-4]!
    2080:	ea4f 0240 	mov.w	r2, r0, lsl #1
    2084:	ea4f 0341 	mov.w	r3, r1, lsl #1
    2088:	ea7f 6c22 	mvns.w	ip, r2, asr #24
    208c:	bf18      	it	ne
    208e:	ea7f 6c23 	mvnsne.w	ip, r3, asr #24
    2092:	d011      	beq.n	20b8 <__cmpsf2+0x40>
    2094:	b001      	add	sp, #4
    2096:	ea52 0c53 	orrs.w	ip, r2, r3, lsr #1
    209a:	bf18      	it	ne
    209c:	ea90 0f01 	teqne	r0, r1
    20a0:	bf58      	it	pl
    20a2:	ebb2 0003 	subspl.w	r0, r2, r3
    20a6:	bf88      	it	hi
    20a8:	17c8      	asrhi	r0, r1, #31
    20aa:	bf38      	it	cc
    20ac:	ea6f 70e1 	mvncc.w	r0, r1, asr #31
    20b0:	bf18      	it	ne
    20b2:	f040 0001 	orrne.w	r0, r0, #1
    20b6:	4770      	bx	lr
    20b8:	ea7f 6c22 	mvns.w	ip, r2, asr #24
    20bc:	d102      	bne.n	20c4 <__cmpsf2+0x4c>
    20be:	ea5f 2c40 	movs.w	ip, r0, lsl #9
    20c2:	d105      	bne.n	20d0 <__cmpsf2+0x58>
    20c4:	ea7f 6c23 	mvns.w	ip, r3, asr #24
    20c8:	d1e4      	bne.n	2094 <__cmpsf2+0x1c>
    20ca:	ea5f 2c41 	movs.w	ip, r1, lsl #9
    20ce:	d0e1      	beq.n	2094 <__cmpsf2+0x1c>
    20d0:	f85d 0b04 	ldr.w	r0, [sp], #4
    20d4:	4770      	bx	lr
    20d6:	bf00      	nop

000020d8 <__aeabi_cfrcmple>:
    20d8:	4684      	mov	ip, r0
    20da:	4608      	mov	r0, r1
    20dc:	4661      	mov	r1, ip
    20de:	e7ff      	b.n	20e0 <__aeabi_cfcmpeq>

000020e0 <__aeabi_cfcmpeq>:
    20e0:	b50f      	push	{r0, r1, r2, r3, lr}
    20e2:	f7ff ffc9 	bl	2078 <__cmpsf2>
    20e6:	2800      	cmp	r0, #0
    20e8:	bf48      	it	mi
    20ea:	f110 0f00 	cmnmi.w	r0, #0
    20ee:	bd0f      	pop	{r0, r1, r2, r3, pc}

000020f0 <__aeabi_fcmpeq>:
    20f0:	f84d ed08 	str.w	lr, [sp, #-8]!
    20f4:	f7ff fff4 	bl	20e0 <__aeabi_cfcmpeq>
    20f8:	bf0c      	ite	eq
    20fa:	2001      	moveq	r0, #1
    20fc:	2000      	movne	r0, #0
    20fe:	f85d fb08 	ldr.w	pc, [sp], #8
    2102:	bf00      	nop

00002104 <__aeabi_fcmplt>:
    2104:	f84d ed08 	str.w	lr, [sp, #-8]!
    2108:	f7ff ffea 	bl	20e0 <__aeabi_cfcmpeq>
    210c:	bf34      	ite	cc
    210e:	2001      	movcc	r0, #1
    2110:	2000      	movcs	r0, #0
    2112:	f85d fb08 	ldr.w	pc, [sp], #8
    2116:	bf00      	nop

00002118 <__aeabi_fcmple>:
    2118:	f84d ed08 	str.w	lr, [sp, #-8]!
    211c:	f7ff ffe0 	bl	20e0 <__aeabi_cfcmpeq>
    2120:	bf94      	ite	ls
    2122:	2001      	movls	r0, #1
    2124:	2000      	movhi	r0, #0
    2126:	f85d fb08 	ldr.w	pc, [sp], #8
    212a:	bf00      	nop

0000212c <__aeabi_fcmpge>:
    212c:	f84d ed08 	str.w	lr, [sp, #-8]!
    2130:	f7ff ffd2 	bl	20d8 <__aeabi_cfrcmple>
    2134:	bf94      	ite	ls
    2136:	2001      	movls	r0, #1
    2138:	2000      	movhi	r0, #0
    213a:	f85d fb08 	ldr.w	pc, [sp], #8
    213e:	bf00      	nop

00002140 <__aeabi_fcmpgt>:
    2140:	f84d ed08 	str.w	lr, [sp, #-8]!
    2144:	f7ff ffc8 	bl	20d8 <__aeabi_cfrcmple>
    2148:	bf34      	ite	cc
    214a:	2001      	movcc	r0, #1
    214c:	2000      	movcs	r0, #0
    214e:	f85d fb08 	ldr.w	pc, [sp], #8
    2152:	bf00      	nop

00002154 <__aeabi_uldivmod>:
    2154:	b94b      	cbnz	r3, 216a <__aeabi_uldivmod+0x16>
    2156:	b942      	cbnz	r2, 216a <__aeabi_uldivmod+0x16>
    2158:	2900      	cmp	r1, #0
    215a:	bf08      	it	eq
    215c:	2800      	cmpeq	r0, #0
    215e:	d002      	beq.n	2166 <__aeabi_uldivmod+0x12>
    2160:	f04f 31ff 	mov.w	r1, #4294967295	; 0xffffffff
    2164:	4608      	mov	r0, r1
    2166:	f000 b83b 	b.w	21e0 <__aeabi_idiv0>
    216a:	b082      	sub	sp, #8
    216c:	46ec      	mov	ip, sp
    216e:	e92d 5000 	stmdb	sp!, {ip, lr}
    2172:	f000 f81d 	bl	21b0 <__gnu_uldivmod_helper>
    2176:	f8dd e004 	ldr.w	lr, [sp, #4]
    217a:	b002      	add	sp, #8
    217c:	bc0c      	pop	{r2, r3}
    217e:	4770      	bx	lr

00002180 <__gnu_ldivmod_helper>:
    2180:	e92d 4370 	stmdb	sp!, {r4, r5, r6, r8, r9, lr}
    2184:	4616      	mov	r6, r2
    2186:	4680      	mov	r8, r0
    2188:	4689      	mov	r9, r1
    218a:	461d      	mov	r5, r3
    218c:	f000 f82a 	bl	21e4 <__divdi3>
    2190:	fb00 f305 	mul.w	r3, r0, r5
    2194:	fba0 4506 	umull	r4, r5, r0, r6
    2198:	fb06 3601 	mla	r6, r6, r1, r3
    219c:	9b06      	ldr	r3, [sp, #24]
    219e:	1975      	adds	r5, r6, r5
    21a0:	ebb8 0404 	subs.w	r4, r8, r4
    21a4:	eb69 0505 	sbc.w	r5, r9, r5
    21a8:	e9c3 4500 	strd	r4, r5, [r3]
    21ac:	e8bd 8370 	ldmia.w	sp!, {r4, r5, r6, r8, r9, pc}

000021b0 <__gnu_uldivmod_helper>:
    21b0:	e92d 4370 	stmdb	sp!, {r4, r5, r6, r8, r9, lr}
    21b4:	4616      	mov	r6, r2
    21b6:	4680      	mov	r8, r0
    21b8:	4689      	mov	r9, r1
    21ba:	461d      	mov	r5, r3
    21bc:	f000 f9c2 	bl	2544 <__udivdi3>
    21c0:	fb00 f305 	mul.w	r3, r0, r5
    21c4:	fba0 4506 	umull	r4, r5, r0, r6
    21c8:	fb06 3601 	mla	r6, r6, r1, r3
    21cc:	9b06      	ldr	r3, [sp, #24]
    21ce:	1975      	adds	r5, r6, r5
    21d0:	ebb8 0404 	subs.w	r4, r8, r4
    21d4:	eb69 0505 	sbc.w	r5, r9, r5
    21d8:	e9c3 4500 	strd	r4, r5, [r3]
    21dc:	e8bd 8370 	ldmia.w	sp!, {r4, r5, r6, r8, r9, pc}

000021e0 <__aeabi_idiv0>:
    21e0:	4770      	bx	lr
    21e2:	bf00      	nop

000021e4 <__divdi3>:
    21e4:	2900      	cmp	r1, #0
    21e6:	e92d 4ff0 	stmdb	sp!, {r4, r5, r6, r7, r8, r9, sl, fp, lr}
    21ea:	461c      	mov	r4, r3
    21ec:	b085      	sub	sp, #20
    21ee:	f2c0 80cb 	blt.w	2388 <__divdi3+0x1a4>
    21f2:	2600      	movs	r6, #0
    21f4:	2c00      	cmp	r4, #0
    21f6:	f2c0 80c2 	blt.w	237e <__divdi3+0x19a>
    21fa:	468c      	mov	ip, r1
    21fc:	4617      	mov	r7, r2
    21fe:	4614      	mov	r4, r2
    2200:	4605      	mov	r5, r0
    2202:	4688      	mov	r8, r1
    2204:	469a      	mov	sl, r3
    2206:	2b00      	cmp	r3, #0
    2208:	d14a      	bne.n	22a0 <__divdi3+0xbc>
    220a:	428a      	cmp	r2, r1
    220c:	d96e      	bls.n	22ec <__divdi3+0x108>
    220e:	fab2 f382 	clz	r3, r2
    2212:	b15b      	cbz	r3, 222c <__divdi3+0x48>
    2214:	f1c3 0420 	rsb	r4, r3, #32
    2218:	fa01 f803 	lsl.w	r8, r1, r3
    221c:	fa30 f204 	lsrs.w	r2, r0, r4
    2220:	fa10 f503 	lsls.w	r5, r0, r3
    2224:	fa17 f403 	lsls.w	r4, r7, r3
    2228:	ea42 0808 	orr.w	r8, r2, r8
    222c:	ea4f 4a14 	mov.w	sl, r4, lsr #16
    2230:	4640      	mov	r0, r8
    2232:	4651      	mov	r1, sl
    2234:	fa1f fb84 	uxth.w	fp, r4
    2238:	f000 fb0a 	bl	2850 <__aeabi_uidiv>
    223c:	4651      	mov	r1, sl
    223e:	4681      	mov	r9, r0
    2240:	4640      	mov	r0, r8
    2242:	f000 fc33 	bl	2aac <__aeabi_uidivmod>
    2246:	0c28      	lsrs	r0, r5, #16
    2248:	fb0b f309 	mul.w	r3, fp, r9
    224c:	ea40 4801 	orr.w	r8, r0, r1, lsl #16
    2250:	4543      	cmp	r3, r8
    2252:	d909      	bls.n	2268 <__divdi3+0x84>
    2254:	eb18 0804 	adds.w	r8, r8, r4
    2258:	f109 39ff 	add.w	r9, r9, #4294967295	; 0xffffffff
    225c:	d204      	bcs.n	2268 <__divdi3+0x84>
    225e:	4543      	cmp	r3, r8
    2260:	bf84      	itt	hi
    2262:	f109 39ff 	addhi.w	r9, r9, #4294967295	; 0xffffffff
    2266:	44a0      	addhi	r8, r4
    2268:	ebc3 0808 	rsb	r8, r3, r8
    226c:	4651      	mov	r1, sl
    226e:	4640      	mov	r0, r8
    2270:	b2ad      	uxth	r5, r5
    2272:	f000 faed 	bl	2850 <__aeabi_uidiv>
    2276:	4651      	mov	r1, sl
    2278:	4607      	mov	r7, r0
    227a:	4640      	mov	r0, r8
    227c:	f000 fc16 	bl	2aac <__aeabi_uidivmod>
    2280:	fb0b fb07 	mul.w	fp, fp, r7
    2284:	ea45 4501 	orr.w	r5, r5, r1, lsl #16
    2288:	45ab      	cmp	fp, r5
    228a:	d905      	bls.n	2298 <__divdi3+0xb4>
    228c:	3f01      	subs	r7, #1
    228e:	192d      	adds	r5, r5, r4
    2290:	d202      	bcs.n	2298 <__divdi3+0xb4>
    2292:	45ab      	cmp	fp, r5
    2294:	bf88      	it	hi
    2296:	3f01      	subhi	r7, #1
    2298:	ea47 4909 	orr.w	r9, r7, r9, lsl #16
    229c:	2400      	movs	r4, #0
    229e:	e003      	b.n	22a8 <__divdi3+0xc4>
    22a0:	428b      	cmp	r3, r1
    22a2:	d90c      	bls.n	22be <__divdi3+0xda>
    22a4:	2400      	movs	r4, #0
    22a6:	46a1      	mov	r9, r4
    22a8:	464a      	mov	r2, r9
    22aa:	4623      	mov	r3, r4
    22ac:	b116      	cbz	r6, 22b4 <__divdi3+0xd0>
    22ae:	4252      	negs	r2, r2
    22b0:	eb63 0343 	sbc.w	r3, r3, r3, lsl #1
    22b4:	4610      	mov	r0, r2
    22b6:	4619      	mov	r1, r3
    22b8:	b005      	add	sp, #20
    22ba:	e8bd 8ff0 	ldmia.w	sp!, {r4, r5, r6, r7, r8, r9, sl, fp, pc}
    22be:	fab3 f483 	clz	r4, r3
    22c2:	2c00      	cmp	r4, #0
    22c4:	f040 80b3 	bne.w	242e <__divdi3+0x24a>
    22c8:	428b      	cmp	r3, r1
    22ca:	f04f 0901 	mov.w	r9, #1
    22ce:	bf2c      	ite	cs
    22d0:	f04f 0c00 	movcs.w	ip, #0
    22d4:	f04f 0c01 	movcc.w	ip, #1
    22d8:	4282      	cmp	r2, r0
    22da:	bf8c      	ite	hi
    22dc:	4667      	movhi	r7, ip
    22de:	f04c 0701 	orrls.w	r7, ip, #1
    22e2:	2f00      	cmp	r7, #0
    22e4:	d1e0      	bne.n	22a8 <__divdi3+0xc4>
    22e6:	463c      	mov	r4, r7
    22e8:	46b9      	mov	r9, r7
    22ea:	e7dd      	b.n	22a8 <__divdi3+0xc4>
    22ec:	b922      	cbnz	r2, 22f8 <__divdi3+0x114>
    22ee:	2001      	movs	r0, #1
    22f0:	4611      	mov	r1, r2
    22f2:	f000 faad 	bl	2850 <__aeabi_uidiv>
    22f6:	4604      	mov	r4, r0
    22f8:	fab4 f384 	clz	r3, r4
    22fc:	2b00      	cmp	r3, #0
    22fe:	d149      	bne.n	2394 <__divdi3+0x1b0>
    2300:	ebc4 0808 	rsb	r8, r4, r8
    2304:	0c27      	lsrs	r7, r4, #16
    2306:	fa1f fa84 	uxth.w	sl, r4
    230a:	2101      	movs	r1, #1
    230c:	9102      	str	r1, [sp, #8]
    230e:	4639      	mov	r1, r7
    2310:	4640      	mov	r0, r8
    2312:	f000 fa9d 	bl	2850 <__aeabi_uidiv>
    2316:	4639      	mov	r1, r7
    2318:	4681      	mov	r9, r0
    231a:	4640      	mov	r0, r8
    231c:	f000 fbc6 	bl	2aac <__aeabi_uidivmod>
    2320:	0c2a      	lsrs	r2, r5, #16
    2322:	fb0a f309 	mul.w	r3, sl, r9
    2326:	ea42 4b01 	orr.w	fp, r2, r1, lsl #16
    232a:	455b      	cmp	r3, fp
    232c:	d909      	bls.n	2342 <__divdi3+0x15e>
    232e:	eb1b 0b04 	adds.w	fp, fp, r4
    2332:	f109 39ff 	add.w	r9, r9, #4294967295	; 0xffffffff
    2336:	d204      	bcs.n	2342 <__divdi3+0x15e>
    2338:	455b      	cmp	r3, fp
    233a:	bf84      	itt	hi
    233c:	f109 39ff 	addhi.w	r9, r9, #4294967295	; 0xffffffff
    2340:	44a3      	addhi	fp, r4
    2342:	ebc3 0b0b 	rsb	fp, r3, fp
    2346:	4639      	mov	r1, r7
    2348:	4658      	mov	r0, fp
    234a:	b2ad      	uxth	r5, r5
    234c:	f000 fa80 	bl	2850 <__aeabi_uidiv>
    2350:	4639      	mov	r1, r7
    2352:	4680      	mov	r8, r0
    2354:	4658      	mov	r0, fp
    2356:	f000 fba9 	bl	2aac <__aeabi_uidivmod>
    235a:	fb0a fa08 	mul.w	sl, sl, r8
    235e:	ea45 4501 	orr.w	r5, r5, r1, lsl #16
    2362:	45aa      	cmp	sl, r5
    2364:	d907      	bls.n	2376 <__divdi3+0x192>
    2366:	192d      	adds	r5, r5, r4
    2368:	f108 38ff 	add.w	r8, r8, #4294967295	; 0xffffffff
    236c:	d203      	bcs.n	2376 <__divdi3+0x192>
    236e:	45aa      	cmp	sl, r5
    2370:	bf88      	it	hi
    2372:	f108 38ff 	addhi.w	r8, r8, #4294967295	; 0xffffffff
    2376:	ea48 4909 	orr.w	r9, r8, r9, lsl #16
    237a:	9c02      	ldr	r4, [sp, #8]
    237c:	e794      	b.n	22a8 <__divdi3+0xc4>
    237e:	43f6      	mvns	r6, r6
    2380:	4252      	negs	r2, r2
    2382:	eb63 0343 	sbc.w	r3, r3, r3, lsl #1
    2386:	e738      	b.n	21fa <__divdi3+0x16>
    2388:	4240      	negs	r0, r0
    238a:	eb61 0141 	sbc.w	r1, r1, r1, lsl #1
    238e:	f04f 36ff 	mov.w	r6, #4294967295	; 0xffffffff
    2392:	e72f      	b.n	21f4 <__divdi3+0x10>
    2394:	409c      	lsls	r4, r3
    2396:	f1c3 0720 	rsb	r7, r3, #32
    239a:	fa28 fa07 	lsr.w	sl, r8, r7
    239e:	fa35 f207 	lsrs.w	r2, r5, r7
    23a2:	0c27      	lsrs	r7, r4, #16
    23a4:	fa08 fb03 	lsl.w	fp, r8, r3
    23a8:	4639      	mov	r1, r7
    23aa:	4650      	mov	r0, sl
    23ac:	ea42 020b 	orr.w	r2, r2, fp
    23b0:	409d      	lsls	r5, r3
    23b2:	9202      	str	r2, [sp, #8]
    23b4:	f000 fa4c 	bl	2850 <__aeabi_uidiv>
    23b8:	4639      	mov	r1, r7
    23ba:	4683      	mov	fp, r0
    23bc:	4650      	mov	r0, sl
    23be:	f000 fb75 	bl	2aac <__aeabi_uidivmod>
    23c2:	9b02      	ldr	r3, [sp, #8]
    23c4:	fa1f fa84 	uxth.w	sl, r4
    23c8:	ea4f 4913 	mov.w	r9, r3, lsr #16
    23cc:	fb0a f30b 	mul.w	r3, sl, fp
    23d0:	ea49 4801 	orr.w	r8, r9, r1, lsl #16
    23d4:	4543      	cmp	r3, r8
    23d6:	d905      	bls.n	23e4 <__divdi3+0x200>
    23d8:	eb18 0804 	adds.w	r8, r8, r4
    23dc:	f10b 3bff 	add.w	fp, fp, #4294967295	; 0xffffffff
    23e0:	f0c0 80aa 	bcc.w	2538 <__divdi3+0x354>
    23e4:	ebc3 0808 	rsb	r8, r3, r8
    23e8:	4639      	mov	r1, r7
    23ea:	4640      	mov	r0, r8
    23ec:	f000 fa30 	bl	2850 <__aeabi_uidiv>
    23f0:	4639      	mov	r1, r7
    23f2:	4681      	mov	r9, r0
    23f4:	4640      	mov	r0, r8
    23f6:	f000 fb59 	bl	2aac <__aeabi_uidivmod>
    23fa:	9802      	ldr	r0, [sp, #8]
    23fc:	fb0a f309 	mul.w	r3, sl, r9
    2400:	fa1f fc80 	uxth.w	ip, r0
    2404:	ea4c 4801 	orr.w	r8, ip, r1, lsl #16
    2408:	4543      	cmp	r3, r8
    240a:	d909      	bls.n	2420 <__divdi3+0x23c>
    240c:	eb18 0804 	adds.w	r8, r8, r4
    2410:	f109 39ff 	add.w	r9, r9, #4294967295	; 0xffffffff
    2414:	d204      	bcs.n	2420 <__divdi3+0x23c>
    2416:	4543      	cmp	r3, r8
    2418:	bf84      	itt	hi
    241a:	f109 39ff 	addhi.w	r9, r9, #4294967295	; 0xffffffff
    241e:	44a0      	addhi	r8, r4
    2420:	ea49 4e0b 	orr.w	lr, r9, fp, lsl #16
    2424:	ebc3 0808 	rsb	r8, r3, r8
    2428:	f8cd e008 	str.w	lr, [sp, #8]
    242c:	e76f      	b.n	230e <__divdi3+0x12a>
    242e:	f1c4 0320 	rsb	r3, r4, #32
    2432:	fa0a fa04 	lsl.w	sl, sl, r4
    2436:	40da      	lsrs	r2, r3
    2438:	fa21 f803 	lsr.w	r8, r1, r3
    243c:	ea42 0a0a 	orr.w	sl, r2, sl
    2440:	fa01 f904 	lsl.w	r9, r1, r4
    2444:	fa30 f203 	lsrs.w	r2, r0, r3
    2448:	4640      	mov	r0, r8
    244a:	ea4f 4b1a 	mov.w	fp, sl, lsr #16
    244e:	ea42 0109 	orr.w	r1, r2, r9
    2452:	9103      	str	r1, [sp, #12]
    2454:	4659      	mov	r1, fp
    2456:	fa17 f304 	lsls.w	r3, r7, r4
    245a:	9302      	str	r3, [sp, #8]
    245c:	f000 f9f8 	bl	2850 <__aeabi_uidiv>
    2460:	4659      	mov	r1, fp
    2462:	4681      	mov	r9, r0
    2464:	4640      	mov	r0, r8
    2466:	f000 fb21 	bl	2aac <__aeabi_uidivmod>
    246a:	fa1f f38a 	uxth.w	r3, sl
    246e:	9803      	ldr	r0, [sp, #12]
    2470:	fb03 f209 	mul.w	r2, r3, r9
    2474:	0c07      	lsrs	r7, r0, #16
    2476:	ea47 4801 	orr.w	r8, r7, r1, lsl #16
    247a:	4542      	cmp	r2, r8
    247c:	d904      	bls.n	2488 <__divdi3+0x2a4>
    247e:	eb18 080a 	adds.w	r8, r8, sl
    2482:	f109 39ff 	add.w	r9, r9, #4294967295	; 0xffffffff
    2486:	d351      	bcc.n	252c <__divdi3+0x348>
    2488:	ebc2 0808 	rsb	r8, r2, r8
    248c:	4659      	mov	r1, fp
    248e:	4640      	mov	r0, r8
    2490:	9301      	str	r3, [sp, #4]
    2492:	f000 f9dd 	bl	2850 <__aeabi_uidiv>
    2496:	4659      	mov	r1, fp
    2498:	4607      	mov	r7, r0
    249a:	4640      	mov	r0, r8
    249c:	f000 fb06 	bl	2aac <__aeabi_uidivmod>
    24a0:	9b01      	ldr	r3, [sp, #4]
    24a2:	9803      	ldr	r0, [sp, #12]
    24a4:	fb03 f307 	mul.w	r3, r3, r7
    24a8:	fa1f fc80 	uxth.w	ip, r0
    24ac:	ea4c 4c01 	orr.w	ip, ip, r1, lsl #16
    24b0:	4563      	cmp	r3, ip
    24b2:	d907      	bls.n	24c4 <__divdi3+0x2e0>
    24b4:	3f01      	subs	r7, #1
    24b6:	eb1c 0c0a 	adds.w	ip, ip, sl
    24ba:	d203      	bcs.n	24c4 <__divdi3+0x2e0>
    24bc:	4563      	cmp	r3, ip
    24be:	d901      	bls.n	24c4 <__divdi3+0x2e0>
    24c0:	3f01      	subs	r7, #1
    24c2:	44d4      	add	ip, sl
    24c4:	ea47 4909 	orr.w	r9, r7, r9, lsl #16
    24c8:	9f02      	ldr	r7, [sp, #8]
    24ca:	ebc3 0c0c 	rsb	ip, r3, ip
    24ce:	fa1f fe89 	uxth.w	lr, r9
    24d2:	ea4f 4319 	mov.w	r3, r9, lsr #16
    24d6:	b2b8      	uxth	r0, r7
    24d8:	0c3f      	lsrs	r7, r7, #16
    24da:	fb00 f80e 	mul.w	r8, r0, lr
    24de:	fb00 f103 	mul.w	r1, r0, r3
    24e2:	fb07 120e 	mla	r2, r7, lr, r1
    24e6:	fb07 f003 	mul.w	r0, r7, r3
    24ea:	eb02 4218 	add.w	r2, r2, r8, lsr #16
    24ee:	4291      	cmp	r1, r2
    24f0:	bf88      	it	hi
    24f2:	f500 3080 	addhi.w	r0, r0, #65536	; 0x10000
    24f6:	eb00 4e12 	add.w	lr, r0, r2, lsr #16
    24fa:	45f4      	cmp	ip, lr
    24fc:	d312      	bcc.n	2524 <__divdi3+0x340>
    24fe:	ea4f 4202 	mov.w	r2, r2, lsl #16
    2502:	fa1f f888 	uxth.w	r8, r8
    2506:	bf14      	ite	ne
    2508:	2100      	movne	r1, #0
    250a:	2101      	moveq	r1, #1
    250c:	eb02 0c08 	add.w	ip, r2, r8
    2510:	fa15 f404 	lsls.w	r4, r5, r4
    2514:	4564      	cmp	r4, ip
    2516:	bf2c      	ite	cs
    2518:	2400      	movcs	r4, #0
    251a:	f001 0401 	andcc.w	r4, r1, #1
    251e:	2c00      	cmp	r4, #0
    2520:	f43f aec2 	beq.w	22a8 <__divdi3+0xc4>
    2524:	f109 39ff 	add.w	r9, r9, #4294967295	; 0xffffffff
    2528:	2400      	movs	r4, #0
    252a:	e6bd      	b.n	22a8 <__divdi3+0xc4>
    252c:	4542      	cmp	r2, r8
    252e:	bf84      	itt	hi
    2530:	f109 39ff 	addhi.w	r9, r9, #4294967295	; 0xffffffff
    2534:	44d0      	addhi	r8, sl
    2536:	e7a7      	b.n	2488 <__divdi3+0x2a4>
    2538:	4543      	cmp	r3, r8
    253a:	bf84      	itt	hi
    253c:	f10b 3bff 	addhi.w	fp, fp, #4294967295	; 0xffffffff
    2540:	44a0      	addhi	r8, r4
    2542:	e74f      	b.n	23e4 <__divdi3+0x200>

00002544 <__udivdi3>:
    2544:	e92d 4ff0 	stmdb	sp!, {r4, r5, r6, r7, r8, r9, sl, fp, lr}
    2548:	4605      	mov	r5, r0
    254a:	b083      	sub	sp, #12
    254c:	460c      	mov	r4, r1
    254e:	4617      	mov	r7, r2
    2550:	4680      	mov	r8, r0
    2552:	460e      	mov	r6, r1
    2554:	2b00      	cmp	r3, #0
    2556:	d14d      	bne.n	25f4 <__udivdi3+0xb0>
    2558:	428a      	cmp	r2, r1
    255a:	d961      	bls.n	2620 <__udivdi3+0xdc>
    255c:	fab2 f382 	clz	r3, r2
    2560:	b153      	cbz	r3, 2578 <__udivdi3+0x34>
    2562:	f1c3 0420 	rsb	r4, r3, #32
    2566:	fa11 f603 	lsls.w	r6, r1, r3
    256a:	fa30 f204 	lsrs.w	r2, r0, r4
    256e:	409f      	lsls	r7, r3
    2570:	ea42 0606 	orr.w	r6, r2, r6
    2574:	fa00 f803 	lsl.w	r8, r0, r3
    2578:	0c3c      	lsrs	r4, r7, #16
    257a:	4630      	mov	r0, r6
    257c:	4621      	mov	r1, r4
    257e:	fa1f fa87 	uxth.w	sl, r7
    2582:	f000 f965 	bl	2850 <__aeabi_uidiv>
    2586:	4621      	mov	r1, r4
    2588:	4681      	mov	r9, r0
    258a:	4630      	mov	r0, r6
    258c:	f000 fa8e 	bl	2aac <__aeabi_uidivmod>
    2590:	ea4f 4018 	mov.w	r0, r8, lsr #16
    2594:	fb0a f309 	mul.w	r3, sl, r9
    2598:	ea40 4601 	orr.w	r6, r0, r1, lsl #16
    259c:	42b3      	cmp	r3, r6
    259e:	d908      	bls.n	25b2 <__udivdi3+0x6e>
    25a0:	19f6      	adds	r6, r6, r7
    25a2:	f109 39ff 	add.w	r9, r9, #4294967295	; 0xffffffff
    25a6:	d204      	bcs.n	25b2 <__udivdi3+0x6e>
    25a8:	42b3      	cmp	r3, r6
    25aa:	bf84      	itt	hi
    25ac:	f109 39ff 	addhi.w	r9, r9, #4294967295	; 0xffffffff
    25b0:	19f6      	addhi	r6, r6, r7
    25b2:	1af6      	subs	r6, r6, r3
    25b4:	4621      	mov	r1, r4
    25b6:	4630      	mov	r0, r6
    25b8:	fa1f f888 	uxth.w	r8, r8
    25bc:	f000 f948 	bl	2850 <__aeabi_uidiv>
    25c0:	4621      	mov	r1, r4
    25c2:	4605      	mov	r5, r0
    25c4:	4630      	mov	r0, r6
    25c6:	f000 fa71 	bl	2aac <__aeabi_uidivmod>
    25ca:	fb0a fa05 	mul.w	sl, sl, r5
    25ce:	ea48 4801 	orr.w	r8, r8, r1, lsl #16
    25d2:	45c2      	cmp	sl, r8
    25d4:	d906      	bls.n	25e4 <__udivdi3+0xa0>
    25d6:	3d01      	subs	r5, #1
    25d8:	eb18 0807 	adds.w	r8, r8, r7
    25dc:	d202      	bcs.n	25e4 <__udivdi3+0xa0>
    25de:	45c2      	cmp	sl, r8
    25e0:	bf88      	it	hi
    25e2:	3d01      	subhi	r5, #1
    25e4:	ea45 4a09 	orr.w	sl, r5, r9, lsl #16
    25e8:	2600      	movs	r6, #0
    25ea:	4631      	mov	r1, r6
    25ec:	4650      	mov	r0, sl
    25ee:	b003      	add	sp, #12
    25f0:	e8bd 8ff0 	ldmia.w	sp!, {r4, r5, r6, r7, r8, r9, sl, fp, pc}
    25f4:	428b      	cmp	r3, r1
    25f6:	d85b      	bhi.n	26b0 <__udivdi3+0x16c>
    25f8:	fab3 f683 	clz	r6, r3
    25fc:	2e00      	cmp	r6, #0
    25fe:	d15a      	bne.n	26b6 <__udivdi3+0x172>
    2600:	428b      	cmp	r3, r1
    2602:	f04f 0a01 	mov.w	sl, #1
    2606:	bf2c      	ite	cs
    2608:	2400      	movcs	r4, #0
    260a:	2401      	movcc	r4, #1
    260c:	4282      	cmp	r2, r0
    260e:	bf8c      	ite	hi
    2610:	4625      	movhi	r5, r4
    2612:	f044 0501 	orrls.w	r5, r4, #1
    2616:	2d00      	cmp	r5, #0
    2618:	d1e7      	bne.n	25ea <__udivdi3+0xa6>
    261a:	462e      	mov	r6, r5
    261c:	46aa      	mov	sl, r5
    261e:	e7e4      	b.n	25ea <__udivdi3+0xa6>
    2620:	b922      	cbnz	r2, 262c <__udivdi3+0xe8>
    2622:	2001      	movs	r0, #1
    2624:	4611      	mov	r1, r2
    2626:	f000 f913 	bl	2850 <__aeabi_uidiv>
    262a:	4607      	mov	r7, r0
    262c:	fab7 f387 	clz	r3, r7
    2630:	2b00      	cmp	r3, #0
    2632:	f040 80b6 	bne.w	27a2 <__udivdi3+0x25e>
    2636:	1be4      	subs	r4, r4, r7
    2638:	ea4f 4b17 	mov.w	fp, r7, lsr #16
    263c:	b2bd      	uxth	r5, r7
    263e:	2601      	movs	r6, #1
    2640:	4659      	mov	r1, fp
    2642:	4620      	mov	r0, r4
    2644:	f000 f904 	bl	2850 <__aeabi_uidiv>
    2648:	4659      	mov	r1, fp
    264a:	ea4f 4918 	mov.w	r9, r8, lsr #16
    264e:	4682      	mov	sl, r0
    2650:	4620      	mov	r0, r4
    2652:	f000 fa2b 	bl	2aac <__aeabi_uidivmod>
    2656:	fb05 f30a 	mul.w	r3, r5, sl
    265a:	ea49 4401 	orr.w	r4, r9, r1, lsl #16
    265e:	42a3      	cmp	r3, r4
    2660:	d908      	bls.n	2674 <__udivdi3+0x130>
    2662:	19e4      	adds	r4, r4, r7
    2664:	f10a 3aff 	add.w	sl, sl, #4294967295	; 0xffffffff
    2668:	d204      	bcs.n	2674 <__udivdi3+0x130>
    266a:	42a3      	cmp	r3, r4
    266c:	bf84      	itt	hi
    266e:	f10a 3aff 	addhi.w	sl, sl, #4294967295	; 0xffffffff
    2672:	19e4      	addhi	r4, r4, r7
    2674:	1ae4      	subs	r4, r4, r3
    2676:	4659      	mov	r1, fp
    2678:	4620      	mov	r0, r4
    267a:	f000 f8e9 	bl	2850 <__aeabi_uidiv>
    267e:	4659      	mov	r1, fp
    2680:	4681      	mov	r9, r0
    2682:	4620      	mov	r0, r4
    2684:	f000 fa12 	bl	2aac <__aeabi_uidivmod>
    2688:	fa1f f388 	uxth.w	r3, r8
    268c:	fb05 f509 	mul.w	r5, r5, r9
    2690:	ea43 4801 	orr.w	r8, r3, r1, lsl #16
    2694:	4545      	cmp	r5, r8
    2696:	d908      	bls.n	26aa <__udivdi3+0x166>
    2698:	eb18 0807 	adds.w	r8, r8, r7
    269c:	f109 39ff 	add.w	r9, r9, #4294967295	; 0xffffffff
    26a0:	d203      	bcs.n	26aa <__udivdi3+0x166>
    26a2:	4545      	cmp	r5, r8
    26a4:	bf88      	it	hi
    26a6:	f109 39ff 	addhi.w	r9, r9, #4294967295	; 0xffffffff
    26aa:	ea49 4a0a 	orr.w	sl, r9, sl, lsl #16
    26ae:	e79c      	b.n	25ea <__udivdi3+0xa6>
    26b0:	2600      	movs	r6, #0
    26b2:	46b2      	mov	sl, r6
    26b4:	e799      	b.n	25ea <__udivdi3+0xa6>
    26b6:	f1c6 0120 	rsb	r1, r6, #32
    26ba:	40b3      	lsls	r3, r6
    26bc:	fa32 f701 	lsrs.w	r7, r2, r1
    26c0:	fa24 f901 	lsr.w	r9, r4, r1
    26c4:	431f      	orrs	r7, r3
    26c6:	40b4      	lsls	r4, r6
    26c8:	fa30 f301 	lsrs.w	r3, r0, r1
    26cc:	4648      	mov	r0, r9
    26ce:	ea4f 4817 	mov.w	r8, r7, lsr #16
    26d2:	ea43 0104 	orr.w	r1, r3, r4
    26d6:	9101      	str	r1, [sp, #4]
    26d8:	4641      	mov	r1, r8
    26da:	40b2      	lsls	r2, r6
    26dc:	9200      	str	r2, [sp, #0]
    26de:	f000 f8b7 	bl	2850 <__aeabi_uidiv>
    26e2:	4641      	mov	r1, r8
    26e4:	b2bc      	uxth	r4, r7
    26e6:	4682      	mov	sl, r0
    26e8:	4648      	mov	r0, r9
    26ea:	f000 f9df 	bl	2aac <__aeabi_uidivmod>
    26ee:	9801      	ldr	r0, [sp, #4]
    26f0:	fb04 f30a 	mul.w	r3, r4, sl
    26f4:	ea4f 4b10 	mov.w	fp, r0, lsr #16
    26f8:	ea4b 4b01 	orr.w	fp, fp, r1, lsl #16
    26fc:	455b      	cmp	r3, fp
    26fe:	d905      	bls.n	270c <__udivdi3+0x1c8>
    2700:	eb1b 0b07 	adds.w	fp, fp, r7
    2704:	f10a 3aff 	add.w	sl, sl, #4294967295	; 0xffffffff
    2708:	f0c0 8093 	bcc.w	2832 <__udivdi3+0x2ee>
    270c:	ebc3 0b0b 	rsb	fp, r3, fp
    2710:	4641      	mov	r1, r8
    2712:	4658      	mov	r0, fp
    2714:	f000 f89c 	bl	2850 <__aeabi_uidiv>
    2718:	4641      	mov	r1, r8
    271a:	4681      	mov	r9, r0
    271c:	4658      	mov	r0, fp
    271e:	f000 f9c5 	bl	2aac <__aeabi_uidivmod>
    2722:	9801      	ldr	r0, [sp, #4]
    2724:	fb04 f409 	mul.w	r4, r4, r9
    2728:	fa1f fc80 	uxth.w	ip, r0
    272c:	ea4c 4301 	orr.w	r3, ip, r1, lsl #16
    2730:	429c      	cmp	r4, r3
    2732:	d903      	bls.n	273c <__udivdi3+0x1f8>
    2734:	19db      	adds	r3, r3, r7
    2736:	f109 39ff 	add.w	r9, r9, #4294967295	; 0xffffffff
    273a:	d374      	bcc.n	2826 <__udivdi3+0x2e2>
    273c:	9f00      	ldr	r7, [sp, #0]
    273e:	ea49 4a0a 	orr.w	sl, r9, sl, lsl #16
    2742:	1b1c      	subs	r4, r3, r4
    2744:	fa1f fe8a 	uxth.w	lr, sl
    2748:	b2b8      	uxth	r0, r7
    274a:	0c3a      	lsrs	r2, r7, #16
    274c:	ea4f 471a 	mov.w	r7, sl, lsr #16
    2750:	fb00 fc0e 	mul.w	ip, r0, lr
    2754:	fb00 f307 	mul.w	r3, r0, r7
    2758:	fb02 310e 	mla	r1, r2, lr, r3
    275c:	fb02 f207 	mul.w	r2, r2, r7
    2760:	eb01 411c 	add.w	r1, r1, ip, lsr #16
    2764:	428b      	cmp	r3, r1
    2766:	bf88      	it	hi
    2768:	f502 3280 	addhi.w	r2, r2, #65536	; 0x10000
    276c:	eb02 4e11 	add.w	lr, r2, r1, lsr #16
    2770:	4574      	cmp	r4, lr
    2772:	d312      	bcc.n	279a <__udivdi3+0x256>
    2774:	ea4f 4101 	mov.w	r1, r1, lsl #16
    2778:	fa1f f28c 	uxth.w	r2, ip
    277c:	bf14      	ite	ne
    277e:	2300      	movne	r3, #0
    2780:	2301      	moveq	r3, #1
    2782:	eb01 0c02 	add.w	ip, r1, r2
    2786:	fa15 f606 	lsls.w	r6, r5, r6
    278a:	4566      	cmp	r6, ip
    278c:	bf2c      	ite	cs
    278e:	2600      	movcs	r6, #0
    2790:	f003 0601 	andcc.w	r6, r3, #1
    2794:	2e00      	cmp	r6, #0
    2796:	f43f af28 	beq.w	25ea <__udivdi3+0xa6>
    279a:	f10a 3aff 	add.w	sl, sl, #4294967295	; 0xffffffff
    279e:	2600      	movs	r6, #0
    27a0:	e723      	b.n	25ea <__udivdi3+0xa6>
    27a2:	409f      	lsls	r7, r3
    27a4:	f1c3 0120 	rsb	r1, r3, #32
    27a8:	fa34 f601 	lsrs.w	r6, r4, r1
    27ac:	fa14 f203 	lsls.w	r2, r4, r3
    27b0:	ea4f 4b17 	mov.w	fp, r7, lsr #16
    27b4:	fa25 fa01 	lsr.w	sl, r5, r1
    27b8:	4630      	mov	r0, r6
    27ba:	4659      	mov	r1, fp
    27bc:	fa05 f803 	lsl.w	r8, r5, r3
    27c0:	ea4a 0a02 	orr.w	sl, sl, r2
    27c4:	f000 f844 	bl	2850 <__aeabi_uidiv>
    27c8:	4659      	mov	r1, fp
    27ca:	b2bd      	uxth	r5, r7
    27cc:	4681      	mov	r9, r0
    27ce:	4630      	mov	r0, r6
    27d0:	f000 f96c 	bl	2aac <__aeabi_uidivmod>
    27d4:	ea4f 4c1a 	mov.w	ip, sl, lsr #16
    27d8:	fb05 f309 	mul.w	r3, r5, r9
    27dc:	ea4c 4401 	orr.w	r4, ip, r1, lsl #16
    27e0:	42a3      	cmp	r3, r4
    27e2:	d903      	bls.n	27ec <__udivdi3+0x2a8>
    27e4:	19e4      	adds	r4, r4, r7
    27e6:	f109 39ff 	add.w	r9, r9, #4294967295	; 0xffffffff
    27ea:	d328      	bcc.n	283e <__udivdi3+0x2fa>
    27ec:	1ae4      	subs	r4, r4, r3
    27ee:	4659      	mov	r1, fp
    27f0:	4620      	mov	r0, r4
    27f2:	f000 f82d 	bl	2850 <__aeabi_uidiv>
    27f6:	4659      	mov	r1, fp
    27f8:	4606      	mov	r6, r0
    27fa:	4620      	mov	r0, r4
    27fc:	f000 f956 	bl	2aac <__aeabi_uidivmod>
    2800:	fa1f f48a 	uxth.w	r4, sl
    2804:	fb05 f306 	mul.w	r3, r5, r6
    2808:	ea44 4401 	orr.w	r4, r4, r1, lsl #16
    280c:	42a3      	cmp	r3, r4
    280e:	d906      	bls.n	281e <__udivdi3+0x2da>
    2810:	3e01      	subs	r6, #1
    2812:	19e4      	adds	r4, r4, r7
    2814:	d203      	bcs.n	281e <__udivdi3+0x2da>
    2816:	42a3      	cmp	r3, r4
    2818:	d901      	bls.n	281e <__udivdi3+0x2da>
    281a:	3e01      	subs	r6, #1
    281c:	19e4      	adds	r4, r4, r7
    281e:	1ae4      	subs	r4, r4, r3
    2820:	ea46 4609 	orr.w	r6, r6, r9, lsl #16
    2824:	e70c      	b.n	2640 <__udivdi3+0xfc>
    2826:	429c      	cmp	r4, r3
    2828:	bf84      	itt	hi
    282a:	f109 39ff 	addhi.w	r9, r9, #4294967295	; 0xffffffff
    282e:	19db      	addhi	r3, r3, r7
    2830:	e784      	b.n	273c <__udivdi3+0x1f8>
    2832:	455b      	cmp	r3, fp
    2834:	bf84      	itt	hi
    2836:	f10a 3aff 	addhi.w	sl, sl, #4294967295	; 0xffffffff
    283a:	44bb      	addhi	fp, r7
    283c:	e766      	b.n	270c <__udivdi3+0x1c8>
    283e:	42a3      	cmp	r3, r4
    2840:	bf84      	itt	hi
    2842:	f109 39ff 	addhi.w	r9, r9, #4294967295	; 0xffffffff
    2846:	19e4      	addhi	r4, r4, r7
    2848:	e7d0      	b.n	27ec <__udivdi3+0x2a8>
    284a:	bf00      	nop
    284c:	0000      	movs	r0, r0
	...

00002850 <__aeabi_uidiv>:
    2850:	1e4a      	subs	r2, r1, #1
    2852:	bf08      	it	eq
    2854:	4770      	bxeq	lr
    2856:	f0c0 8124 	bcc.w	2aa2 <__aeabi_uidiv+0x252>
    285a:	4288      	cmp	r0, r1
    285c:	f240 8116 	bls.w	2a8c <__aeabi_uidiv+0x23c>
    2860:	4211      	tst	r1, r2
    2862:	f000 8117 	beq.w	2a94 <__aeabi_uidiv+0x244>
    2866:	fab0 f380 	clz	r3, r0
    286a:	fab1 f281 	clz	r2, r1
    286e:	eba2 0303 	sub.w	r3, r2, r3
    2872:	f1c3 031f 	rsb	r3, r3, #31
    2876:	a204      	add	r2, pc, #16	; (adr r2, 2888 <__aeabi_uidiv+0x38>)
    2878:	eb02 1303 	add.w	r3, r2, r3, lsl #4
    287c:	f04f 0200 	mov.w	r2, #0
    2880:	469f      	mov	pc, r3
    2882:	bf00      	nop
    2884:	f3af 8000 	nop.w
    2888:	ebb0 7fc1 	cmp.w	r0, r1, lsl #31
    288c:	bf00      	nop
    288e:	eb42 0202 	adc.w	r2, r2, r2
    2892:	bf28      	it	cs
    2894:	eba0 70c1 	subcs.w	r0, r0, r1, lsl #31
    2898:	ebb0 7f81 	cmp.w	r0, r1, lsl #30
    289c:	bf00      	nop
    289e:	eb42 0202 	adc.w	r2, r2, r2
    28a2:	bf28      	it	cs
    28a4:	eba0 7081 	subcs.w	r0, r0, r1, lsl #30
    28a8:	ebb0 7f41 	cmp.w	r0, r1, lsl #29
    28ac:	bf00      	nop
    28ae:	eb42 0202 	adc.w	r2, r2, r2
    28b2:	bf28      	it	cs
    28b4:	eba0 7041 	subcs.w	r0, r0, r1, lsl #29
    28b8:	ebb0 7f01 	cmp.w	r0, r1, lsl #28
    28bc:	bf00      	nop
    28be:	eb42 0202 	adc.w	r2, r2, r2
    28c2:	bf28      	it	cs
    28c4:	eba0 7001 	subcs.w	r0, r0, r1, lsl #28
    28c8:	ebb0 6fc1 	cmp.w	r0, r1, lsl #27
    28cc:	bf00      	nop
    28ce:	eb42 0202 	adc.w	r2, r2, r2
    28d2:	bf28      	it	cs
    28d4:	eba0 60c1 	subcs.w	r0, r0, r1, lsl #27
    28d8:	ebb0 6f81 	cmp.w	r0, r1, lsl #26
    28dc:	bf00      	nop
    28de:	eb42 0202 	adc.w	r2, r2, r2
    28e2:	bf28      	it	cs
    28e4:	eba0 6081 	subcs.w	r0, r0, r1, lsl #26
    28e8:	ebb0 6f41 	cmp.w	r0, r1, lsl #25
    28ec:	bf00      	nop
    28ee:	eb42 0202 	adc.w	r2, r2, r2
    28f2:	bf28      	it	cs
    28f4:	eba0 6041 	subcs.w	r0, r0, r1, lsl #25
    28f8:	ebb0 6f01 	cmp.w	r0, r1, lsl #24
    28fc:	bf00      	nop
    28fe:	eb42 0202 	adc.w	r2, r2, r2
    2902:	bf28      	it	cs
    2904:	eba0 6001 	subcs.w	r0, r0, r1, lsl #24
    2908:	ebb0 5fc1 	cmp.w	r0, r1, lsl #23
    290c:	bf00      	nop
    290e:	eb42 0202 	adc.w	r2, r2, r2
    2912:	bf28      	it	cs
    2914:	eba0 50c1 	subcs.w	r0, r0, r1, lsl #23
    2918:	ebb0 5f81 	cmp.w	r0, r1, lsl #22
    291c:	bf00      	nop
    291e:	eb42 0202 	adc.w	r2, r2, r2
    2922:	bf28      	it	cs
    2924:	eba0 5081 	subcs.w	r0, r0, r1, lsl #22
    2928:	ebb0 5f41 	cmp.w	r0, r1, lsl #21
    292c:	bf00      	nop
    292e:	eb42 0202 	adc.w	r2, r2, r2
    2932:	bf28      	it	cs
    2934:	eba0 5041 	subcs.w	r0, r0, r1, lsl #21
    2938:	ebb0 5f01 	cmp.w	r0, r1, lsl #20
    293c:	bf00      	nop
    293e:	eb42 0202 	adc.w	r2, r2, r2
    2942:	bf28      	it	cs
    2944:	eba0 5001 	subcs.w	r0, r0, r1, lsl #20
    2948:	ebb0 4fc1 	cmp.w	r0, r1, lsl #19
    294c:	bf00      	nop
    294e:	eb42 0202 	adc.w	r2, r2, r2
    2952:	bf28      	it	cs
    2954:	eba0 40c1 	subcs.w	r0, r0, r1, lsl #19
    2958:	ebb0 4f81 	cmp.w	r0, r1, lsl #18
    295c:	bf00      	nop
    295e:	eb42 0202 	adc.w	r2, r2, r2
    2962:	bf28      	it	cs
    2964:	eba0 4081 	subcs.w	r0, r0, r1, lsl #18
    2968:	ebb0 4f41 	cmp.w	r0, r1, lsl #17
    296c:	bf00      	nop
    296e:	eb42 0202 	adc.w	r2, r2, r2
    2972:	bf28      	it	cs
    2974:	eba0 4041 	subcs.w	r0, r0, r1, lsl #17
    2978:	ebb0 4f01 	cmp.w	r0, r1, lsl #16
    297c:	bf00      	nop
    297e:	eb42 0202 	adc.w	r2, r2, r2
    2982:	bf28      	it	cs
    2984:	eba0 4001 	subcs.w	r0, r0, r1, lsl #16
    2988:	ebb0 3fc1 	cmp.w	r0, r1, lsl #15
    298c:	bf00      	nop
    298e:	eb42 0202 	adc.w	r2, r2, r2
    2992:	bf28      	it	cs
    2994:	eba0 30c1 	subcs.w	r0, r0, r1, lsl #15
    2998:	ebb0 3f81 	cmp.w	r0, r1, lsl #14
    299c:	bf00      	nop
    299e:	eb42 0202 	adc.w	r2, r2, r2
    29a2:	bf28      	it	cs
    29a4:	eba0 3081 	subcs.w	r0, r0, r1, lsl #14
    29a8:	ebb0 3f41 	cmp.w	r0, r1, lsl #13
    29ac:	bf00      	nop
    29ae:	eb42 0202 	adc.w	r2, r2, r2
    29b2:	bf28      	it	cs
    29b4:	eba0 3041 	subcs.w	r0, r0, r1, lsl #13
    29b8:	ebb0 3f01 	cmp.w	r0, r1, lsl #12
    29bc:	bf00      	nop
    29be:	eb42 0202 	adc.w	r2, r2, r2
    29c2:	bf28      	it	cs
    29c4:	eba0 3001 	subcs.w	r0, r0, r1, lsl #12
    29c8:	ebb0 2fc1 	cmp.w	r0, r1, lsl #11
    29cc:	bf00      	nop
    29ce:	eb42 0202 	adc.w	r2, r2, r2
    29d2:	bf28      	it	cs
    29d4:	eba0 20c1 	subcs.w	r0, r0, r1, lsl #11
    29d8:	ebb0 2f81 	cmp.w	r0, r1, lsl #10
    29dc:	bf00      	nop
    29de:	eb42 0202 	adc.w	r2, r2, r2
    29e2:	bf28      	it	cs
    29e4:	eba0 2081 	subcs.w	r0, r0, r1, lsl #10
    29e8:	ebb0 2f41 	cmp.w	r0, r1, lsl #9
    29ec:	bf00      	nop
    29ee:	eb42 0202 	adc.w	r2, r2, r2
    29f2:	bf28      	it	cs
    29f4:	eba0 2041 	subcs.w	r0, r0, r1, lsl #9
    29f8:	ebb0 2f01 	cmp.w	r0, r1, lsl #8
    29fc:	bf00      	nop
    29fe:	eb42 0202 	adc.w	r2, r2, r2
    2a02:	bf28      	it	cs
    2a04:	eba0 2001 	subcs.w	r0, r0, r1, lsl #8
    2a08:	ebb0 1fc1 	cmp.w	r0, r1, lsl #7
    2a0c:	bf00      	nop
    2a0e:	eb42 0202 	adc.w	r2, r2, r2
    2a12:	bf28      	it	cs
    2a14:	eba0 10c1 	subcs.w	r0, r0, r1, lsl #7
    2a18:	ebb0 1f81 	cmp.w	r0, r1, lsl #6
    2a1c:	bf00      	nop
    2a1e:	eb42 0202 	adc.w	r2, r2, r2
    2a22:	bf28      	it	cs
    2a24:	eba0 1081 	subcs.w	r0, r0, r1, lsl #6
    2a28:	ebb0 1f41 	cmp.w	r0, r1, lsl #5
    2a2c:	bf00      	nop
    2a2e:	eb42 0202 	adc.w	r2, r2, r2
    2a32:	bf28      	it	cs
    2a34:	eba0 1041 	subcs.w	r0, r0, r1, lsl #5
    2a38:	ebb0 1f01 	cmp.w	r0, r1, lsl #4
    2a3c:	bf00      	nop
    2a3e:	eb42 0202 	adc.w	r2, r2, r2
    2a42:	bf28      	it	cs
    2a44:	eba0 1001 	subcs.w	r0, r0, r1, lsl #4
    2a48:	ebb0 0fc1 	cmp.w	r0, r1, lsl #3
    2a4c:	bf00      	nop
    2a4e:	eb42 0202 	adc.w	r2, r2, r2
    2a52:	bf28      	it	cs
    2a54:	eba0 00c1 	subcs.w	r0, r0, r1, lsl #3
    2a58:	ebb0 0f81 	cmp.w	r0, r1, lsl #2
    2a5c:	bf00      	nop
    2a5e:	eb42 0202 	adc.w	r2, r2, r2
    2a62:	bf28      	it	cs
    2a64:	eba0 0081 	subcs.w	r0, r0, r1, lsl #2
    2a68:	ebb0 0f41 	cmp.w	r0, r1, lsl #1
    2a6c:	bf00      	nop
    2a6e:	eb42 0202 	adc.w	r2, r2, r2
    2a72:	bf28      	it	cs
    2a74:	eba0 0041 	subcs.w	r0, r0, r1, lsl #1
    2a78:	ebb0 0f01 	cmp.w	r0, r1
    2a7c:	bf00      	nop
    2a7e:	eb42 0202 	adc.w	r2, r2, r2
    2a82:	bf28      	it	cs
    2a84:	eba0 0001 	subcs.w	r0, r0, r1
    2a88:	4610      	mov	r0, r2
    2a8a:	4770      	bx	lr
    2a8c:	bf0c      	ite	eq
    2a8e:	2001      	moveq	r0, #1
    2a90:	2000      	movne	r0, #0
    2a92:	4770      	bx	lr
    2a94:	fab1 f281 	clz	r2, r1
    2a98:	f1c2 021f 	rsb	r2, r2, #31
    2a9c:	fa20 f002 	lsr.w	r0, r0, r2
    2aa0:	4770      	bx	lr
    2aa2:	b108      	cbz	r0, 2aa8 <__aeabi_uidiv+0x258>
    2aa4:	f04f 30ff 	mov.w	r0, #4294967295	; 0xffffffff
    2aa8:	f7ff bb9a 	b.w	21e0 <__aeabi_idiv0>

00002aac <__aeabi_uidivmod>:
    2aac:	2900      	cmp	r1, #0
    2aae:	d0f8      	beq.n	2aa2 <__aeabi_uidiv+0x252>
    2ab0:	e92d 4003 	stmdb	sp!, {r0, r1, lr}
    2ab4:	f7ff fecc 	bl	2850 <__aeabi_uidiv>
    2ab8:	e8bd 4006 	ldmia.w	sp!, {r1, r2, lr}
    2abc:	fb02 f300 	mul.w	r3, r2, r0
    2ac0:	eba1 0103 	sub.w	r1, r1, r3
    2ac4:	4770      	bx	lr
    2ac6:	bf00      	nop

00002ac8 <abort>:
    2ac8:	b508      	push	{r3, lr}
    2aca:	2006      	movs	r0, #6
    2acc:	f000 fe1c 	bl	3708 <raise>
    2ad0:	2001      	movs	r0, #1
    2ad2:	f7fd fc4f 	bl	374 <_exit>

00002ad6 <__aeabi_assert>:
    2ad6:	b508      	push	{r3, lr}
    2ad8:	4603      	mov	r3, r0
    2ada:	4608      	mov	r0, r1
    2adc:	4611      	mov	r1, r2
    2ade:	461a      	mov	r2, r3
    2ae0:	f003 ffde 	bl	6aa0 <__assert>

00002ae4 <setup_aeabi_stdio>:
    2ae4:	4b05      	ldr	r3, [pc, #20]	; (2afc <setup_aeabi_stdio+0x18>)
    2ae6:	4a06      	ldr	r2, [pc, #24]	; (2b00 <setup_aeabi_stdio+0x1c>)
    2ae8:	681b      	ldr	r3, [r3, #0]
    2aea:	6859      	ldr	r1, [r3, #4]
    2aec:	6011      	str	r1, [r2, #0]
    2aee:	6899      	ldr	r1, [r3, #8]
    2af0:	4a04      	ldr	r2, [pc, #16]	; (2b04 <setup_aeabi_stdio+0x20>)
    2af2:	6011      	str	r1, [r2, #0]
    2af4:	68da      	ldr	r2, [r3, #12]
    2af6:	4b04      	ldr	r3, [pc, #16]	; (2b08 <setup_aeabi_stdio+0x24>)
    2af8:	601a      	str	r2, [r3, #0]
    2afa:	4770      	bx	lr
    2afc:	10000110 	.word	0x10000110
    2b00:	10000674 	.word	0x10000674
    2b04:	10000678 	.word	0x10000678
    2b08:	1000067c 	.word	0x1000067c

00002b0c <__cxa_atexit>:
    2b0c:	b530      	push	{r4, r5, lr}
    2b0e:	4605      	mov	r5, r0
    2b10:	460c      	mov	r4, r1
    2b12:	4613      	mov	r3, r2
    2b14:	2002      	movs	r0, #2
    2b16:	4629      	mov	r1, r5
    2b18:	4622      	mov	r2, r4
    2b1a:	e8bd 4030 	ldmia.w	sp!, {r4, r5, lr}
    2b1e:	f003 bf43 	b.w	69a8 <__register_exitproc>
	...

00002b24 <fprintf>:
    2b24:	b40e      	push	{r1, r2, r3}
    2b26:	b503      	push	{r0, r1, lr}
    2b28:	ab03      	add	r3, sp, #12
    2b2a:	4601      	mov	r1, r0
    2b2c:	4805      	ldr	r0, [pc, #20]	; (2b44 <fprintf+0x20>)
    2b2e:	f853 2b04 	ldr.w	r2, [r3], #4
    2b32:	6800      	ldr	r0, [r0, #0]
    2b34:	9301      	str	r3, [sp, #4]
    2b36:	f002 fdcf 	bl	56d8 <_vfprintf_r>
    2b3a:	e8bd 400c 	ldmia.w	sp!, {r2, r3, lr}
    2b3e:	b003      	add	sp, #12
    2b40:	4770      	bx	lr
    2b42:	bf00      	nop
    2b44:	10000110 	.word	0x10000110

00002b48 <__sfvwrite_r>:
    2b48:	e92d 4ff7 	stmdb	sp!, {r0, r1, r2, r4, r5, r6, r7, r8, r9, sl, fp, lr}
    2b4c:	4606      	mov	r6, r0
    2b4e:	6890      	ldr	r0, [r2, #8]
    2b50:	460c      	mov	r4, r1
    2b52:	4692      	mov	sl, r2
    2b54:	2800      	cmp	r0, #0
    2b56:	f000 813f 	beq.w	2dd8 <__sfvwrite_r+0x290>
    2b5a:	898b      	ldrh	r3, [r1, #12]
    2b5c:	f013 0f08 	tst.w	r3, #8
    2b60:	d001      	beq.n	2b66 <__sfvwrite_r+0x1e>
    2b62:	690b      	ldr	r3, [r1, #16]
    2b64:	b95b      	cbnz	r3, 2b7e <__sfvwrite_r+0x36>
    2b66:	4630      	mov	r0, r6
    2b68:	4621      	mov	r1, r4
    2b6a:	f003 feaf 	bl	68cc <__swsetup_r>
    2b6e:	b130      	cbz	r0, 2b7e <__sfvwrite_r+0x36>
    2b70:	89a3      	ldrh	r3, [r4, #12]
    2b72:	f043 0340 	orr.w	r3, r3, #64	; 0x40
    2b76:	81a3      	strh	r3, [r4, #12]
    2b78:	2309      	movs	r3, #9
    2b7a:	6033      	str	r3, [r6, #0]
    2b7c:	e12a      	b.n	2dd4 <__sfvwrite_r+0x28c>
    2b7e:	f8b4 900c 	ldrh.w	r9, [r4, #12]
    2b82:	f8da 8000 	ldr.w	r8, [sl]
    2b86:	f019 0702 	ands.w	r7, r9, #2
    2b8a:	d024      	beq.n	2bd6 <__sfvwrite_r+0x8e>
    2b8c:	2700      	movs	r7, #0
    2b8e:	46b9      	mov	r9, r7
    2b90:	e005      	b.n	2b9e <__sfvwrite_r+0x56>
    2b92:	f8d8 7000 	ldr.w	r7, [r8]
    2b96:	f8d8 9004 	ldr.w	r9, [r8, #4]
    2b9a:	f108 0808 	add.w	r8, r8, #8
    2b9e:	f1b9 0f00 	cmp.w	r9, #0
    2ba2:	d0f6      	beq.n	2b92 <__sfvwrite_r+0x4a>
    2ba4:	f1b9 0f80 	cmp.w	r9, #128	; 0x80
    2ba8:	bf34      	ite	cc
    2baa:	464b      	movcc	r3, r9
    2bac:	2380      	movcs	r3, #128	; 0x80
    2bae:	6aa5      	ldr	r5, [r4, #40]	; 0x28
    2bb0:	4630      	mov	r0, r6
    2bb2:	6a21      	ldr	r1, [r4, #32]
    2bb4:	463a      	mov	r2, r7
    2bb6:	47a8      	blx	r5
    2bb8:	1e03      	subs	r3, r0, #0
    2bba:	f340 8107 	ble.w	2dcc <__sfvwrite_r+0x284>
    2bbe:	f8da 0008 	ldr.w	r0, [sl, #8]
    2bc2:	1ac0      	subs	r0, r0, r3
    2bc4:	f8ca 0008 	str.w	r0, [sl, #8]
    2bc8:	2800      	cmp	r0, #0
    2bca:	f000 8105 	beq.w	2dd8 <__sfvwrite_r+0x290>
    2bce:	18ff      	adds	r7, r7, r3
    2bd0:	ebc3 0909 	rsb	r9, r3, r9
    2bd4:	e7e3      	b.n	2b9e <__sfvwrite_r+0x56>
    2bd6:	f019 0901 	ands.w	r9, r9, #1
    2bda:	d003      	beq.n	2be4 <__sfvwrite_r+0x9c>
    2bdc:	9701      	str	r7, [sp, #4]
    2bde:	46b9      	mov	r9, r7
    2be0:	9700      	str	r7, [sp, #0]
    2be2:	e09b      	b.n	2d1c <__sfvwrite_r+0x1d4>
    2be4:	464d      	mov	r5, r9
    2be6:	e005      	b.n	2bf4 <__sfvwrite_r+0xac>
    2be8:	f8d8 9000 	ldr.w	r9, [r8]
    2bec:	f8d8 5004 	ldr.w	r5, [r8, #4]
    2bf0:	f108 0808 	add.w	r8, r8, #8
    2bf4:	2d00      	cmp	r5, #0
    2bf6:	d0f7      	beq.n	2be8 <__sfvwrite_r+0xa0>
    2bf8:	89a3      	ldrh	r3, [r4, #12]
    2bfa:	68a7      	ldr	r7, [r4, #8]
    2bfc:	f413 7f00 	tst.w	r3, #512	; 0x200
    2c00:	d050      	beq.n	2ca4 <__sfvwrite_r+0x15c>
    2c02:	42bd      	cmp	r5, r7
    2c04:	d340      	bcc.n	2c88 <__sfvwrite_r+0x140>
    2c06:	f413 6f90 	tst.w	r3, #1152	; 0x480
    2c0a:	d03b      	beq.n	2c84 <__sfvwrite_r+0x13c>
    2c0c:	6921      	ldr	r1, [r4, #16]
    2c0e:	6822      	ldr	r2, [r4, #0]
    2c10:	1a52      	subs	r2, r2, r1
    2c12:	9200      	str	r2, [sp, #0]
    2c14:	6962      	ldr	r2, [r4, #20]
    2c16:	9800      	ldr	r0, [sp, #0]
    2c18:	eb02 0b42 	add.w	fp, r2, r2, lsl #1
    2c1c:	1c42      	adds	r2, r0, #1
    2c1e:	1952      	adds	r2, r2, r5
    2c20:	eb0b 7bdb 	add.w	fp, fp, fp, lsr #31
    2c24:	ea4f 0b6b 	mov.w	fp, fp, asr #1
    2c28:	4593      	cmp	fp, r2
    2c2a:	bf38      	it	cc
    2c2c:	4693      	movcc	fp, r2
    2c2e:	f413 6f80 	tst.w	r3, #1024	; 0x400
    2c32:	d010      	beq.n	2c56 <__sfvwrite_r+0x10e>
    2c34:	4630      	mov	r0, r6
    2c36:	4659      	mov	r1, fp
    2c38:	f000 f95c 	bl	2ef4 <_malloc_r>
    2c3c:	4607      	mov	r7, r0
    2c3e:	b1a0      	cbz	r0, 2c6a <__sfvwrite_r+0x122>
    2c40:	6921      	ldr	r1, [r4, #16]
    2c42:	9a00      	ldr	r2, [sp, #0]
    2c44:	f000 fb68 	bl	3318 <memcpy>
    2c48:	89a3      	ldrh	r3, [r4, #12]
    2c4a:	f423 6390 	bic.w	r3, r3, #1152	; 0x480
    2c4e:	f043 0380 	orr.w	r3, r3, #128	; 0x80
    2c52:	81a3      	strh	r3, [r4, #12]
    2c54:	e00c      	b.n	2c70 <__sfvwrite_r+0x128>
    2c56:	4630      	mov	r0, r6
    2c58:	465a      	mov	r2, fp
    2c5a:	f000 fb9b 	bl	3394 <_realloc_r>
    2c5e:	4607      	mov	r7, r0
    2c60:	b930      	cbnz	r0, 2c70 <__sfvwrite_r+0x128>
    2c62:	4630      	mov	r0, r6
    2c64:	6921      	ldr	r1, [r4, #16]
    2c66:	f004 ff8b 	bl	7b80 <_free_r>
    2c6a:	230c      	movs	r3, #12
    2c6c:	6033      	str	r3, [r6, #0]
    2c6e:	e0ad      	b.n	2dcc <__sfvwrite_r+0x284>
    2c70:	9a00      	ldr	r2, [sp, #0]
    2c72:	6127      	str	r7, [r4, #16]
    2c74:	18bf      	adds	r7, r7, r2
    2c76:	6027      	str	r7, [r4, #0]
    2c78:	462f      	mov	r7, r5
    2c7a:	ebc2 030b 	rsb	r3, r2, fp
    2c7e:	f8c4 b014 	str.w	fp, [r4, #20]
    2c82:	60a3      	str	r3, [r4, #8]
    2c84:	42bd      	cmp	r5, r7
    2c86:	d200      	bcs.n	2c8a <__sfvwrite_r+0x142>
    2c88:	462f      	mov	r7, r5
    2c8a:	463a      	mov	r2, r7
    2c8c:	6820      	ldr	r0, [r4, #0]
    2c8e:	4649      	mov	r1, r9
    2c90:	f000 fb4d 	bl	332e <memmove>
    2c94:	68a3      	ldr	r3, [r4, #8]
    2c96:	1bdb      	subs	r3, r3, r7
    2c98:	60a3      	str	r3, [r4, #8]
    2c9a:	6823      	ldr	r3, [r4, #0]
    2c9c:	19df      	adds	r7, r3, r7
    2c9e:	6027      	str	r7, [r4, #0]
    2ca0:	462f      	mov	r7, r5
    2ca2:	e028      	b.n	2cf6 <__sfvwrite_r+0x1ae>
    2ca4:	6820      	ldr	r0, [r4, #0]
    2ca6:	6923      	ldr	r3, [r4, #16]
    2ca8:	4298      	cmp	r0, r3
    2caa:	d90e      	bls.n	2cca <__sfvwrite_r+0x182>
    2cac:	42bd      	cmp	r5, r7
    2cae:	d90c      	bls.n	2cca <__sfvwrite_r+0x182>
    2cb0:	4649      	mov	r1, r9
    2cb2:	463a      	mov	r2, r7
    2cb4:	f000 fb3b 	bl	332e <memmove>
    2cb8:	6823      	ldr	r3, [r4, #0]
    2cba:	4630      	mov	r0, r6
    2cbc:	4621      	mov	r1, r4
    2cbe:	19db      	adds	r3, r3, r7
    2cc0:	6023      	str	r3, [r4, #0]
    2cc2:	f004 fd9d 	bl	7800 <_fflush_r>
    2cc6:	b1b0      	cbz	r0, 2cf6 <__sfvwrite_r+0x1ae>
    2cc8:	e080      	b.n	2dcc <__sfvwrite_r+0x284>
    2cca:	6963      	ldr	r3, [r4, #20]
    2ccc:	429d      	cmp	r5, r3
    2cce:	d307      	bcc.n	2ce0 <__sfvwrite_r+0x198>
    2cd0:	6aa7      	ldr	r7, [r4, #40]	; 0x28
    2cd2:	4630      	mov	r0, r6
    2cd4:	6a21      	ldr	r1, [r4, #32]
    2cd6:	464a      	mov	r2, r9
    2cd8:	47b8      	blx	r7
    2cda:	1e07      	subs	r7, r0, #0
    2cdc:	dc0b      	bgt.n	2cf6 <__sfvwrite_r+0x1ae>
    2cde:	e075      	b.n	2dcc <__sfvwrite_r+0x284>
    2ce0:	4649      	mov	r1, r9
    2ce2:	462a      	mov	r2, r5
    2ce4:	f000 fb23 	bl	332e <memmove>
    2ce8:	68a3      	ldr	r3, [r4, #8]
    2cea:	462f      	mov	r7, r5
    2cec:	1b5b      	subs	r3, r3, r5
    2cee:	60a3      	str	r3, [r4, #8]
    2cf0:	6823      	ldr	r3, [r4, #0]
    2cf2:	195b      	adds	r3, r3, r5
    2cf4:	6023      	str	r3, [r4, #0]
    2cf6:	f8da 0008 	ldr.w	r0, [sl, #8]
    2cfa:	1bc0      	subs	r0, r0, r7
    2cfc:	f8ca 0008 	str.w	r0, [sl, #8]
    2d00:	2800      	cmp	r0, #0
    2d02:	d069      	beq.n	2dd8 <__sfvwrite_r+0x290>
    2d04:	44b9      	add	r9, r7
    2d06:	1bed      	subs	r5, r5, r7
    2d08:	e774      	b.n	2bf4 <__sfvwrite_r+0xac>
    2d0a:	f8d8 3004 	ldr.w	r3, [r8, #4]
    2d0e:	2000      	movs	r0, #0
    2d10:	f8d8 9000 	ldr.w	r9, [r8]
    2d14:	f108 0808 	add.w	r8, r8, #8
    2d18:	9001      	str	r0, [sp, #4]
    2d1a:	9300      	str	r3, [sp, #0]
    2d1c:	9a00      	ldr	r2, [sp, #0]
    2d1e:	2a00      	cmp	r2, #0
    2d20:	d0f3      	beq.n	2d0a <__sfvwrite_r+0x1c2>
    2d22:	9b01      	ldr	r3, [sp, #4]
    2d24:	b973      	cbnz	r3, 2d44 <__sfvwrite_r+0x1fc>
    2d26:	4648      	mov	r0, r9
    2d28:	210a      	movs	r1, #10
    2d2a:	f000 fae7 	bl	32fc <memchr>
    2d2e:	b128      	cbz	r0, 2d3c <__sfvwrite_r+0x1f4>
    2d30:	1c47      	adds	r7, r0, #1
    2d32:	2001      	movs	r0, #1
    2d34:	ebc9 0707 	rsb	r7, r9, r7
    2d38:	9001      	str	r0, [sp, #4]
    2d3a:	e003      	b.n	2d44 <__sfvwrite_r+0x1fc>
    2d3c:	9a00      	ldr	r2, [sp, #0]
    2d3e:	2301      	movs	r3, #1
    2d40:	9301      	str	r3, [sp, #4]
    2d42:	1c57      	adds	r7, r2, #1
    2d44:	f8dd b000 	ldr.w	fp, [sp]
    2d48:	6820      	ldr	r0, [r4, #0]
    2d4a:	6922      	ldr	r2, [r4, #16]
    2d4c:	455f      	cmp	r7, fp
    2d4e:	bf38      	it	cc
    2d50:	46bb      	movcc	fp, r7
    2d52:	68a5      	ldr	r5, [r4, #8]
    2d54:	4290      	cmp	r0, r2
    2d56:	6963      	ldr	r3, [r4, #20]
    2d58:	d90f      	bls.n	2d7a <__sfvwrite_r+0x232>
    2d5a:	195d      	adds	r5, r3, r5
    2d5c:	45ab      	cmp	fp, r5
    2d5e:	dd0c      	ble.n	2d7a <__sfvwrite_r+0x232>
    2d60:	4649      	mov	r1, r9
    2d62:	462a      	mov	r2, r5
    2d64:	f000 fae3 	bl	332e <memmove>
    2d68:	6823      	ldr	r3, [r4, #0]
    2d6a:	4630      	mov	r0, r6
    2d6c:	4621      	mov	r1, r4
    2d6e:	195b      	adds	r3, r3, r5
    2d70:	6023      	str	r3, [r4, #0]
    2d72:	f004 fd45 	bl	7800 <_fflush_r>
    2d76:	b1b0      	cbz	r0, 2da6 <__sfvwrite_r+0x25e>
    2d78:	e028      	b.n	2dcc <__sfvwrite_r+0x284>
    2d7a:	459b      	cmp	fp, r3
    2d7c:	db07      	blt.n	2d8e <__sfvwrite_r+0x246>
    2d7e:	6aa5      	ldr	r5, [r4, #40]	; 0x28
    2d80:	4630      	mov	r0, r6
    2d82:	6a21      	ldr	r1, [r4, #32]
    2d84:	464a      	mov	r2, r9
    2d86:	47a8      	blx	r5
    2d88:	1e05      	subs	r5, r0, #0
    2d8a:	dc0c      	bgt.n	2da6 <__sfvwrite_r+0x25e>
    2d8c:	e01e      	b.n	2dcc <__sfvwrite_r+0x284>
    2d8e:	4649      	mov	r1, r9
    2d90:	465a      	mov	r2, fp
    2d92:	f000 facc 	bl	332e <memmove>
    2d96:	68a3      	ldr	r3, [r4, #8]
    2d98:	465d      	mov	r5, fp
    2d9a:	ebcb 0303 	rsb	r3, fp, r3
    2d9e:	60a3      	str	r3, [r4, #8]
    2da0:	6823      	ldr	r3, [r4, #0]
    2da2:	445b      	add	r3, fp
    2da4:	6023      	str	r3, [r4, #0]
    2da6:	1b7f      	subs	r7, r7, r5
    2da8:	d105      	bne.n	2db6 <__sfvwrite_r+0x26e>
    2daa:	4630      	mov	r0, r6
    2dac:	4621      	mov	r1, r4
    2dae:	f004 fd27 	bl	7800 <_fflush_r>
    2db2:	b958      	cbnz	r0, 2dcc <__sfvwrite_r+0x284>
    2db4:	9701      	str	r7, [sp, #4]
    2db6:	f8da 0008 	ldr.w	r0, [sl, #8]
    2dba:	1b40      	subs	r0, r0, r5
    2dbc:	f8ca 0008 	str.w	r0, [sl, #8]
    2dc0:	b150      	cbz	r0, 2dd8 <__sfvwrite_r+0x290>
    2dc2:	9800      	ldr	r0, [sp, #0]
    2dc4:	44a9      	add	r9, r5
    2dc6:	1b40      	subs	r0, r0, r5
    2dc8:	9000      	str	r0, [sp, #0]
    2dca:	e7a7      	b.n	2d1c <__sfvwrite_r+0x1d4>
    2dcc:	89a3      	ldrh	r3, [r4, #12]
    2dce:	f043 0340 	orr.w	r3, r3, #64	; 0x40
    2dd2:	81a3      	strh	r3, [r4, #12]
    2dd4:	f04f 30ff 	mov.w	r0, #4294967295	; 0xffffffff
    2dd8:	e8bd 8ffe 	ldmia.w	sp!, {r1, r2, r3, r4, r5, r6, r7, r8, r9, sl, fp, pc}

00002ddc <_fwrite_r>:
    2ddc:	e92d 41f0 	stmdb	sp!, {r4, r5, r6, r7, r8, lr}
    2de0:	b086      	sub	sp, #24
    2de2:	fb02 f603 	mul.w	r6, r2, r3
    2de6:	461d      	mov	r5, r3
    2de8:	4614      	mov	r4, r2
    2dea:	ab04      	add	r3, sp, #16
    2dec:	9f0c      	ldr	r7, [sp, #48]	; 0x30
    2dee:	4680      	mov	r8, r0
    2df0:	9301      	str	r3, [sp, #4]
    2df2:	2301      	movs	r3, #1
    2df4:	9104      	str	r1, [sp, #16]
    2df6:	9605      	str	r6, [sp, #20]
    2df8:	9603      	str	r6, [sp, #12]
    2dfa:	9302      	str	r3, [sp, #8]
    2dfc:	b118      	cbz	r0, 2e06 <_fwrite_r+0x2a>
    2dfe:	6983      	ldr	r3, [r0, #24]
    2e00:	b90b      	cbnz	r3, 2e06 <_fwrite_r+0x2a>
    2e02:	f004 fdf5 	bl	79f0 <__sinit>
    2e06:	4b16      	ldr	r3, [pc, #88]	; (2e60 <_fwrite_r+0x84>)
    2e08:	429f      	cmp	r7, r3
    2e0a:	d102      	bne.n	2e12 <_fwrite_r+0x36>
    2e0c:	f8d8 7004 	ldr.w	r7, [r8, #4]
    2e10:	e00a      	b.n	2e28 <_fwrite_r+0x4c>
    2e12:	4b14      	ldr	r3, [pc, #80]	; (2e64 <_fwrite_r+0x88>)
    2e14:	429f      	cmp	r7, r3
    2e16:	d102      	bne.n	2e1e <_fwrite_r+0x42>
    2e18:	f8d8 7008 	ldr.w	r7, [r8, #8]
    2e1c:	e004      	b.n	2e28 <_fwrite_r+0x4c>
    2e1e:	4b12      	ldr	r3, [pc, #72]	; (2e68 <_fwrite_r+0x8c>)
    2e20:	429f      	cmp	r7, r3
    2e22:	bf08      	it	eq
    2e24:	f8d8 700c 	ldreq.w	r7, [r8, #12]
    2e28:	89bb      	ldrh	r3, [r7, #12]
    2e2a:	f413 5f00 	tst.w	r3, #8192	; 0x2000
    2e2e:	d106      	bne.n	2e3e <_fwrite_r+0x62>
    2e30:	f443 5300 	orr.w	r3, r3, #8192	; 0x2000
    2e34:	81bb      	strh	r3, [r7, #12]
    2e36:	6e7b      	ldr	r3, [r7, #100]	; 0x64
    2e38:	f423 5300 	bic.w	r3, r3, #8192	; 0x2000
    2e3c:	667b      	str	r3, [r7, #100]	; 0x64
    2e3e:	4640      	mov	r0, r8
    2e40:	4639      	mov	r1, r7
    2e42:	aa01      	add	r2, sp, #4
    2e44:	f7ff fe80 	bl	2b48 <__sfvwrite_r>
    2e48:	b128      	cbz	r0, 2e56 <_fwrite_r+0x7a>
    2e4a:	9803      	ldr	r0, [sp, #12]
    2e4c:	4621      	mov	r1, r4
    2e4e:	1a30      	subs	r0, r6, r0
    2e50:	f7ff fcfe 	bl	2850 <__aeabi_uidiv>
    2e54:	4605      	mov	r5, r0
    2e56:	4628      	mov	r0, r5
    2e58:	b006      	add	sp, #24
    2e5a:	e8bd 81f0 	ldmia.w	sp!, {r4, r5, r6, r7, r8, pc}
    2e5e:	bf00      	nop
    2e60:	0000b5d8 	.word	0x0000b5d8
    2e64:	0000b5f8 	.word	0x0000b5f8
    2e68:	0000b618 	.word	0x0000b618

00002e6c <fwrite>:
    2e6c:	b573      	push	{r0, r1, r4, r5, r6, lr}
    2e6e:	4606      	mov	r6, r0
    2e70:	9300      	str	r3, [sp, #0]
    2e72:	460d      	mov	r5, r1
    2e74:	4b04      	ldr	r3, [pc, #16]	; (2e88 <fwrite+0x1c>)
    2e76:	4614      	mov	r4, r2
    2e78:	4631      	mov	r1, r6
    2e7a:	462a      	mov	r2, r5
    2e7c:	6818      	ldr	r0, [r3, #0]
    2e7e:	4623      	mov	r3, r4
    2e80:	f7ff ffac 	bl	2ddc <_fwrite_r>
    2e84:	bd7c      	pop	{r2, r3, r4, r5, r6, pc}
    2e86:	bf00      	nop
    2e88:	10000110 	.word	0x10000110

00002e8c <__libc_init_array>:
    2e8c:	b570      	push	{r4, r5, r6, lr}
    2e8e:	2400      	movs	r4, #0
    2e90:	4d0c      	ldr	r5, [pc, #48]	; (2ec4 <__libc_init_array+0x38>)
    2e92:	4e0d      	ldr	r6, [pc, #52]	; (2ec8 <__libc_init_array+0x3c>)
    2e94:	1b76      	subs	r6, r6, r5
    2e96:	10b6      	asrs	r6, r6, #2
    2e98:	e003      	b.n	2ea2 <__libc_init_array+0x16>
    2e9a:	f855 3b04 	ldr.w	r3, [r5], #4
    2e9e:	3401      	adds	r4, #1
    2ea0:	4798      	blx	r3
    2ea2:	42b4      	cmp	r4, r6
    2ea4:	d1f9      	bne.n	2e9a <__libc_init_array+0xe>
    2ea6:	4d09      	ldr	r5, [pc, #36]	; (2ecc <__libc_init_array+0x40>)
    2ea8:	f008 fc74 	bl	b794 <_init>
    2eac:	4e08      	ldr	r6, [pc, #32]	; (2ed0 <__libc_init_array+0x44>)
    2eae:	2400      	movs	r4, #0
    2eb0:	1b76      	subs	r6, r6, r5
    2eb2:	10b6      	asrs	r6, r6, #2
    2eb4:	e003      	b.n	2ebe <__libc_init_array+0x32>
    2eb6:	f855 3b04 	ldr.w	r3, [r5], #4
    2eba:	3401      	adds	r4, #1
    2ebc:	4798      	blx	r3
    2ebe:	42b4      	cmp	r4, r6
    2ec0:	d1f9      	bne.n	2eb6 <__libc_init_array+0x2a>
    2ec2:	bd70      	pop	{r4, r5, r6, pc}
    2ec4:	0000b7a0 	.word	0x0000b7a0
    2ec8:	0000b7a4 	.word	0x0000b7a4
    2ecc:	0000b7a4 	.word	0x0000b7a4
    2ed0:	0000b7ac 	.word	0x0000b7ac

00002ed4 <malloc>:
    2ed4:	4b02      	ldr	r3, [pc, #8]	; (2ee0 <malloc+0xc>)
    2ed6:	4601      	mov	r1, r0
    2ed8:	6818      	ldr	r0, [r3, #0]
    2eda:	f000 b80b 	b.w	2ef4 <_malloc_r>
    2ede:	bf00      	nop
    2ee0:	10000110 	.word	0x10000110

00002ee4 <free>:
    2ee4:	4b02      	ldr	r3, [pc, #8]	; (2ef0 <free+0xc>)
    2ee6:	4601      	mov	r1, r0
    2ee8:	6818      	ldr	r0, [r3, #0]
    2eea:	f004 be49 	b.w	7b80 <_free_r>
    2eee:	bf00      	nop
    2ef0:	10000110 	.word	0x10000110

00002ef4 <_malloc_r>:
    2ef4:	e92d 4ff7 	stmdb	sp!, {r0, r1, r2, r4, r5, r6, r7, r8, r9, sl, fp, lr}
    2ef8:	f101 040b 	add.w	r4, r1, #11
    2efc:	2c16      	cmp	r4, #22
    2efe:	4607      	mov	r7, r0
    2f00:	d903      	bls.n	2f0a <_malloc_r+0x16>
    2f02:	f034 0407 	bics.w	r4, r4, #7
    2f06:	d501      	bpl.n	2f0c <_malloc_r+0x18>
    2f08:	e002      	b.n	2f10 <_malloc_r+0x1c>
    2f0a:	2410      	movs	r4, #16
    2f0c:	428c      	cmp	r4, r1
    2f0e:	d202      	bcs.n	2f16 <_malloc_r+0x22>
    2f10:	230c      	movs	r3, #12
    2f12:	603b      	str	r3, [r7, #0]
    2f14:	e1d6      	b.n	32c4 <_malloc_r+0x3d0>
    2f16:	4638      	mov	r0, r7
    2f18:	f000 fa21 	bl	335e <__malloc_lock>
    2f1c:	f5b4 7ffc 	cmp.w	r4, #504	; 0x1f8
    2f20:	4a97      	ldr	r2, [pc, #604]	; (3180 <_malloc_r+0x28c>)
    2f22:	d210      	bcs.n	2f46 <_malloc_r+0x52>
    2f24:	08e1      	lsrs	r1, r4, #3
    2f26:	eb02 02c1 	add.w	r2, r2, r1, lsl #3
    2f2a:	68d6      	ldr	r6, [r2, #12]
    2f2c:	4296      	cmp	r6, r2
    2f2e:	d104      	bne.n	2f3a <_malloc_r+0x46>
    2f30:	f106 0308 	add.w	r3, r6, #8
    2f34:	6976      	ldr	r6, [r6, #20]
    2f36:	429e      	cmp	r6, r3
    2f38:	d003      	beq.n	2f42 <_malloc_r+0x4e>
    2f3a:	6873      	ldr	r3, [r6, #4]
    2f3c:	f023 0303 	bic.w	r3, r3, #3
    2f40:	e02f      	b.n	2fa2 <_malloc_r+0xae>
    2f42:	3102      	adds	r1, #2
    2f44:	e036      	b.n	2fb4 <_malloc_r+0xc0>
    2f46:	0a61      	lsrs	r1, r4, #9
    2f48:	d101      	bne.n	2f4e <_malloc_r+0x5a>
    2f4a:	08e1      	lsrs	r1, r4, #3
    2f4c:	e01b      	b.n	2f86 <_malloc_r+0x92>
    2f4e:	2904      	cmp	r1, #4
    2f50:	d802      	bhi.n	2f58 <_malloc_r+0x64>
    2f52:	09a1      	lsrs	r1, r4, #6
    2f54:	3138      	adds	r1, #56	; 0x38
    2f56:	e016      	b.n	2f86 <_malloc_r+0x92>
    2f58:	2914      	cmp	r1, #20
    2f5a:	d801      	bhi.n	2f60 <_malloc_r+0x6c>
    2f5c:	315b      	adds	r1, #91	; 0x5b
    2f5e:	e012      	b.n	2f86 <_malloc_r+0x92>
    2f60:	2954      	cmp	r1, #84	; 0x54
    2f62:	d802      	bhi.n	2f6a <_malloc_r+0x76>
    2f64:	0b21      	lsrs	r1, r4, #12
    2f66:	316e      	adds	r1, #110	; 0x6e
    2f68:	e00d      	b.n	2f86 <_malloc_r+0x92>
    2f6a:	f5b1 7faa 	cmp.w	r1, #340	; 0x154
    2f6e:	d802      	bhi.n	2f76 <_malloc_r+0x82>
    2f70:	0be1      	lsrs	r1, r4, #15
    2f72:	3177      	adds	r1, #119	; 0x77
    2f74:	e007      	b.n	2f86 <_malloc_r+0x92>
    2f76:	f240 5354 	movw	r3, #1364	; 0x554
    2f7a:	4299      	cmp	r1, r3
    2f7c:	d802      	bhi.n	2f84 <_malloc_r+0x90>
    2f7e:	0ca1      	lsrs	r1, r4, #18
    2f80:	317c      	adds	r1, #124	; 0x7c
    2f82:	e000      	b.n	2f86 <_malloc_r+0x92>
    2f84:	217e      	movs	r1, #126	; 0x7e
    2f86:	eb02 02c1 	add.w	r2, r2, r1, lsl #3
    2f8a:	68d6      	ldr	r6, [r2, #12]
    2f8c:	e00f      	b.n	2fae <_malloc_r+0xba>
    2f8e:	6873      	ldr	r3, [r6, #4]
    2f90:	f023 0303 	bic.w	r3, r3, #3
    2f94:	1b18      	subs	r0, r3, r4
    2f96:	280f      	cmp	r0, #15
    2f98:	dd01      	ble.n	2f9e <_malloc_r+0xaa>
    2f9a:	3901      	subs	r1, #1
    2f9c:	e009      	b.n	2fb2 <_malloc_r+0xbe>
    2f9e:	2800      	cmp	r0, #0
    2fa0:	db04      	blt.n	2fac <_malloc_r+0xb8>
    2fa2:	68f2      	ldr	r2, [r6, #12]
    2fa4:	68b1      	ldr	r1, [r6, #8]
    2fa6:	60ca      	str	r2, [r1, #12]
    2fa8:	6091      	str	r1, [r2, #8]
    2faa:	e020      	b.n	2fee <_malloc_r+0xfa>
    2fac:	68f6      	ldr	r6, [r6, #12]
    2fae:	4296      	cmp	r6, r2
    2fb0:	d1ed      	bne.n	2f8e <_malloc_r+0x9a>
    2fb2:	3101      	adds	r1, #1
    2fb4:	4d72      	ldr	r5, [pc, #456]	; (3180 <_malloc_r+0x28c>)
    2fb6:	f105 0208 	add.w	r2, r5, #8
    2fba:	6896      	ldr	r6, [r2, #8]
    2fbc:	4296      	cmp	r6, r2
    2fbe:	d077      	beq.n	30b0 <_malloc_r+0x1bc>
    2fc0:	6873      	ldr	r3, [r6, #4]
    2fc2:	f023 0303 	bic.w	r3, r3, #3
    2fc6:	1b18      	subs	r0, r3, r4
    2fc8:	280f      	cmp	r0, #15
    2fca:	dd0c      	ble.n	2fe6 <_malloc_r+0xf2>
    2fcc:	1933      	adds	r3, r6, r4
    2fce:	f044 0401 	orr.w	r4, r4, #1
    2fd2:	60d3      	str	r3, [r2, #12]
    2fd4:	6093      	str	r3, [r2, #8]
    2fd6:	6074      	str	r4, [r6, #4]
    2fd8:	60da      	str	r2, [r3, #12]
    2fda:	609a      	str	r2, [r3, #8]
    2fdc:	f040 0201 	orr.w	r2, r0, #1
    2fe0:	5018      	str	r0, [r3, r0]
    2fe2:	605a      	str	r2, [r3, #4]
    2fe4:	e179      	b.n	32da <_malloc_r+0x3e6>
    2fe6:	2800      	cmp	r0, #0
    2fe8:	60d2      	str	r2, [r2, #12]
    2fea:	6092      	str	r2, [r2, #8]
    2fec:	db05      	blt.n	2ffa <_malloc_r+0x106>
    2fee:	18f3      	adds	r3, r6, r3
    2ff0:	685a      	ldr	r2, [r3, #4]
    2ff2:	f042 0201 	orr.w	r2, r2, #1
    2ff6:	605a      	str	r2, [r3, #4]
    2ff8:	e16f      	b.n	32da <_malloc_r+0x3e6>
    2ffa:	f5b3 7f00 	cmp.w	r3, #512	; 0x200
    2ffe:	d20e      	bcs.n	301e <_malloc_r+0x12a>
    3000:	08db      	lsrs	r3, r3, #3
    3002:	f04f 0e01 	mov.w	lr, #1
    3006:	1098      	asrs	r0, r3, #2
    3008:	eb05 03c3 	add.w	r3, r5, r3, lsl #3
    300c:	fa0e f000 	lsl.w	r0, lr, r0
    3010:	f8d5 e004 	ldr.w	lr, [r5, #4]
    3014:	ea4e 0000 	orr.w	r0, lr, r0
    3018:	6068      	str	r0, [r5, #4]
    301a:	6898      	ldr	r0, [r3, #8]
    301c:	e044      	b.n	30a8 <_malloc_r+0x1b4>
    301e:	ea4f 2e53 	mov.w	lr, r3, lsr #9
    3022:	f1be 0f04 	cmp.w	lr, #4
    3026:	d804      	bhi.n	3032 <_malloc_r+0x13e>
    3028:	ea4f 1e93 	mov.w	lr, r3, lsr #6
    302c:	f10e 0e38 	add.w	lr, lr, #56	; 0x38
    3030:	e01f      	b.n	3072 <_malloc_r+0x17e>
    3032:	f1be 0f14 	cmp.w	lr, #20
    3036:	d802      	bhi.n	303e <_malloc_r+0x14a>
    3038:	f10e 0e5b 	add.w	lr, lr, #91	; 0x5b
    303c:	e019      	b.n	3072 <_malloc_r+0x17e>
    303e:	f1be 0f54 	cmp.w	lr, #84	; 0x54
    3042:	d804      	bhi.n	304e <_malloc_r+0x15a>
    3044:	ea4f 3e13 	mov.w	lr, r3, lsr #12
    3048:	f10e 0e6e 	add.w	lr, lr, #110	; 0x6e
    304c:	e011      	b.n	3072 <_malloc_r+0x17e>
    304e:	f5be 7faa 	cmp.w	lr, #340	; 0x154
    3052:	d804      	bhi.n	305e <_malloc_r+0x16a>
    3054:	ea4f 3ed3 	mov.w	lr, r3, lsr #15
    3058:	f10e 0e77 	add.w	lr, lr, #119	; 0x77
    305c:	e009      	b.n	3072 <_malloc_r+0x17e>
    305e:	f240 5054 	movw	r0, #1364	; 0x554
    3062:	4586      	cmp	lr, r0
    3064:	bf96      	itet	ls
    3066:	ea4f 4e93 	movls.w	lr, r3, lsr #18
    306a:	f04f 0e7e 	movhi.w	lr, #126	; 0x7e
    306e:	f10e 0e7c 	addls.w	lr, lr, #124	; 0x7c
    3072:	eb05 0cce 	add.w	ip, r5, lr, lsl #3
    3076:	f8dc 0008 	ldr.w	r0, [ip, #8]
    307a:	4560      	cmp	r0, ip
    307c:	d10d      	bne.n	309a <_malloc_r+0x1a6>
    307e:	2301      	movs	r3, #1
    3080:	ea4f 0eae 	mov.w	lr, lr, asr #2
    3084:	fa03 fe0e 	lsl.w	lr, r3, lr
    3088:	686b      	ldr	r3, [r5, #4]
    308a:	ea43 030e 	orr.w	r3, r3, lr
    308e:	606b      	str	r3, [r5, #4]
    3090:	4603      	mov	r3, r0
    3092:	e009      	b.n	30a8 <_malloc_r+0x1b4>
    3094:	6880      	ldr	r0, [r0, #8]
    3096:	4560      	cmp	r0, ip
    3098:	d005      	beq.n	30a6 <_malloc_r+0x1b2>
    309a:	f8d0 e004 	ldr.w	lr, [r0, #4]
    309e:	f02e 0e03 	bic.w	lr, lr, #3
    30a2:	4573      	cmp	r3, lr
    30a4:	d3f6      	bcc.n	3094 <_malloc_r+0x1a0>
    30a6:	68c3      	ldr	r3, [r0, #12]
    30a8:	60f3      	str	r3, [r6, #12]
    30aa:	60b0      	str	r0, [r6, #8]
    30ac:	609e      	str	r6, [r3, #8]
    30ae:	60c6      	str	r6, [r0, #12]
    30b0:	2001      	movs	r0, #1
    30b2:	108b      	asrs	r3, r1, #2
    30b4:	fa10 f303 	lsls.w	r3, r0, r3
    30b8:	6868      	ldr	r0, [r5, #4]
    30ba:	4283      	cmp	r3, r0
    30bc:	d862      	bhi.n	3184 <_malloc_r+0x290>
    30be:	4203      	tst	r3, r0
    30c0:	d105      	bne.n	30ce <_malloc_r+0x1da>
    30c2:	f021 0103 	bic.w	r1, r1, #3
    30c6:	005b      	lsls	r3, r3, #1
    30c8:	3104      	adds	r1, #4
    30ca:	4203      	tst	r3, r0
    30cc:	d0fb      	beq.n	30c6 <_malloc_r+0x1d2>
    30ce:	eb05 09c1 	add.w	r9, r5, r1, lsl #3
    30d2:	468e      	mov	lr, r1
    30d4:	46cc      	mov	ip, r9
    30d6:	f8dc 600c 	ldr.w	r6, [ip, #12]
    30da:	e02a      	b.n	3132 <_malloc_r+0x23e>
    30dc:	6870      	ldr	r0, [r6, #4]
    30de:	f020 0803 	bic.w	r8, r0, #3
    30e2:	ebc4 0008 	rsb	r0, r4, r8
    30e6:	280f      	cmp	r0, #15
    30e8:	dd11      	ble.n	310e <_malloc_r+0x21a>
    30ea:	1933      	adds	r3, r6, r4
    30ec:	68f1      	ldr	r1, [r6, #12]
    30ee:	f044 0401 	orr.w	r4, r4, #1
    30f2:	6074      	str	r4, [r6, #4]
    30f4:	f856 4f08 	ldr.w	r4, [r6, #8]!
    30f8:	5018      	str	r0, [r3, r0]
    30fa:	60e1      	str	r1, [r4, #12]
    30fc:	608c      	str	r4, [r1, #8]
    30fe:	60d3      	str	r3, [r2, #12]
    3100:	6093      	str	r3, [r2, #8]
    3102:	60da      	str	r2, [r3, #12]
    3104:	609a      	str	r2, [r3, #8]
    3106:	f040 0201 	orr.w	r2, r0, #1
    310a:	605a      	str	r2, [r3, #4]
    310c:	e00c      	b.n	3128 <_malloc_r+0x234>
    310e:	2800      	cmp	r0, #0
    3110:	db0e      	blt.n	3130 <_malloc_r+0x23c>
    3112:	eb06 0308 	add.w	r3, r6, r8
    3116:	685a      	ldr	r2, [r3, #4]
    3118:	f042 0201 	orr.w	r2, r2, #1
    311c:	605a      	str	r2, [r3, #4]
    311e:	68f3      	ldr	r3, [r6, #12]
    3120:	f856 2f08 	ldr.w	r2, [r6, #8]!
    3124:	60d3      	str	r3, [r2, #12]
    3126:	609a      	str	r2, [r3, #8]
    3128:	4638      	mov	r0, r7
    312a:	f000 f919 	bl	3360 <__malloc_unlock>
    312e:	e0d8      	b.n	32e2 <_malloc_r+0x3ee>
    3130:	68f6      	ldr	r6, [r6, #12]
    3132:	4566      	cmp	r6, ip
    3134:	d1d2      	bne.n	30dc <_malloc_r+0x1e8>
    3136:	f10e 0e01 	add.w	lr, lr, #1
    313a:	f01e 0f03 	tst.w	lr, #3
    313e:	d101      	bne.n	3144 <_malloc_r+0x250>
    3140:	4648      	mov	r0, r9
    3142:	e002      	b.n	314a <_malloc_r+0x256>
    3144:	f10c 0c08 	add.w	ip, ip, #8
    3148:	e7c5      	b.n	30d6 <_malloc_r+0x1e2>
    314a:	f011 0f03 	tst.w	r1, #3
    314e:	d104      	bne.n	315a <_malloc_r+0x266>
    3150:	6869      	ldr	r1, [r5, #4]
    3152:	ea21 0103 	bic.w	r1, r1, r3
    3156:	6069      	str	r1, [r5, #4]
    3158:	e006      	b.n	3168 <_malloc_r+0x274>
    315a:	4606      	mov	r6, r0
    315c:	f856 0908 	ldr.w	r0, [r6], #-8
    3160:	42b0      	cmp	r0, r6
    3162:	d101      	bne.n	3168 <_malloc_r+0x274>
    3164:	3901      	subs	r1, #1
    3166:	e7f0      	b.n	314a <_malloc_r+0x256>
    3168:	6868      	ldr	r0, [r5, #4]
    316a:	005b      	lsls	r3, r3, #1
    316c:	4283      	cmp	r3, r0
    316e:	d809      	bhi.n	3184 <_malloc_r+0x290>
    3170:	b143      	cbz	r3, 3184 <_malloc_r+0x290>
    3172:	4671      	mov	r1, lr
    3174:	e001      	b.n	317a <_malloc_r+0x286>
    3176:	3104      	adds	r1, #4
    3178:	005b      	lsls	r3, r3, #1
    317a:	4203      	tst	r3, r0
    317c:	d1a7      	bne.n	30ce <_malloc_r+0x1da>
    317e:	e7fa      	b.n	3176 <_malloc_r+0x282>
    3180:	10000114 	.word	0x10000114
    3184:	f8d5 8008 	ldr.w	r8, [r5, #8]
    3188:	f8d8 3004 	ldr.w	r3, [r8, #4]
    318c:	f023 0903 	bic.w	r9, r3, #3
    3190:	45a1      	cmp	r9, r4
    3192:	d304      	bcc.n	319e <_malloc_r+0x2aa>
    3194:	ebc4 0309 	rsb	r3, r4, r9
    3198:	2b0f      	cmp	r3, #15
    319a:	f300 8095 	bgt.w	32c8 <_malloc_r+0x3d4>
    319e:	4b52      	ldr	r3, [pc, #328]	; (32e8 <_malloc_r+0x3f4>)
    31a0:	4638      	mov	r0, r7
    31a2:	681b      	ldr	r3, [r3, #0]
    31a4:	f103 0a10 	add.w	sl, r3, #16
    31a8:	4b50      	ldr	r3, [pc, #320]	; (32ec <_malloc_r+0x3f8>)
    31aa:	44a2      	add	sl, r4
    31ac:	681a      	ldr	r2, [r3, #0]
    31ae:	9301      	str	r3, [sp, #4]
    31b0:	f1b2 3fff 	cmp.w	r2, #4294967295	; 0xffffffff
    31b4:	bf1c      	itt	ne
    31b6:	f10a 0a7f 	addne.w	sl, sl, #127	; 0x7f
    31ba:	f02a 0a7f 	bicne.w	sl, sl, #127	; 0x7f
    31be:	4651      	mov	r1, sl
    31c0:	f000 fa64 	bl	368c <_sbrk_r>
    31c4:	9b01      	ldr	r3, [sp, #4]
    31c6:	f1b0 3fff 	cmp.w	r0, #4294967295	; 0xffffffff
    31ca:	4606      	mov	r6, r0
    31cc:	d06e      	beq.n	32ac <_malloc_r+0x3b8>
    31ce:	eb08 0209 	add.w	r2, r8, r9
    31d2:	4290      	cmp	r0, r2
    31d4:	d201      	bcs.n	31da <_malloc_r+0x2e6>
    31d6:	45a8      	cmp	r8, r5
    31d8:	d168      	bne.n	32ac <_malloc_r+0x3b8>
    31da:	4945      	ldr	r1, [pc, #276]	; (32f0 <_malloc_r+0x3fc>)
    31dc:	4296      	cmp	r6, r2
    31de:	468b      	mov	fp, r1
    31e0:	6808      	ldr	r0, [r1, #0]
    31e2:	4450      	add	r0, sl
    31e4:	6008      	str	r0, [r1, #0]
    31e6:	d108      	bne.n	31fa <_malloc_r+0x306>
    31e8:	f016 0f7f 	tst.w	r6, #127	; 0x7f
    31ec:	d105      	bne.n	31fa <_malloc_r+0x306>
    31ee:	68ab      	ldr	r3, [r5, #8]
    31f0:	44d1      	add	r9, sl
    31f2:	f049 0201 	orr.w	r2, r9, #1
    31f6:	605a      	str	r2, [r3, #4]
    31f8:	e04c      	b.n	3294 <_malloc_r+0x3a0>
    31fa:	681b      	ldr	r3, [r3, #0]
    31fc:	f1b3 3fff 	cmp.w	r3, #4294967295	; 0xffffffff
    3200:	d102      	bne.n	3208 <_malloc_r+0x314>
    3202:	4b3a      	ldr	r3, [pc, #232]	; (32ec <_malloc_r+0x3f8>)
    3204:	601e      	str	r6, [r3, #0]
    3206:	e003      	b.n	3210 <_malloc_r+0x31c>
    3208:	1830      	adds	r0, r6, r0
    320a:	1a82      	subs	r2, r0, r2
    320c:	f8cb 2000 	str.w	r2, [fp]
    3210:	f016 0307 	ands.w	r3, r6, #7
    3214:	4638      	mov	r0, r7
    3216:	bf1c      	itt	ne
    3218:	f1c3 0308 	rsbne	r3, r3, #8
    321c:	18f6      	addne	r6, r6, r3
    321e:	3380      	adds	r3, #128	; 0x80
    3220:	44b2      	add	sl, r6
    3222:	f00a 0a7f 	and.w	sl, sl, #127	; 0x7f
    3226:	ebca 0a03 	rsb	sl, sl, r3
    322a:	4651      	mov	r1, sl
    322c:	f000 fa2e 	bl	368c <_sbrk_r>
    3230:	f8db 3000 	ldr.w	r3, [fp]
    3234:	60ae      	str	r6, [r5, #8]
    3236:	f1b0 3fff 	cmp.w	r0, #4294967295	; 0xffffffff
    323a:	bf04      	itt	eq
    323c:	4630      	moveq	r0, r6
    323e:	f04f 0a00 	moveq.w	sl, #0
    3242:	1b80      	subs	r0, r0, r6
    3244:	45a8      	cmp	r8, r5
    3246:	4450      	add	r0, sl
    3248:	4453      	add	r3, sl
    324a:	f040 0001 	orr.w	r0, r0, #1
    324e:	f8cb 3000 	str.w	r3, [fp]
    3252:	6070      	str	r0, [r6, #4]
    3254:	d01e      	beq.n	3294 <_malloc_r+0x3a0>
    3256:	f1b9 0f0f 	cmp.w	r9, #15
    325a:	d802      	bhi.n	3262 <_malloc_r+0x36e>
    325c:	2301      	movs	r3, #1
    325e:	6073      	str	r3, [r6, #4]
    3260:	e024      	b.n	32ac <_malloc_r+0x3b8>
    3262:	f8d8 3004 	ldr.w	r3, [r8, #4]
    3266:	f1a9 090c 	sub.w	r9, r9, #12
    326a:	f029 0907 	bic.w	r9, r9, #7
    326e:	2205      	movs	r2, #5
    3270:	f003 0301 	and.w	r3, r3, #1
    3274:	f1b9 0f0f 	cmp.w	r9, #15
    3278:	ea49 0303 	orr.w	r3, r9, r3
    327c:	f8c8 3004 	str.w	r3, [r8, #4]
    3280:	eb08 0309 	add.w	r3, r8, r9
    3284:	605a      	str	r2, [r3, #4]
    3286:	609a      	str	r2, [r3, #8]
    3288:	d904      	bls.n	3294 <_malloc_r+0x3a0>
    328a:	4638      	mov	r0, r7
    328c:	f108 0108 	add.w	r1, r8, #8
    3290:	f004 fc76 	bl	7b80 <_free_r>
    3294:	4a17      	ldr	r2, [pc, #92]	; (32f4 <_malloc_r+0x400>)
    3296:	f8db 3000 	ldr.w	r3, [fp]
    329a:	6811      	ldr	r1, [r2, #0]
    329c:	428b      	cmp	r3, r1
    329e:	bf88      	it	hi
    32a0:	6013      	strhi	r3, [r2, #0]
    32a2:	4a15      	ldr	r2, [pc, #84]	; (32f8 <_malloc_r+0x404>)
    32a4:	6811      	ldr	r1, [r2, #0]
    32a6:	428b      	cmp	r3, r1
    32a8:	bf88      	it	hi
    32aa:	6013      	strhi	r3, [r2, #0]
    32ac:	68ab      	ldr	r3, [r5, #8]
    32ae:	685b      	ldr	r3, [r3, #4]
    32b0:	f023 0303 	bic.w	r3, r3, #3
    32b4:	42a3      	cmp	r3, r4
    32b6:	d302      	bcc.n	32be <_malloc_r+0x3ca>
    32b8:	1b1b      	subs	r3, r3, r4
    32ba:	2b0f      	cmp	r3, #15
    32bc:	dc04      	bgt.n	32c8 <_malloc_r+0x3d4>
    32be:	4638      	mov	r0, r7
    32c0:	f000 f84e 	bl	3360 <__malloc_unlock>
    32c4:	2600      	movs	r6, #0
    32c6:	e00c      	b.n	32e2 <_malloc_r+0x3ee>
    32c8:	68ae      	ldr	r6, [r5, #8]
    32ca:	f044 0201 	orr.w	r2, r4, #1
    32ce:	f043 0301 	orr.w	r3, r3, #1
    32d2:	1934      	adds	r4, r6, r4
    32d4:	60ac      	str	r4, [r5, #8]
    32d6:	6072      	str	r2, [r6, #4]
    32d8:	6063      	str	r3, [r4, #4]
    32da:	4638      	mov	r0, r7
    32dc:	3608      	adds	r6, #8
    32de:	f000 f83f 	bl	3360 <__malloc_unlock>
    32e2:	4630      	mov	r0, r6
    32e4:	e8bd 8ffe 	ldmia.w	sp!, {r1, r2, r3, r4, r5, r6, r7, r8, r9, sl, fp, pc}
    32e8:	10000648 	.word	0x10000648
    32ec:	10000520 	.word	0x10000520
    32f0:	1000064c 	.word	0x1000064c
    32f4:	10000644 	.word	0x10000644
    32f8:	10000640 	.word	0x10000640

000032fc <memchr>:
    32fc:	b510      	push	{r4, lr}
    32fe:	b2c9      	uxtb	r1, r1
    3300:	e003      	b.n	330a <memchr+0xe>
    3302:	f810 4b01 	ldrb.w	r4, [r0], #1
    3306:	428c      	cmp	r4, r1
    3308:	d004      	beq.n	3314 <memchr+0x18>
    330a:	3a01      	subs	r2, #1
    330c:	4603      	mov	r3, r0
    330e:	d2f8      	bcs.n	3302 <memchr+0x6>
    3310:	2000      	movs	r0, #0
    3312:	bd10      	pop	{r4, pc}
    3314:	4618      	mov	r0, r3
    3316:	bd10      	pop	{r4, pc}

00003318 <memcpy>:
    3318:	b510      	push	{r4, lr}
    331a:	1882      	adds	r2, r0, r2
    331c:	4603      	mov	r3, r0
    331e:	e003      	b.n	3328 <memcpy+0x10>
    3320:	f811 4b01 	ldrb.w	r4, [r1], #1
    3324:	f803 4b01 	strb.w	r4, [r3], #1
    3328:	4293      	cmp	r3, r2
    332a:	d3f9      	bcc.n	3320 <memcpy+0x8>
    332c:	bd10      	pop	{r4, pc}

0000332e <memmove>:
    332e:	4281      	cmp	r1, r0
    3330:	b510      	push	{r4, lr}
    3332:	4604      	mov	r4, r0
    3334:	d210      	bcs.n	3358 <memmove+0x2a>
    3336:	188b      	adds	r3, r1, r2
    3338:	4298      	cmp	r0, r3
    333a:	d20d      	bcs.n	3358 <memmove+0x2a>
    333c:	4619      	mov	r1, r3
    333e:	1883      	adds	r3, r0, r2
    3340:	e003      	b.n	334a <memmove+0x1c>
    3342:	f811 4d01 	ldrb.w	r4, [r1, #-1]!
    3346:	f803 4d01 	strb.w	r4, [r3, #-1]!
    334a:	3a01      	subs	r2, #1
    334c:	d2f9      	bcs.n	3342 <memmove+0x14>
    334e:	bd10      	pop	{r4, pc}
    3350:	f811 3b01 	ldrb.w	r3, [r1], #1
    3354:	f804 3b01 	strb.w	r3, [r4], #1
    3358:	3a01      	subs	r2, #1
    335a:	d2f9      	bcs.n	3350 <memmove+0x22>
    335c:	bd10      	pop	{r4, pc}

0000335e <__malloc_lock>:
    335e:	4770      	bx	lr

00003360 <__malloc_unlock>:
    3360:	4770      	bx	lr
	...

00003364 <printf>:
    3364:	b40f      	push	{r0, r1, r2, r3}
    3366:	4b0a      	ldr	r3, [pc, #40]	; (3390 <printf+0x2c>)
    3368:	b513      	push	{r0, r1, r4, lr}
    336a:	681c      	ldr	r4, [r3, #0]
    336c:	b124      	cbz	r4, 3378 <printf+0x14>
    336e:	69a3      	ldr	r3, [r4, #24]
    3370:	b913      	cbnz	r3, 3378 <printf+0x14>
    3372:	4620      	mov	r0, r4
    3374:	f004 fb3c 	bl	79f0 <__sinit>
    3378:	ab05      	add	r3, sp, #20
    337a:	4620      	mov	r0, r4
    337c:	68a1      	ldr	r1, [r4, #8]
    337e:	9a04      	ldr	r2, [sp, #16]
    3380:	9301      	str	r3, [sp, #4]
    3382:	f002 f9a9 	bl	56d8 <_vfprintf_r>
    3386:	e8bd 401c 	ldmia.w	sp!, {r2, r3, r4, lr}
    338a:	b004      	add	sp, #16
    338c:	4770      	bx	lr
    338e:	bf00      	nop
    3390:	10000110 	.word	0x10000110

00003394 <_realloc_r>:
    3394:	e92d 4ff7 	stmdb	sp!, {r0, r1, r2, r4, r5, r6, r7, r8, r9, sl, fp, lr}
    3398:	4681      	mov	r9, r0
    339a:	4617      	mov	r7, r2
    339c:	460e      	mov	r6, r1
    339e:	b929      	cbnz	r1, 33ac <_realloc_r+0x18>
    33a0:	4611      	mov	r1, r2
    33a2:	b003      	add	sp, #12
    33a4:	e8bd 4ff0 	ldmia.w	sp!, {r4, r5, r6, r7, r8, r9, sl, fp, lr}
    33a8:	f7ff bda4 	b.w	2ef4 <_malloc_r>
    33ac:	f107 050b 	add.w	r5, r7, #11
    33b0:	f7ff ffd5 	bl	335e <__malloc_lock>
    33b4:	f1a6 0a08 	sub.w	sl, r6, #8
    33b8:	2d16      	cmp	r5, #22
    33ba:	f8da 2004 	ldr.w	r2, [sl, #4]
    33be:	d903      	bls.n	33c8 <_realloc_r+0x34>
    33c0:	f035 0507 	bics.w	r5, r5, #7
    33c4:	d501      	bpl.n	33ca <_realloc_r+0x36>
    33c6:	e002      	b.n	33ce <_realloc_r+0x3a>
    33c8:	2510      	movs	r5, #16
    33ca:	42bd      	cmp	r5, r7
    33cc:	d204      	bcs.n	33d8 <_realloc_r+0x44>
    33ce:	230c      	movs	r3, #12
    33d0:	2700      	movs	r7, #0
    33d2:	f8c9 3000 	str.w	r3, [r9]
    33d6:	e155      	b.n	3684 <_realloc_r+0x2f0>
    33d8:	f022 0b03 	bic.w	fp, r2, #3
    33dc:	45ab      	cmp	fp, r5
    33de:	f280 8126 	bge.w	362e <_realloc_r+0x29a>
    33e2:	4b9f      	ldr	r3, [pc, #636]	; (3660 <_realloc_r+0x2cc>)
    33e4:	eb0a 010b 	add.w	r1, sl, fp
    33e8:	f8d3 e008 	ldr.w	lr, [r3, #8]
    33ec:	4571      	cmp	r1, lr
    33ee:	d007      	beq.n	3400 <_realloc_r+0x6c>
    33f0:	6848      	ldr	r0, [r1, #4]
    33f2:	f020 0001 	bic.w	r0, r0, #1
    33f6:	1808      	adds	r0, r1, r0
    33f8:	6840      	ldr	r0, [r0, #4]
    33fa:	f010 0f01 	tst.w	r0, #1
    33fe:	d125      	bne.n	344c <_realloc_r+0xb8>
    3400:	6848      	ldr	r0, [r1, #4]
    3402:	4571      	cmp	r1, lr
    3404:	f020 0003 	bic.w	r0, r0, #3
    3408:	eb00 080b 	add.w	r8, r0, fp
    340c:	d117      	bne.n	343e <_realloc_r+0xaa>
    340e:	f105 0410 	add.w	r4, r5, #16
    3412:	45a0      	cmp	r8, r4
    3414:	db1c      	blt.n	3450 <_realloc_r+0xbc>
    3416:	eb0a 0205 	add.w	r2, sl, r5
    341a:	ebc5 0808 	rsb	r8, r5, r8
    341e:	609a      	str	r2, [r3, #8]
    3420:	f048 0301 	orr.w	r3, r8, #1
    3424:	6053      	str	r3, [r2, #4]
    3426:	4648      	mov	r0, r9
    3428:	f8da 3004 	ldr.w	r3, [sl, #4]
    342c:	4637      	mov	r7, r6
    342e:	f003 0301 	and.w	r3, r3, #1
    3432:	431d      	orrs	r5, r3
    3434:	f8ca 5004 	str.w	r5, [sl, #4]
    3438:	f7ff ff92 	bl	3360 <__malloc_unlock>
    343c:	e122      	b.n	3684 <_realloc_r+0x2f0>
    343e:	45a8      	cmp	r8, r5
    3440:	db06      	blt.n	3450 <_realloc_r+0xbc>
    3442:	68cb      	ldr	r3, [r1, #12]
    3444:	688a      	ldr	r2, [r1, #8]
    3446:	60d3      	str	r3, [r2, #12]
    3448:	609a      	str	r2, [r3, #8]
    344a:	e0f1      	b.n	3630 <_realloc_r+0x29c>
    344c:	2000      	movs	r0, #0
    344e:	4601      	mov	r1, r0
    3450:	f012 0f01 	tst.w	r2, #1
    3454:	f040 809c 	bne.w	3590 <_realloc_r+0x1fc>
    3458:	f856 4c08 	ldr.w	r4, [r6, #-8]
    345c:	ebc4 040a 	rsb	r4, r4, sl
    3460:	6862      	ldr	r2, [r4, #4]
    3462:	f022 0203 	bic.w	r2, r2, #3
    3466:	2900      	cmp	r1, #0
    3468:	d057      	beq.n	351a <_realloc_r+0x186>
    346a:	4571      	cmp	r1, lr
    346c:	eb02 080b 	add.w	r8, r2, fp
    3470:	d14b      	bne.n	350a <_realloc_r+0x176>
    3472:	4480      	add	r8, r0
    3474:	f105 0110 	add.w	r1, r5, #16
    3478:	4588      	cmp	r8, r1
    347a:	db4e      	blt.n	351a <_realloc_r+0x186>
    347c:	4627      	mov	r7, r4
    347e:	68e2      	ldr	r2, [r4, #12]
    3480:	f857 1f08 	ldr.w	r1, [r7, #8]!
    3484:	60ca      	str	r2, [r1, #12]
    3486:	6091      	str	r1, [r2, #8]
    3488:	f1ab 0204 	sub.w	r2, fp, #4
    348c:	2a24      	cmp	r2, #36	; 0x24
    348e:	d829      	bhi.n	34e4 <_realloc_r+0x150>
    3490:	2a13      	cmp	r2, #19
    3492:	4639      	mov	r1, r7
    3494:	d91b      	bls.n	34ce <_realloc_r+0x13a>
    3496:	4630      	mov	r0, r6
    3498:	f850 1b04 	ldr.w	r1, [r0], #4
    349c:	60a1      	str	r1, [r4, #8]
    349e:	6871      	ldr	r1, [r6, #4]
    34a0:	1d06      	adds	r6, r0, #4
    34a2:	2a1b      	cmp	r2, #27
    34a4:	60e1      	str	r1, [r4, #12]
    34a6:	f104 0110 	add.w	r1, r4, #16
    34aa:	d910      	bls.n	34ce <_realloc_r+0x13a>
    34ac:	6841      	ldr	r1, [r0, #4]
    34ae:	1d30      	adds	r0, r6, #4
    34b0:	6121      	str	r1, [r4, #16]
    34b2:	6871      	ldr	r1, [r6, #4]
    34b4:	3608      	adds	r6, #8
    34b6:	2a24      	cmp	r2, #36	; 0x24
    34b8:	6161      	str	r1, [r4, #20]
    34ba:	f104 0118 	add.w	r1, r4, #24
    34be:	d106      	bne.n	34ce <_realloc_r+0x13a>
    34c0:	6842      	ldr	r2, [r0, #4]
    34c2:	f104 0120 	add.w	r1, r4, #32
    34c6:	61a2      	str	r2, [r4, #24]
    34c8:	6872      	ldr	r2, [r6, #4]
    34ca:	3608      	adds	r6, #8
    34cc:	61e2      	str	r2, [r4, #28]
    34ce:	4630      	mov	r0, r6
    34d0:	460a      	mov	r2, r1
    34d2:	f850 eb04 	ldr.w	lr, [r0], #4
    34d6:	f842 eb04 	str.w	lr, [r2], #4
    34da:	6876      	ldr	r6, [r6, #4]
    34dc:	604e      	str	r6, [r1, #4]
    34de:	6841      	ldr	r1, [r0, #4]
    34e0:	6051      	str	r1, [r2, #4]
    34e2:	e005      	b.n	34f0 <_realloc_r+0x15c>
    34e4:	4638      	mov	r0, r7
    34e6:	4631      	mov	r1, r6
    34e8:	9301      	str	r3, [sp, #4]
    34ea:	f7ff ff20 	bl	332e <memmove>
    34ee:	9b01      	ldr	r3, [sp, #4]
    34f0:	1962      	adds	r2, r4, r5
    34f2:	ebc5 0808 	rsb	r8, r5, r8
    34f6:	609a      	str	r2, [r3, #8]
    34f8:	f048 0301 	orr.w	r3, r8, #1
    34fc:	6053      	str	r3, [r2, #4]
    34fe:	6863      	ldr	r3, [r4, #4]
    3500:	f003 0301 	and.w	r3, r3, #1
    3504:	431d      	orrs	r5, r3
    3506:	6065      	str	r5, [r4, #4]
    3508:	e08d      	b.n	3626 <_realloc_r+0x292>
    350a:	4480      	add	r8, r0
    350c:	45a8      	cmp	r8, r5
    350e:	db04      	blt.n	351a <_realloc_r+0x186>
    3510:	68cb      	ldr	r3, [r1, #12]
    3512:	688a      	ldr	r2, [r1, #8]
    3514:	60d3      	str	r3, [r2, #12]
    3516:	609a      	str	r2, [r3, #8]
    3518:	e003      	b.n	3522 <_realloc_r+0x18e>
    351a:	eb02 080b 	add.w	r8, r2, fp
    351e:	45a8      	cmp	r8, r5
    3520:	db36      	blt.n	3590 <_realloc_r+0x1fc>
    3522:	4620      	mov	r0, r4
    3524:	68e3      	ldr	r3, [r4, #12]
    3526:	f850 2f08 	ldr.w	r2, [r0, #8]!
    352a:	60d3      	str	r3, [r2, #12]
    352c:	609a      	str	r2, [r3, #8]
    352e:	f1ab 0204 	sub.w	r2, fp, #4
    3532:	2a24      	cmp	r2, #36	; 0x24
    3534:	d828      	bhi.n	3588 <_realloc_r+0x1f4>
    3536:	2a13      	cmp	r2, #19
    3538:	d91b      	bls.n	3572 <_realloc_r+0x1de>
    353a:	4633      	mov	r3, r6
    353c:	f104 0010 	add.w	r0, r4, #16
    3540:	f853 1b04 	ldr.w	r1, [r3], #4
    3544:	60a1      	str	r1, [r4, #8]
    3546:	6871      	ldr	r1, [r6, #4]
    3548:	1d1e      	adds	r6, r3, #4
    354a:	2a1b      	cmp	r2, #27
    354c:	60e1      	str	r1, [r4, #12]
    354e:	d910      	bls.n	3572 <_realloc_r+0x1de>
    3550:	685b      	ldr	r3, [r3, #4]
    3552:	f104 0018 	add.w	r0, r4, #24
    3556:	6123      	str	r3, [r4, #16]
    3558:	1d33      	adds	r3, r6, #4
    355a:	6871      	ldr	r1, [r6, #4]
    355c:	3608      	adds	r6, #8
    355e:	2a24      	cmp	r2, #36	; 0x24
    3560:	6161      	str	r1, [r4, #20]
    3562:	d106      	bne.n	3572 <_realloc_r+0x1de>
    3564:	685b      	ldr	r3, [r3, #4]
    3566:	f104 0020 	add.w	r0, r4, #32
    356a:	61a3      	str	r3, [r4, #24]
    356c:	6873      	ldr	r3, [r6, #4]
    356e:	3608      	adds	r6, #8
    3570:	61e3      	str	r3, [r4, #28]
    3572:	4632      	mov	r2, r6
    3574:	4603      	mov	r3, r0
    3576:	f852 1b04 	ldr.w	r1, [r2], #4
    357a:	f843 1b04 	str.w	r1, [r3], #4
    357e:	6871      	ldr	r1, [r6, #4]
    3580:	6041      	str	r1, [r0, #4]
    3582:	6852      	ldr	r2, [r2, #4]
    3584:	605a      	str	r2, [r3, #4]
    3586:	e054      	b.n	3632 <_realloc_r+0x29e>
    3588:	4631      	mov	r1, r6
    358a:	f7ff fed0 	bl	332e <memmove>
    358e:	e050      	b.n	3632 <_realloc_r+0x29e>
    3590:	4639      	mov	r1, r7
    3592:	4648      	mov	r0, r9
    3594:	f7ff fcae 	bl	2ef4 <_malloc_r>
    3598:	4607      	mov	r7, r0
    359a:	2800      	cmp	r0, #0
    359c:	d043      	beq.n	3626 <_realloc_r+0x292>
    359e:	f8da 2004 	ldr.w	r2, [sl, #4]
    35a2:	f1a0 0308 	sub.w	r3, r0, #8
    35a6:	f022 0201 	bic.w	r2, r2, #1
    35aa:	4452      	add	r2, sl
    35ac:	4293      	cmp	r3, r2
    35ae:	d105      	bne.n	35bc <_realloc_r+0x228>
    35b0:	f850 3c04 	ldr.w	r3, [r0, #-4]
    35b4:	f023 0803 	bic.w	r8, r3, #3
    35b8:	44d8      	add	r8, fp
    35ba:	e039      	b.n	3630 <_realloc_r+0x29c>
    35bc:	f1ab 0204 	sub.w	r2, fp, #4
    35c0:	2a24      	cmp	r2, #36	; 0x24
    35c2:	d829      	bhi.n	3618 <_realloc_r+0x284>
    35c4:	2a13      	cmp	r2, #19
    35c6:	4631      	mov	r1, r6
    35c8:	4603      	mov	r3, r0
    35ca:	d91a      	bls.n	3602 <_realloc_r+0x26e>
    35cc:	4634      	mov	r4, r6
    35ce:	f854 3b04 	ldr.w	r3, [r4], #4
    35d2:	1d21      	adds	r1, r4, #4
    35d4:	f840 3b04 	str.w	r3, [r0], #4
    35d8:	6873      	ldr	r3, [r6, #4]
    35da:	607b      	str	r3, [r7, #4]
    35dc:	1d03      	adds	r3, r0, #4
    35de:	2a1b      	cmp	r2, #27
    35e0:	d90f      	bls.n	3602 <_realloc_r+0x26e>
    35e2:	6864      	ldr	r4, [r4, #4]
    35e4:	6044      	str	r4, [r0, #4]
    35e6:	1d0c      	adds	r4, r1, #4
    35e8:	6849      	ldr	r1, [r1, #4]
    35ea:	1d18      	adds	r0, r3, #4
    35ec:	6059      	str	r1, [r3, #4]
    35ee:	3308      	adds	r3, #8
    35f0:	1d21      	adds	r1, r4, #4
    35f2:	2a24      	cmp	r2, #36	; 0x24
    35f4:	d105      	bne.n	3602 <_realloc_r+0x26e>
    35f6:	6862      	ldr	r2, [r4, #4]
    35f8:	6042      	str	r2, [r0, #4]
    35fa:	684a      	ldr	r2, [r1, #4]
    35fc:	3108      	adds	r1, #8
    35fe:	605a      	str	r2, [r3, #4]
    3600:	3308      	adds	r3, #8
    3602:	4608      	mov	r0, r1
    3604:	461a      	mov	r2, r3
    3606:	f850 4b04 	ldr.w	r4, [r0], #4
    360a:	f842 4b04 	str.w	r4, [r2], #4
    360e:	6849      	ldr	r1, [r1, #4]
    3610:	6059      	str	r1, [r3, #4]
    3612:	6843      	ldr	r3, [r0, #4]
    3614:	6053      	str	r3, [r2, #4]
    3616:	e002      	b.n	361e <_realloc_r+0x28a>
    3618:	4631      	mov	r1, r6
    361a:	f7ff fe88 	bl	332e <memmove>
    361e:	4648      	mov	r0, r9
    3620:	4631      	mov	r1, r6
    3622:	f004 faad 	bl	7b80 <_free_r>
    3626:	4648      	mov	r0, r9
    3628:	f7ff fe9a 	bl	3360 <__malloc_unlock>
    362c:	e02a      	b.n	3684 <_realloc_r+0x2f0>
    362e:	46d8      	mov	r8, fp
    3630:	4654      	mov	r4, sl
    3632:	ebc5 0308 	rsb	r3, r5, r8
    3636:	6862      	ldr	r2, [r4, #4]
    3638:	2b0f      	cmp	r3, #15
    363a:	d913      	bls.n	3664 <_realloc_r+0x2d0>
    363c:	1961      	adds	r1, r4, r5
    363e:	f002 0201 	and.w	r2, r2, #1
    3642:	4315      	orrs	r5, r2
    3644:	f043 0201 	orr.w	r2, r3, #1
    3648:	18cb      	adds	r3, r1, r3
    364a:	6065      	str	r5, [r4, #4]
    364c:	604a      	str	r2, [r1, #4]
    364e:	4648      	mov	r0, r9
    3650:	685a      	ldr	r2, [r3, #4]
    3652:	3108      	adds	r1, #8
    3654:	f042 0201 	orr.w	r2, r2, #1
    3658:	605a      	str	r2, [r3, #4]
    365a:	f004 fa91 	bl	7b80 <_free_r>
    365e:	e00c      	b.n	367a <_realloc_r+0x2e6>
    3660:	10000114 	.word	0x10000114
    3664:	eb04 0308 	add.w	r3, r4, r8
    3668:	f002 0201 	and.w	r2, r2, #1
    366c:	ea48 0202 	orr.w	r2, r8, r2
    3670:	6062      	str	r2, [r4, #4]
    3672:	685a      	ldr	r2, [r3, #4]
    3674:	f042 0201 	orr.w	r2, r2, #1
    3678:	605a      	str	r2, [r3, #4]
    367a:	4648      	mov	r0, r9
    367c:	f104 0708 	add.w	r7, r4, #8
    3680:	f7ff fe6e 	bl	3360 <__malloc_unlock>
    3684:	4638      	mov	r0, r7
    3686:	b003      	add	sp, #12
    3688:	e8bd 8ff0 	ldmia.w	sp!, {r4, r5, r6, r7, r8, r9, sl, fp, pc}

0000368c <_sbrk_r>:
    368c:	b538      	push	{r3, r4, r5, lr}
    368e:	4605      	mov	r5, r0
    3690:	4c06      	ldr	r4, [pc, #24]	; (36ac <_sbrk_r+0x20>)
    3692:	4608      	mov	r0, r1
    3694:	2300      	movs	r3, #0
    3696:	6023      	str	r3, [r4, #0]
    3698:	f7fc fe72 	bl	380 <_sbrk>
    369c:	f1b0 3fff 	cmp.w	r0, #4294967295	; 0xffffffff
    36a0:	d102      	bne.n	36a8 <_sbrk_r+0x1c>
    36a2:	6823      	ldr	r3, [r4, #0]
    36a4:	b103      	cbz	r3, 36a8 <_sbrk_r+0x1c>
    36a6:	602b      	str	r3, [r5, #0]
    36a8:	bd38      	pop	{r3, r4, r5, pc}
    36aa:	bf00      	nop
    36ac:	10000680 	.word	0x10000680

000036b0 <_raise_r>:
    36b0:	291f      	cmp	r1, #31
    36b2:	b570      	push	{r4, r5, r6, lr}
    36b4:	4605      	mov	r5, r0
    36b6:	460c      	mov	r4, r1
    36b8:	d904      	bls.n	36c4 <_raise_r+0x14>
    36ba:	2316      	movs	r3, #22
    36bc:	6003      	str	r3, [r0, #0]
    36be:	f04f 30ff 	mov.w	r0, #4294967295	; 0xffffffff
    36c2:	bd70      	pop	{r4, r5, r6, pc}
    36c4:	6c42      	ldr	r2, [r0, #68]	; 0x44
    36c6:	b112      	cbz	r2, 36ce <_raise_r+0x1e>
    36c8:	f852 3021 	ldr.w	r3, [r2, r1, lsl #2]
    36cc:	b94b      	cbnz	r3, 36e2 <_raise_r+0x32>
    36ce:	4628      	mov	r0, r5
    36d0:	f000 f834 	bl	373c <_getpid_r>
    36d4:	4622      	mov	r2, r4
    36d6:	4601      	mov	r1, r0
    36d8:	4628      	mov	r0, r5
    36da:	e8bd 4070 	ldmia.w	sp!, {r4, r5, r6, lr}
    36de:	f000 b81b 	b.w	3718 <_kill_r>
    36e2:	2b01      	cmp	r3, #1
    36e4:	d00d      	beq.n	3702 <_raise_r+0x52>
    36e6:	f1b3 3fff 	cmp.w	r3, #4294967295	; 0xffffffff
    36ea:	d103      	bne.n	36f4 <_raise_r+0x44>
    36ec:	3317      	adds	r3, #23
    36ee:	6003      	str	r3, [r0, #0]
    36f0:	2001      	movs	r0, #1
    36f2:	bd70      	pop	{r4, r5, r6, pc}
    36f4:	2500      	movs	r5, #0
    36f6:	4608      	mov	r0, r1
    36f8:	f842 5021 	str.w	r5, [r2, r1, lsl #2]
    36fc:	4798      	blx	r3
    36fe:	4628      	mov	r0, r5
    3700:	bd70      	pop	{r4, r5, r6, pc}
    3702:	2000      	movs	r0, #0
    3704:	bd70      	pop	{r4, r5, r6, pc}
	...

00003708 <raise>:
    3708:	4b02      	ldr	r3, [pc, #8]	; (3714 <raise+0xc>)
    370a:	4601      	mov	r1, r0
    370c:	6818      	ldr	r0, [r3, #0]
    370e:	f7ff bfcf 	b.w	36b0 <_raise_r>
    3712:	bf00      	nop
    3714:	10000110 	.word	0x10000110

00003718 <_kill_r>:
    3718:	b538      	push	{r3, r4, r5, lr}
    371a:	4605      	mov	r5, r0
    371c:	4c06      	ldr	r4, [pc, #24]	; (3738 <_kill_r+0x20>)
    371e:	4608      	mov	r0, r1
    3720:	4611      	mov	r1, r2
    3722:	2300      	movs	r3, #0
    3724:	6023      	str	r3, [r4, #0]
    3726:	f7fc fe1d 	bl	364 <_kill>
    372a:	f1b0 3fff 	cmp.w	r0, #4294967295	; 0xffffffff
    372e:	d102      	bne.n	3736 <_kill_r+0x1e>
    3730:	6823      	ldr	r3, [r4, #0]
    3732:	b103      	cbz	r3, 3736 <_kill_r+0x1e>
    3734:	602b      	str	r3, [r5, #0]
    3736:	bd38      	pop	{r3, r4, r5, pc}
    3738:	10000680 	.word	0x10000680

0000373c <_getpid_r>:
    373c:	f7fc be1e 	b.w	37c <_getpid>

00003740 <sprintf>:
    3740:	b40e      	push	{r1, r2, r3}
    3742:	f44f 7102 	mov.w	r1, #520	; 0x208
    3746:	b500      	push	{lr}
    3748:	b09c      	sub	sp, #112	; 0x70
    374a:	ab1d      	add	r3, sp, #116	; 0x74
    374c:	f8ad 1010 	strh.w	r1, [sp, #16]
    3750:	f06f 4100 	mvn.w	r1, #2147483648	; 0x80000000
    3754:	9103      	str	r1, [sp, #12]
    3756:	9106      	str	r1, [sp, #24]
    3758:	f04f 31ff 	mov.w	r1, #4294967295	; 0xffffffff
    375c:	f8ad 1012 	strh.w	r1, [sp, #18]
    3760:	4908      	ldr	r1, [pc, #32]	; (3784 <sprintf+0x44>)
    3762:	f853 2b04 	ldr.w	r2, [r3], #4
    3766:	9001      	str	r0, [sp, #4]
    3768:	9005      	str	r0, [sp, #20]
    376a:	6808      	ldr	r0, [r1, #0]
    376c:	a901      	add	r1, sp, #4
    376e:	931b      	str	r3, [sp, #108]	; 0x6c
    3770:	f000 f944 	bl	39fc <_svfprintf_r>
    3774:	9b01      	ldr	r3, [sp, #4]
    3776:	2200      	movs	r2, #0
    3778:	701a      	strb	r2, [r3, #0]
    377a:	b01c      	add	sp, #112	; 0x70
    377c:	f85d eb04 	ldr.w	lr, [sp], #4
    3780:	b003      	add	sp, #12
    3782:	4770      	bx	lr
    3784:	10000110 	.word	0x10000110

00003788 <sscanf>:
    3788:	b40e      	push	{r1, r2, r3}
    378a:	f44f 7201 	mov.w	r2, #516	; 0x204
    378e:	b530      	push	{r4, r5, lr}
    3790:	b09c      	sub	sp, #112	; 0x70
    3792:	ac1f      	add	r4, sp, #124	; 0x7c
    3794:	f8ad 2010 	strh.w	r2, [sp, #16]
    3798:	f854 5b04 	ldr.w	r5, [r4], #4
    379c:	9001      	str	r0, [sp, #4]
    379e:	9005      	str	r0, [sp, #20]
    37a0:	f000 f86e 	bl	3880 <strlen>
    37a4:	4b0b      	ldr	r3, [pc, #44]	; (37d4 <sscanf+0x4c>)
    37a6:	a901      	add	r1, sp, #4
    37a8:	462a      	mov	r2, r5
    37aa:	941b      	str	r4, [sp, #108]	; 0x6c
    37ac:	930a      	str	r3, [sp, #40]	; 0x28
    37ae:	2300      	movs	r3, #0
    37b0:	930e      	str	r3, [sp, #56]	; 0x38
    37b2:	9313      	str	r3, [sp, #76]	; 0x4c
    37b4:	f04f 33ff 	mov.w	r3, #4294967295	; 0xffffffff
    37b8:	f8ad 3012 	strh.w	r3, [sp, #18]
    37bc:	4b06      	ldr	r3, [pc, #24]	; (37d8 <sscanf+0x50>)
    37be:	9002      	str	r0, [sp, #8]
    37c0:	9006      	str	r0, [sp, #24]
    37c2:	6818      	ldr	r0, [r3, #0]
    37c4:	4623      	mov	r3, r4
    37c6:	f001 f999 	bl	4afc <__ssvfscanf_r>
    37ca:	b01c      	add	sp, #112	; 0x70
    37cc:	e8bd 4030 	ldmia.w	sp!, {r4, r5, lr}
    37d0:	b003      	add	sp, #12
    37d2:	4770      	bx	lr
    37d4:	000037ff 	.word	0x000037ff
    37d8:	10000110 	.word	0x10000110

000037dc <__sread>:
    37dc:	b510      	push	{r4, lr}
    37de:	460c      	mov	r4, r1
    37e0:	f9b1 100e 	ldrsh.w	r1, [r1, #14]
    37e4:	f004 ff92 	bl	870c <_read_r>
    37e8:	2800      	cmp	r0, #0
    37ea:	db03      	blt.n	37f4 <__sread+0x18>
    37ec:	6d63      	ldr	r3, [r4, #84]	; 0x54
    37ee:	181b      	adds	r3, r3, r0
    37f0:	6563      	str	r3, [r4, #84]	; 0x54
    37f2:	bd10      	pop	{r4, pc}
    37f4:	89a3      	ldrh	r3, [r4, #12]
    37f6:	f423 5380 	bic.w	r3, r3, #4096	; 0x1000
    37fa:	81a3      	strh	r3, [r4, #12]
    37fc:	bd10      	pop	{r4, pc}

000037fe <__seofread>:
    37fe:	2000      	movs	r0, #0
    3800:	4770      	bx	lr

00003802 <__swrite>:
    3802:	e92d 41f0 	stmdb	sp!, {r4, r5, r6, r7, r8, lr}
    3806:	461d      	mov	r5, r3
    3808:	898b      	ldrh	r3, [r1, #12]
    380a:	4607      	mov	r7, r0
    380c:	460c      	mov	r4, r1
    380e:	4616      	mov	r6, r2
    3810:	f413 7f80 	tst.w	r3, #256	; 0x100
    3814:	d005      	beq.n	3822 <__swrite+0x20>
    3816:	f9b1 100e 	ldrsh.w	r1, [r1, #14]
    381a:	2200      	movs	r2, #0
    381c:	2302      	movs	r3, #2
    381e:	f004 faad 	bl	7d7c <_lseek_r>
    3822:	89a3      	ldrh	r3, [r4, #12]
    3824:	4638      	mov	r0, r7
    3826:	f9b4 100e 	ldrsh.w	r1, [r4, #14]
    382a:	4632      	mov	r2, r6
    382c:	f423 5380 	bic.w	r3, r3, #4096	; 0x1000
    3830:	81a3      	strh	r3, [r4, #12]
    3832:	462b      	mov	r3, r5
    3834:	e8bd 41f0 	ldmia.w	sp!, {r4, r5, r6, r7, r8, lr}
    3838:	f003 b834 	b.w	68a4 <_write_r>

0000383c <__sseek>:
    383c:	b510      	push	{r4, lr}
    383e:	460c      	mov	r4, r1
    3840:	f9b1 100e 	ldrsh.w	r1, [r1, #14]
    3844:	f004 fa9a 	bl	7d7c <_lseek_r>
    3848:	89a3      	ldrh	r3, [r4, #12]
    384a:	f1b0 3fff 	cmp.w	r0, #4294967295	; 0xffffffff
    384e:	d103      	bne.n	3858 <__sseek+0x1c>
    3850:	f423 5380 	bic.w	r3, r3, #4096	; 0x1000
    3854:	81a3      	strh	r3, [r4, #12]
    3856:	bd10      	pop	{r4, pc}
    3858:	f443 5380 	orr.w	r3, r3, #4096	; 0x1000
    385c:	6560      	str	r0, [r4, #84]	; 0x54
    385e:	81a3      	strh	r3, [r4, #12]
    3860:	bd10      	pop	{r4, pc}

00003862 <__sclose>:
    3862:	f9b1 100e 	ldrsh.w	r1, [r1, #14]
    3866:	f003 b921 	b.w	6aac <_close_r>

0000386a <strcmp>:
    386a:	f810 2b01 	ldrb.w	r2, [r0], #1
    386e:	f811 3b01 	ldrb.w	r3, [r1], #1
    3872:	2a01      	cmp	r2, #1
    3874:	bf28      	it	cs
    3876:	429a      	cmpcs	r2, r3
    3878:	d0f7      	beq.n	386a <strcmp>
    387a:	eba2 0003 	sub.w	r0, r2, r3
    387e:	4770      	bx	lr

00003880 <strlen>:
    3880:	4603      	mov	r3, r0
    3882:	43c0      	mvns	r0, r0
    3884:	f813 2b01 	ldrb.w	r2, [r3], #1
    3888:	2a00      	cmp	r2, #0
    388a:	d1fb      	bne.n	3884 <strlen+0x4>
    388c:	1818      	adds	r0, r3, r0
    388e:	4770      	bx	lr

00003890 <strncmp>:
    3890:	b570      	push	{r4, r5, r6, lr}
    3892:	b91a      	cbnz	r2, 389c <strncmp+0xc>
    3894:	e00f      	b.n	38b6 <strncmp+0x26>
    3896:	3a01      	subs	r2, #1
    3898:	d009      	beq.n	38ae <strncmp+0x1e>
    389a:	b143      	cbz	r3, 38ae <strncmp+0x1e>
    389c:	460c      	mov	r4, r1
    389e:	4605      	mov	r5, r0
    38a0:	b12a      	cbz	r2, 38ae <strncmp+0x1e>
    38a2:	f810 3b01 	ldrb.w	r3, [r0], #1
    38a6:	f811 6b01 	ldrb.w	r6, [r1], #1
    38aa:	42b3      	cmp	r3, r6
    38ac:	d0f3      	beq.n	3896 <strncmp+0x6>
    38ae:	7828      	ldrb	r0, [r5, #0]
    38b0:	7823      	ldrb	r3, [r4, #0]
    38b2:	1ac0      	subs	r0, r0, r3
    38b4:	bd70      	pop	{r4, r5, r6, pc}
    38b6:	4610      	mov	r0, r2
    38b8:	bd70      	pop	{r4, r5, r6, pc}
	...

000038bc <_strtol_r>:
    38bc:	e92d 4ff7 	stmdb	sp!, {r0, r1, r2, r4, r5, r6, r7, r8, r9, sl, fp, lr}
    38c0:	4698      	mov	r8, r3
    38c2:	4b46      	ldr	r3, [pc, #280]	; (39dc <_strtol_r+0x120>)
    38c4:	460c      	mov	r4, r1
    38c6:	4615      	mov	r5, r2
    38c8:	9001      	str	r0, [sp, #4]
    38ca:	f8d3 b000 	ldr.w	fp, [r3]
    38ce:	460b      	mov	r3, r1
    38d0:	f813 6b01 	ldrb.w	r6, [r3], #1
    38d4:	eb0b 0206 	add.w	r2, fp, r6
    38d8:	461f      	mov	r7, r3
    38da:	f892 9001 	ldrb.w	r9, [r2, #1]
    38de:	f019 0908 	ands.w	r9, r9, #8
    38e2:	d1f5      	bne.n	38d0 <_strtol_r+0x14>
    38e4:	2e2d      	cmp	r6, #45	; 0x2d
    38e6:	d104      	bne.n	38f2 <_strtol_r+0x36>
    38e8:	f817 6b01 	ldrb.w	r6, [r7], #1
    38ec:	f04f 0901 	mov.w	r9, #1
    38f0:	e003      	b.n	38fa <_strtol_r+0x3e>
    38f2:	2e2b      	cmp	r6, #43	; 0x2b
    38f4:	bf08      	it	eq
    38f6:	f817 6b01 	ldrbeq.w	r6, [r7], #1
    38fa:	f1b8 0f00 	cmp.w	r8, #0
    38fe:	d002      	beq.n	3906 <_strtol_r+0x4a>
    3900:	f1b8 0f10 	cmp.w	r8, #16
    3904:	d114      	bne.n	3930 <_strtol_r+0x74>
    3906:	2e30      	cmp	r6, #48	; 0x30
    3908:	d109      	bne.n	391e <_strtol_r+0x62>
    390a:	783b      	ldrb	r3, [r7, #0]
    390c:	2b78      	cmp	r3, #120	; 0x78
    390e:	d001      	beq.n	3914 <_strtol_r+0x58>
    3910:	2b58      	cmp	r3, #88	; 0x58
    3912:	d104      	bne.n	391e <_strtol_r+0x62>
    3914:	787e      	ldrb	r6, [r7, #1]
    3916:	f04f 0810 	mov.w	r8, #16
    391a:	3702      	adds	r7, #2
    391c:	e008      	b.n	3930 <_strtol_r+0x74>
    391e:	f1b8 0f00 	cmp.w	r8, #0
    3922:	d105      	bne.n	3930 <_strtol_r+0x74>
    3924:	2e30      	cmp	r6, #48	; 0x30
    3926:	bf14      	ite	ne
    3928:	f04f 080a 	movne.w	r8, #10
    392c:	f04f 0808 	moveq.w	r8, #8
    3930:	f1b9 0f00 	cmp.w	r9, #0
    3934:	4641      	mov	r1, r8
    3936:	bf0c      	ite	eq
    3938:	f06f 4a00 	mvneq.w	sl, #2147483648	; 0x80000000
    393c:	f04f 4a00 	movne.w	sl, #2147483648	; 0x80000000
    3940:	4650      	mov	r0, sl
    3942:	f7ff f8b3 	bl	2aac <__aeabi_uidivmod>
    3946:	4650      	mov	r0, sl
    3948:	460b      	mov	r3, r1
    394a:	4641      	mov	r1, r8
    394c:	9300      	str	r3, [sp, #0]
    394e:	f7fe ff7f 	bl	2850 <__aeabi_uidiv>
    3952:	2100      	movs	r1, #0
    3954:	9b00      	ldr	r3, [sp, #0]
    3956:	460a      	mov	r2, r1
    3958:	eb0b 0c06 	add.w	ip, fp, r6
    395c:	f89c c001 	ldrb.w	ip, [ip, #1]
    3960:	f01c 0f04 	tst.w	ip, #4
    3964:	d001      	beq.n	396a <_strtol_r+0xae>
    3966:	3e30      	subs	r6, #48	; 0x30
    3968:	e00b      	b.n	3982 <_strtol_r+0xc6>
    396a:	f01c 0c03 	ands.w	ip, ip, #3
    396e:	d01b      	beq.n	39a8 <_strtol_r+0xec>
    3970:	f1bc 0f01 	cmp.w	ip, #1
    3974:	bf14      	ite	ne
    3976:	f04f 0c57 	movne.w	ip, #87	; 0x57
    397a:	f04f 0c37 	moveq.w	ip, #55	; 0x37
    397e:	ebcc 0606 	rsb	r6, ip, r6
    3982:	4546      	cmp	r6, r8
    3984:	da10      	bge.n	39a8 <_strtol_r+0xec>
    3986:	f1b1 3fff 	cmp.w	r1, #4294967295	; 0xffffffff
    398a:	d00a      	beq.n	39a2 <_strtol_r+0xe6>
    398c:	4282      	cmp	r2, r0
    398e:	d806      	bhi.n	399e <_strtol_r+0xe2>
    3990:	d101      	bne.n	3996 <_strtol_r+0xda>
    3992:	429e      	cmp	r6, r3
    3994:	dc03      	bgt.n	399e <_strtol_r+0xe2>
    3996:	fb08 6202 	mla	r2, r8, r2, r6
    399a:	2101      	movs	r1, #1
    399c:	e001      	b.n	39a2 <_strtol_r+0xe6>
    399e:	f04f 31ff 	mov.w	r1, #4294967295	; 0xffffffff
    39a2:	f817 6b01 	ldrb.w	r6, [r7], #1
    39a6:	e7d7      	b.n	3958 <_strtol_r+0x9c>
    39a8:	f1b1 3fff 	cmp.w	r1, #4294967295	; 0xffffffff
    39ac:	d10a      	bne.n	39c4 <_strtol_r+0x108>
    39ae:	9801      	ldr	r0, [sp, #4]
    39b0:	f1b9 0f00 	cmp.w	r9, #0
    39b4:	bf0c      	ite	eq
    39b6:	f06f 4200 	mvneq.w	r2, #2147483648	; 0x80000000
    39ba:	f04f 4200 	movne.w	r2, #2147483648	; 0x80000000
    39be:	2322      	movs	r3, #34	; 0x22
    39c0:	6003      	str	r3, [r0, #0]
    39c2:	e003      	b.n	39cc <_strtol_r+0x110>
    39c4:	f1b9 0f00 	cmp.w	r9, #0
    39c8:	d000      	beq.n	39cc <_strtol_r+0x110>
    39ca:	4252      	negs	r2, r2
    39cc:	b115      	cbz	r5, 39d4 <_strtol_r+0x118>
    39ce:	b101      	cbz	r1, 39d2 <_strtol_r+0x116>
    39d0:	1e7c      	subs	r4, r7, #1
    39d2:	602c      	str	r4, [r5, #0]
    39d4:	4610      	mov	r0, r2
    39d6:	e8bd 8ffe 	ldmia.w	sp!, {r1, r2, r3, r4, r5, r6, r7, r8, r9, sl, fp, pc}
    39da:	bf00      	nop
    39dc:	10000524 	.word	0x10000524

000039e0 <strtol>:
    39e0:	4613      	mov	r3, r2
    39e2:	4a05      	ldr	r2, [pc, #20]	; (39f8 <strtol+0x18>)
    39e4:	b530      	push	{r4, r5, lr}
    39e6:	4605      	mov	r5, r0
    39e8:	460c      	mov	r4, r1
    39ea:	6810      	ldr	r0, [r2, #0]
    39ec:	4629      	mov	r1, r5
    39ee:	4622      	mov	r2, r4
    39f0:	e8bd 4030 	ldmia.w	sp!, {r4, r5, lr}
    39f4:	f7ff bf62 	b.w	38bc <_strtol_r>
    39f8:	10000110 	.word	0x10000110

000039fc <_svfprintf_r>:
    39fc:	e92d 4ff0 	stmdb	sp!, {r4, r5, r6, r7, r8, r9, sl, fp, lr}
    3a00:	b0bf      	sub	sp, #252	; 0xfc
    3a02:	460f      	mov	r7, r1
    3a04:	461e      	mov	r6, r3
    3a06:	4615      	mov	r5, r2
    3a08:	4680      	mov	r8, r0
    3a0a:	f004 f9b3 	bl	7d74 <_localeconv_r>
    3a0e:	6800      	ldr	r0, [r0, #0]
    3a10:	9013      	str	r0, [sp, #76]	; 0x4c
    3a12:	f7ff ff35 	bl	3880 <strlen>
    3a16:	89bb      	ldrh	r3, [r7, #12]
    3a18:	f013 0f80 	tst.w	r3, #128	; 0x80
    3a1c:	9012      	str	r0, [sp, #72]	; 0x48
    3a1e:	d011      	beq.n	3a44 <_svfprintf_r+0x48>
    3a20:	693b      	ldr	r3, [r7, #16]
    3a22:	b97b      	cbnz	r3, 3a44 <_svfprintf_r+0x48>
    3a24:	4640      	mov	r0, r8
    3a26:	2140      	movs	r1, #64	; 0x40
    3a28:	f7ff fa64 	bl	2ef4 <_malloc_r>
    3a2c:	6038      	str	r0, [r7, #0]
    3a2e:	6138      	str	r0, [r7, #16]
    3a30:	b930      	cbnz	r0, 3a40 <_svfprintf_r+0x44>
    3a32:	230c      	movs	r3, #12
    3a34:	3801      	subs	r0, #1
    3a36:	f8c8 3000 	str.w	r3, [r8]
    3a3a:	900f      	str	r0, [sp, #60]	; 0x3c
    3a3c:	f001 b856 	b.w	4aec <_svfprintf_r+0x10f0>
    3a40:	2340      	movs	r3, #64	; 0x40
    3a42:	617b      	str	r3, [r7, #20]
    3a44:	2300      	movs	r3, #0
    3a46:	ac19      	add	r4, sp, #100	; 0x64
    3a48:	9335      	str	r3, [sp, #212]	; 0xd4
    3a4a:	9433      	str	r4, [sp, #204]	; 0xcc
    3a4c:	9334      	str	r3, [sp, #208]	; 0xd0
    3a4e:	950c      	str	r5, [sp, #48]	; 0x30
    3a50:	930b      	str	r3, [sp, #44]	; 0x2c
    3a52:	9310      	str	r3, [sp, #64]	; 0x40
    3a54:	9311      	str	r3, [sp, #68]	; 0x44
    3a56:	9316      	str	r3, [sp, #88]	; 0x58
    3a58:	9315      	str	r3, [sp, #84]	; 0x54
    3a5a:	930f      	str	r3, [sp, #60]	; 0x3c
    3a5c:	9b0c      	ldr	r3, [sp, #48]	; 0x30
    3a5e:	461d      	mov	r5, r3
    3a60:	f813 2b01 	ldrb.w	r2, [r3], #1
    3a64:	b10a      	cbz	r2, 3a6a <_svfprintf_r+0x6e>
    3a66:	2a25      	cmp	r2, #37	; 0x25
    3a68:	d1f9      	bne.n	3a5e <_svfprintf_r+0x62>
    3a6a:	990c      	ldr	r1, [sp, #48]	; 0x30
    3a6c:	ebb5 0901 	subs.w	r9, r5, r1
    3a70:	d018      	beq.n	3aa4 <_svfprintf_r+0xa8>
    3a72:	9b35      	ldr	r3, [sp, #212]	; 0xd4
    3a74:	6021      	str	r1, [r4, #0]
    3a76:	f8c4 9004 	str.w	r9, [r4, #4]
    3a7a:	444b      	add	r3, r9
    3a7c:	9335      	str	r3, [sp, #212]	; 0xd4
    3a7e:	9b34      	ldr	r3, [sp, #208]	; 0xd0
    3a80:	3301      	adds	r3, #1
    3a82:	9334      	str	r3, [sp, #208]	; 0xd0
    3a84:	2b07      	cmp	r3, #7
    3a86:	dc01      	bgt.n	3a8c <_svfprintf_r+0x90>
    3a88:	3408      	adds	r4, #8
    3a8a:	e008      	b.n	3a9e <_svfprintf_r+0xa2>
    3a8c:	4640      	mov	r0, r8
    3a8e:	4639      	mov	r1, r7
    3a90:	aa33      	add	r2, sp, #204	; 0xcc
    3a92:	f005 fe97 	bl	97c4 <__ssprint_r>
    3a96:	2800      	cmp	r0, #0
    3a98:	f041 801f 	bne.w	4ada <_svfprintf_r+0x10de>
    3a9c:	ac19      	add	r4, sp, #100	; 0x64
    3a9e:	9a0f      	ldr	r2, [sp, #60]	; 0x3c
    3aa0:	444a      	add	r2, r9
    3aa2:	920f      	str	r2, [sp, #60]	; 0x3c
    3aa4:	782b      	ldrb	r3, [r5, #0]
    3aa6:	2b00      	cmp	r3, #0
    3aa8:	f001 8010 	beq.w	4acc <_svfprintf_r+0x10d0>
    3aac:	2300      	movs	r3, #0
    3aae:	3501      	adds	r5, #1
    3ab0:	950c      	str	r5, [sp, #48]	; 0x30
    3ab2:	461d      	mov	r5, r3
    3ab4:	f88d 30f7 	strb.w	r3, [sp, #247]	; 0xf7
    3ab8:	f04f 3cff 	mov.w	ip, #4294967295	; 0xffffffff
    3abc:	930d      	str	r3, [sp, #52]	; 0x34
    3abe:	462a      	mov	r2, r5
    3ac0:	9b0c      	ldr	r3, [sp, #48]	; 0x30
    3ac2:	e005      	b.n	3ad0 <_svfprintf_r+0xd4>
    3ac4:	460e      	mov	r6, r1
    3ac6:	e003      	b.n	3ad0 <_svfprintf_r+0xd4>
    3ac8:	461e      	mov	r6, r3
    3aca:	f04f 3cff 	mov.w	ip, #4294967295	; 0xffffffff
    3ace:	460b      	mov	r3, r1
    3ad0:	f813 9b01 	ldrb.w	r9, [r3], #1
    3ad4:	f1a9 0120 	sub.w	r1, r9, #32
    3ad8:	2958      	cmp	r1, #88	; 0x58
    3ada:	f200 8412 	bhi.w	4302 <_svfprintf_r+0x906>
    3ade:	e8df f011 	tbh	[pc, r1, lsl #1]
    3ae2:	0059      	.short	0x0059
    3ae4:	04100410 	.word	0x04100410
    3ae8:	0410005f 	.word	0x0410005f
    3aec:	04100410 	.word	0x04100410
    3af0:	04100410 	.word	0x04100410
    3af4:	00620410 	.word	0x00620410
    3af8:	0410006b 	.word	0x0410006b
    3afc:	006f0068 	.word	0x006f0068
    3b00:	00920410 	.word	0x00920410
    3b04:	00950095 	.word	0x00950095
    3b08:	00950095 	.word	0x00950095
    3b0c:	00950095 	.word	0x00950095
    3b10:	00950095 	.word	0x00950095
    3b14:	04100095 	.word	0x04100095
    3b18:	04100410 	.word	0x04100410
    3b1c:	04100410 	.word	0x04100410
    3b20:	04100410 	.word	0x04100410
    3b24:	04100410 	.word	0x04100410
    3b28:	00c00410 	.word	0x00c00410
    3b2c:	041000fd 	.word	0x041000fd
    3b30:	041000fd 	.word	0x041000fd
    3b34:	04100410 	.word	0x04100410
    3b38:	00a40410 	.word	0x00a40410
    3b3c:	04100410 	.word	0x04100410
    3b40:	041002a8 	.word	0x041002a8
    3b44:	04100410 	.word	0x04100410
    3b48:	04100410 	.word	0x04100410
    3b4c:	04100313 	.word	0x04100313
    3b50:	03450410 	.word	0x03450410
    3b54:	04100410 	.word	0x04100410
    3b58:	04100410 	.word	0x04100410
    3b5c:	04100410 	.word	0x04100410
    3b60:	04100410 	.word	0x04100410
    3b64:	04100410 	.word	0x04100410
    3b68:	00c500b5 	.word	0x00c500b5
    3b6c:	00fd00fd 	.word	0x00fd00fd
    3b70:	00a700fd 	.word	0x00a700fd
    3b74:	041000c5 	.word	0x041000c5
    3b78:	00aa0410 	.word	0x00aa0410
    3b7c:	028a0410 	.word	0x028a0410
    3b80:	02d902ad 	.word	0x02d902ad
    3b84:	041000b2 	.word	0x041000b2
    3b88:	041002ed 	.word	0x041002ed
    3b8c:	04100318 	.word	0x04100318
    3b90:	03400410 	.word	0x03400410
    3b94:	f89d 10f7 	ldrb.w	r1, [sp, #247]	; 0xf7
    3b98:	2900      	cmp	r1, #0
    3b9a:	d199      	bne.n	3ad0 <_svfprintf_r+0xd4>
    3b9c:	3120      	adds	r1, #32
    3b9e:	e00c      	b.n	3bba <_svfprintf_r+0x1be>
    3ba0:	f045 0501 	orr.w	r5, r5, #1
    3ba4:	e794      	b.n	3ad0 <_svfprintf_r+0xd4>
    3ba6:	6832      	ldr	r2, [r6, #0]
    3ba8:	1d31      	adds	r1, r6, #4
    3baa:	2a00      	cmp	r2, #0
    3bac:	da8a      	bge.n	3ac4 <_svfprintf_r+0xc8>
    3bae:	4252      	negs	r2, r2
    3bb0:	460e      	mov	r6, r1
    3bb2:	f045 0504 	orr.w	r5, r5, #4
    3bb6:	e78b      	b.n	3ad0 <_svfprintf_r+0xd4>
    3bb8:	212b      	movs	r1, #43	; 0x2b
    3bba:	f88d 10f7 	strb.w	r1, [sp, #247]	; 0xf7
    3bbe:	e787      	b.n	3ad0 <_svfprintf_r+0xd4>
    3bc0:	4619      	mov	r1, r3
    3bc2:	f811 9b01 	ldrb.w	r9, [r1], #1
    3bc6:	f1b9 0f2a 	cmp.w	r9, #42	; 0x2a
    3bca:	d003      	beq.n	3bd4 <_svfprintf_r+0x1d8>
    3bcc:	4619      	mov	r1, r3
    3bce:	f04f 0c00 	mov.w	ip, #0
    3bd2:	e010      	b.n	3bf6 <_svfprintf_r+0x1fa>
    3bd4:	f8d6 c000 	ldr.w	ip, [r6]
    3bd8:	1d33      	adds	r3, r6, #4
    3bda:	f1bc 0f00 	cmp.w	ip, #0
    3bde:	f6ff af73 	blt.w	3ac8 <_svfprintf_r+0xcc>
    3be2:	461e      	mov	r6, r3
    3be4:	460b      	mov	r3, r1
    3be6:	e773      	b.n	3ad0 <_svfprintf_r+0xd4>
    3be8:	f04f 090a 	mov.w	r9, #10
    3bec:	fb09 0c0c 	mla	ip, r9, ip, r0
    3bf0:	f891 9001 	ldrb.w	r9, [r1, #1]
    3bf4:	4619      	mov	r1, r3
    3bf6:	f1a9 0030 	sub.w	r0, r9, #48	; 0x30
    3bfa:	3301      	adds	r3, #1
    3bfc:	2809      	cmp	r0, #9
    3bfe:	d9f3      	bls.n	3be8 <_svfprintf_r+0x1ec>
    3c00:	ea4c 7cec 	orr.w	ip, ip, ip, asr #31
    3c04:	e766      	b.n	3ad4 <_svfprintf_r+0xd8>
    3c06:	f045 0580 	orr.w	r5, r5, #128	; 0x80
    3c0a:	e761      	b.n	3ad0 <_svfprintf_r+0xd4>
    3c0c:	4619      	mov	r1, r3
    3c0e:	2200      	movs	r2, #0
    3c10:	230a      	movs	r3, #10
    3c12:	f1a9 0930 	sub.w	r9, r9, #48	; 0x30
    3c16:	fb03 9202 	mla	r2, r3, r2, r9
    3c1a:	f811 9b01 	ldrb.w	r9, [r1], #1
    3c1e:	f1a9 0030 	sub.w	r0, r9, #48	; 0x30
    3c22:	460b      	mov	r3, r1
    3c24:	2809      	cmp	r0, #9
    3c26:	d9f3      	bls.n	3c10 <_svfprintf_r+0x214>
    3c28:	e754      	b.n	3ad4 <_svfprintf_r+0xd8>
    3c2a:	f045 0508 	orr.w	r5, r5, #8
    3c2e:	e74f      	b.n	3ad0 <_svfprintf_r+0xd4>
    3c30:	f045 0540 	orr.w	r5, r5, #64	; 0x40
    3c34:	e74c      	b.n	3ad0 <_svfprintf_r+0xd4>
    3c36:	7819      	ldrb	r1, [r3, #0]
    3c38:	296c      	cmp	r1, #108	; 0x6c
    3c3a:	d101      	bne.n	3c40 <_svfprintf_r+0x244>
    3c3c:	3301      	adds	r3, #1
    3c3e:	e002      	b.n	3c46 <_svfprintf_r+0x24a>
    3c40:	f045 0510 	orr.w	r5, r5, #16
    3c44:	e744      	b.n	3ad0 <_svfprintf_r+0xd4>
    3c46:	f045 0520 	orr.w	r5, r5, #32
    3c4a:	e741      	b.n	3ad0 <_svfprintf_r+0xd4>
    3c4c:	930c      	str	r3, [sp, #48]	; 0x30
    3c4e:	f04f 0c00 	mov.w	ip, #0
    3c52:	6833      	ldr	r3, [r6, #0]
    3c54:	3604      	adds	r6, #4
    3c56:	920d      	str	r2, [sp, #52]	; 0x34
    3c58:	f88d c0f7 	strb.w	ip, [sp, #247]	; 0xf7
    3c5c:	f88d 30a4 	strb.w	r3, [sp, #164]	; 0xa4
    3c60:	e35b      	b.n	431a <_svfprintf_r+0x91e>
    3c62:	930c      	str	r3, [sp, #48]	; 0x30
    3c64:	f045 0510 	orr.w	r5, r5, #16
    3c68:	920d      	str	r2, [sp, #52]	; 0x34
    3c6a:	e001      	b.n	3c70 <_svfprintf_r+0x274>
    3c6c:	930c      	str	r3, [sp, #48]	; 0x30
    3c6e:	920d      	str	r2, [sp, #52]	; 0x34
    3c70:	f015 0f20 	tst.w	r5, #32
    3c74:	d009      	beq.n	3c8a <_svfprintf_r+0x28e>
    3c76:	3607      	adds	r6, #7
    3c78:	f026 0307 	bic.w	r3, r6, #7
    3c7c:	f103 0608 	add.w	r6, r3, #8
    3c80:	e9d3 0100 	ldrd	r0, r1, [r3]
    3c84:	e9cd 0108 	strd	r0, r1, [sp, #32]
    3c88:	e016      	b.n	3cb8 <_svfprintf_r+0x2bc>
    3c8a:	f015 0f10 	tst.w	r5, #16
    3c8e:	f106 0304 	add.w	r3, r6, #4
    3c92:	d001      	beq.n	3c98 <_svfprintf_r+0x29c>
    3c94:	6832      	ldr	r2, [r6, #0]
    3c96:	e009      	b.n	3cac <_svfprintf_r+0x2b0>
    3c98:	f015 0f40 	tst.w	r5, #64	; 0x40
    3c9c:	6832      	ldr	r2, [r6, #0]
    3c9e:	d005      	beq.n	3cac <_svfprintf_r+0x2b0>
    3ca0:	b212      	sxth	r2, r2
    3ca2:	4610      	mov	r0, r2
    3ca4:	17d1      	asrs	r1, r2, #31
    3ca6:	e9cd 0108 	strd	r0, r1, [sp, #32]
    3caa:	e004      	b.n	3cb6 <_svfprintf_r+0x2ba>
    3cac:	4692      	mov	sl, r2
    3cae:	ea4f 7be2 	mov.w	fp, r2, asr #31
    3cb2:	e9cd ab08 	strd	sl, fp, [sp, #32]
    3cb6:	461e      	mov	r6, r3
    3cb8:	e9dd 0108 	ldrd	r0, r1, [sp, #32]
    3cbc:	2800      	cmp	r0, #0
    3cbe:	f171 0100 	sbcs.w	r1, r1, #0
    3cc2:	f280 828e 	bge.w	41e2 <_svfprintf_r+0x7e6>
    3cc6:	e9dd 2308 	ldrd	r2, r3, [sp, #32]
    3cca:	4252      	negs	r2, r2
    3ccc:	eb63 0343 	sbc.w	r3, r3, r3, lsl #1
    3cd0:	e9cd 2308 	strd	r2, r3, [sp, #32]
    3cd4:	232d      	movs	r3, #45	; 0x2d
    3cd6:	f88d 30f7 	strb.w	r3, [sp, #247]	; 0xf7
    3cda:	e282      	b.n	41e2 <_svfprintf_r+0x7e6>
    3cdc:	930c      	str	r3, [sp, #48]	; 0x30
    3cde:	1df3      	adds	r3, r6, #7
    3ce0:	f015 0f08 	tst.w	r5, #8
    3ce4:	f023 0307 	bic.w	r3, r3, #7
    3ce8:	920d      	str	r2, [sp, #52]	; 0x34
    3cea:	f103 0608 	add.w	r6, r3, #8
    3cee:	bf14      	ite	ne
    3cf0:	6818      	ldrne	r0, [r3, #0]
    3cf2:	6819      	ldreq	r1, [r3, #0]
    3cf4:	f8cd 9038 	str.w	r9, [sp, #56]	; 0x38
    3cf8:	bf14      	ite	ne
    3cfa:	9010      	strne	r0, [sp, #64]	; 0x40
    3cfc:	9110      	streq	r1, [sp, #64]	; 0x40
    3cfe:	685b      	ldr	r3, [r3, #4]
    3d00:	9810      	ldr	r0, [sp, #64]	; 0x40
    3d02:	f8cd c018 	str.w	ip, [sp, #24]
    3d06:	9311      	str	r3, [sp, #68]	; 0x44
    3d08:	9911      	ldr	r1, [sp, #68]	; 0x44
    3d0a:	f004 fd13 	bl	8734 <__fpclassifyd>
    3d0e:	f8dd c018 	ldr.w	ip, [sp, #24]
    3d12:	2801      	cmp	r0, #1
    3d14:	d119      	bne.n	3d4a <_svfprintf_r+0x34e>
    3d16:	9810      	ldr	r0, [sp, #64]	; 0x40
    3d18:	2200      	movs	r2, #0
    3d1a:	9911      	ldr	r1, [sp, #68]	; 0x44
    3d1c:	2300      	movs	r3, #0
    3d1e:	f007 f9f3 	bl	b108 <__aeabi_dcmplt>
    3d22:	b110      	cbz	r0, 3d2a <_svfprintf_r+0x32e>
    3d24:	232d      	movs	r3, #45	; 0x2d
    3d26:	f88d 30f7 	strb.w	r3, [sp, #247]	; 0xf7
    3d2a:	4ba9      	ldr	r3, [pc, #676]	; (3fd0 <_svfprintf_r+0x5d4>)
    3d2c:	f04f 0c00 	mov.w	ip, #0
    3d30:	4aa8      	ldr	r2, [pc, #672]	; (3fd4 <_svfprintf_r+0x5d8>)
    3d32:	f025 0580 	bic.w	r5, r5, #128	; 0x80
    3d36:	f04f 0b03 	mov.w	fp, #3
    3d3a:	f8cd c020 	str.w	ip, [sp, #32]
    3d3e:	f1b9 0f47 	cmp.w	r9, #71	; 0x47
    3d42:	bfcc      	ite	gt
    3d44:	4692      	movgt	sl, r2
    3d46:	469a      	movle	sl, r3
    3d48:	e2fd      	b.n	4346 <_svfprintf_r+0x94a>
    3d4a:	9810      	ldr	r0, [sp, #64]	; 0x40
    3d4c:	9911      	ldr	r1, [sp, #68]	; 0x44
    3d4e:	f8cd c018 	str.w	ip, [sp, #24]
    3d52:	f004 fcef 	bl	8734 <__fpclassifyd>
    3d56:	f8dd c018 	ldr.w	ip, [sp, #24]
    3d5a:	b958      	cbnz	r0, 3d74 <_svfprintf_r+0x378>
    3d5c:	4b9e      	ldr	r3, [pc, #632]	; (3fd8 <_svfprintf_r+0x5dc>)
    3d5e:	f025 0580 	bic.w	r5, r5, #128	; 0x80
    3d62:	4a9e      	ldr	r2, [pc, #632]	; (3fdc <_svfprintf_r+0x5e0>)
    3d64:	f04f 0b03 	mov.w	fp, #3
    3d68:	f1b9 0f47 	cmp.w	r9, #71	; 0x47
    3d6c:	bfcc      	ite	gt
    3d6e:	4692      	movgt	sl, r2
    3d70:	469a      	movle	sl, r3
    3d72:	e2dd      	b.n	4330 <_svfprintf_r+0x934>
    3d74:	f1bc 3fff 	cmp.w	ip, #4294967295	; 0xffffffff
    3d78:	d00b      	beq.n	3d92 <_svfprintf_r+0x396>
    3d7a:	f1b9 0f67 	cmp.w	r9, #103	; 0x67
    3d7e:	d002      	beq.n	3d86 <_svfprintf_r+0x38a>
    3d80:	f1b9 0f47 	cmp.w	r9, #71	; 0x47
    3d84:	d107      	bne.n	3d96 <_svfprintf_r+0x39a>
    3d86:	f1bc 0f00 	cmp.w	ip, #0
    3d8a:	bf08      	it	eq
    3d8c:	f04f 0c01 	moveq.w	ip, #1
    3d90:	e001      	b.n	3d96 <_svfprintf_r+0x39a>
    3d92:	f04f 0c06 	mov.w	ip, #6
    3d96:	9b11      	ldr	r3, [sp, #68]	; 0x44
    3d98:	f445 7580 	orr.w	r5, r5, #256	; 0x100
    3d9c:	2b00      	cmp	r3, #0
    3d9e:	da05      	bge.n	3dac <_svfprintf_r+0x3b0>
    3da0:	f103 4200 	add.w	r2, r3, #2147483648	; 0x80000000
    3da4:	232d      	movs	r3, #45	; 0x2d
    3da6:	920b      	str	r2, [sp, #44]	; 0x2c
    3da8:	9314      	str	r3, [sp, #80]	; 0x50
    3daa:	e003      	b.n	3db4 <_svfprintf_r+0x3b8>
    3dac:	9811      	ldr	r0, [sp, #68]	; 0x44
    3dae:	2100      	movs	r1, #0
    3db0:	9114      	str	r1, [sp, #80]	; 0x50
    3db2:	900b      	str	r0, [sp, #44]	; 0x2c
    3db4:	f1b9 0f66 	cmp.w	r9, #102	; 0x66
